ARM GAS  /tmp/ccsJv4yF.s 			page 1


   1              		.cpu cortex-m4
   2              		.eabi_attribute 27, 1
   3              		.eabi_attribute 28, 1
   4              		.eabi_attribute 20, 1
   5              		.eabi_attribute 21, 1
   6              		.eabi_attribute 23, 3
   7              		.eabi_attribute 24, 1
   8              		.eabi_attribute 25, 1
   9              		.eabi_attribute 26, 1
  10              		.eabi_attribute 30, 1
  11              		.eabi_attribute 34, 1
  12              		.eabi_attribute 18, 4
  13              		.file	"main.c"
  14              		.text
  15              	.Ltext0:
  16              		.cfi_sections	.debug_frame
  17              		.section	.text.MX_GPIO_Init,"ax",%progbits
  18              		.align	1
  19              		.arch armv7e-m
  20              		.syntax unified
  21              		.thumb
  22              		.thumb_func
  23              		.fpu fpv4-sp-d16
  25              	MX_GPIO_Init:
  26              	.LFB956:
  27              		.file 1 "Core/Src/main.c"
   1:Core/Src/main.c **** /* USER CODE BEGIN Header */
   2:Core/Src/main.c **** /**
   3:Core/Src/main.c ****   ******************************************************************************
   4:Core/Src/main.c ****   * @file           : main.c
   5:Core/Src/main.c ****   * @brief          : Main program body
   6:Core/Src/main.c ****   ******************************************************************************
   7:Core/Src/main.c ****   * @attention
   8:Core/Src/main.c ****   *
   9:Core/Src/main.c ****   * <h2><center>&copy; Copyright (c) 2021 STMicroelectronics.
  10:Core/Src/main.c ****   * All rights reserved.</center></h2>
  11:Core/Src/main.c ****   *
  12:Core/Src/main.c ****   * This software component is licensed by ST under Ultimate Liberty license
  13:Core/Src/main.c ****   * SLA0044, the "License"; You may not use this file except in compliance with
  14:Core/Src/main.c ****   * the License. You may obtain a copy of the License at:
  15:Core/Src/main.c ****   *                             www.st.com/SLA0044
  16:Core/Src/main.c ****   *
  17:Core/Src/main.c ****   ******************************************************************************
  18:Core/Src/main.c ****   */
  19:Core/Src/main.c **** /* USER CODE END Header */
  20:Core/Src/main.c **** /* Includes ------------------------------------------------------------------*/
  21:Core/Src/main.c **** #include "main.h"
  22:Core/Src/main.c **** #include "cmsis_os.h"
  23:Core/Src/main.c **** #include "stdio.h"
  24:Core/Src/main.c **** #include <string.h>
  25:Core/Src/main.c **** #include "retarget.h"
  26:Core/Src/main.c **** #include "sha256.h"
  27:Core/Src/main.c **** #include "encrypt.h"
  28:Core/Src/main.c **** #include "secp256k1.h"
  29:Core/Src/main.c **** #include "secp256k1_recovery.h"
  30:Core/Src/main.c **** #include <stdlib.h>
  31:Core/Src/main.c **** /* Private includes ----------------------------------------------------------*/
ARM GAS  /tmp/ccsJv4yF.s 			page 2


  32:Core/Src/main.c **** /* USER CODE BEGIN Includes */
  33:Core/Src/main.c **** 
  34:Core/Src/main.c **** /* USER CODE END Includes */
  35:Core/Src/main.c **** 
  36:Core/Src/main.c **** /* Private typedef -----------------------------------------------------------*/
  37:Core/Src/main.c **** /* USER CODE BEGIN PTD */
  38:Core/Src/main.c **** 
  39:Core/Src/main.c **** /* USER CODE END PTD */
  40:Core/Src/main.c **** 
  41:Core/Src/main.c **** /* Private define ------------------------------------------------------------*/
  42:Core/Src/main.c **** /* USER CODE BEGIN PD */
  43:Core/Src/main.c **** /* USER CODE END PD */
  44:Core/Src/main.c **** 
  45:Core/Src/main.c **** /* Private macro -------------------------------------------------------------*/
  46:Core/Src/main.c **** /* USER CODE BEGIN PM */
  47:Core/Src/main.c **** 
  48:Core/Src/main.c **** /* USER CODE END PM */
  49:Core/Src/main.c **** 
  50:Core/Src/main.c **** /* Private variables ---------------------------------------------------------*/
  51:Core/Src/main.c **** UART_HandleTypeDef huart1;
  52:Core/Src/main.c **** 
  53:Core/Src/main.c **** /* Definitions for defaultTask */
  54:Core/Src/main.c **** osThreadId_t defaultTaskHandle;
  55:Core/Src/main.c **** const osThreadAttr_t defaultTask_attributes = {
  56:Core/Src/main.c ****   .name = "defaultTask",
  57:Core/Src/main.c ****   .priority = (osPriority_t) osPriorityNormal,
  58:Core/Src/main.c ****   .stack_size = 128 * 4
  59:Core/Src/main.c **** };
  60:Core/Src/main.c **** /* USER CODE BEGIN PV */
  61:Core/Src/main.c **** 
  62:Core/Src/main.c **** /* USER CODE END PV */
  63:Core/Src/main.c **** 
  64:Core/Src/main.c **** /* Private function prototypes -----------------------------------------------*/
  65:Core/Src/main.c **** void SystemClock_Config(void);
  66:Core/Src/main.c **** static void MX_GPIO_Init(void);
  67:Core/Src/main.c **** static void MX_USART1_UART_Init(void);
  68:Core/Src/main.c **** void StartDefaultTask(void *argument);
  69:Core/Src/main.c **** 
  70:Core/Src/main.c **** /* USER CODE BEGIN PFP */
  71:Core/Src/main.c **** 
  72:Core/Src/main.c **** /* USER CODE END PFP */
  73:Core/Src/main.c **** 
  74:Core/Src/main.c **** /* Private user code ---------------------------------------------------------*/
  75:Core/Src/main.c **** /* USER CODE BEGIN 0 */
  76:Core/Src/main.c **** 
  77:Core/Src/main.c **** /* USER CODE END 0 */
  78:Core/Src/main.c **** 
  79:Core/Src/main.c **** /**
  80:Core/Src/main.c ****   * @brief  The application entry point.
  81:Core/Src/main.c ****   * @retval int
  82:Core/Src/main.c ****   */
  83:Core/Src/main.c **** int main(void)
  84:Core/Src/main.c **** {
  85:Core/Src/main.c ****   
  86:Core/Src/main.c ****   /* USER CODE BEGIN 1 */
  87:Core/Src/main.c **** 
  88:Core/Src/main.c ****   /* USER CODE END 1 */
ARM GAS  /tmp/ccsJv4yF.s 			page 3


  89:Core/Src/main.c **** 
  90:Core/Src/main.c ****   /* MCU Configuration--------------------------------------------------------*/
  91:Core/Src/main.c **** 
  92:Core/Src/main.c ****   /* Reset of all peripherals, Initializes the Flash interface and the Systick. */
  93:Core/Src/main.c ****   HAL_Init();
  94:Core/Src/main.c **** 
  95:Core/Src/main.c ****   /* USER CODE BEGIN Init */
  96:Core/Src/main.c **** 
  97:Core/Src/main.c ****   /* USER CODE END Init */
  98:Core/Src/main.c **** 
  99:Core/Src/main.c ****   /* Configure the system clock */
 100:Core/Src/main.c ****   SystemClock_Config();
 101:Core/Src/main.c **** 
 102:Core/Src/main.c ****   /* USER CODE BEGIN SysInit */
 103:Core/Src/main.c **** 
 104:Core/Src/main.c ****   /* USER CODE END SysInit */
 105:Core/Src/main.c **** 
 106:Core/Src/main.c ****   /* Initialize all configured peripherals */
 107:Core/Src/main.c ****   MX_GPIO_Init();
 108:Core/Src/main.c ****   MX_USART1_UART_Init();
 109:Core/Src/main.c ****   /* USER CODE BEGIN 2 */
 110:Core/Src/main.c ****   RetargetInit(&huart1);
 111:Core/Src/main.c **** 
 112:Core/Src/main.c ****   /* USER CODE END 2 */
 113:Core/Src/main.c **** 
 114:Core/Src/main.c ****   /* Init scheduler */
 115:Core/Src/main.c ****   osKernelInitialize();
 116:Core/Src/main.c **** 
 117:Core/Src/main.c ****   /* USER CODE BEGIN RTOS_MUTEX */
 118:Core/Src/main.c ****   /* add mutexes, ... */
 119:Core/Src/main.c ****   /* USER CODE END RTOS_MUTEX */
 120:Core/Src/main.c **** 
 121:Core/Src/main.c ****   /* USER CODE BEGIN RTOS_SEMAPHORES */
 122:Core/Src/main.c ****   /* add semaphores, ... */
 123:Core/Src/main.c ****   /* USER CODE END RTOS_SEMAPHORES */
 124:Core/Src/main.c **** 
 125:Core/Src/main.c ****   /* USER CODE BEGIN RTOS_TIMERS */
 126:Core/Src/main.c ****   /* start timers, add new ones, ... */
 127:Core/Src/main.c ****   /* USER CODE END RTOS_TIMERS */
 128:Core/Src/main.c **** 
 129:Core/Src/main.c ****   /* USER CODE BEGIN RTOS_QUEUES */
 130:Core/Src/main.c ****   /* add queues, ... */
 131:Core/Src/main.c ****   /* USER CODE END RTOS_QUEUES */
 132:Core/Src/main.c **** 
 133:Core/Src/main.c ****   /* Create the thread(s) */
 134:Core/Src/main.c ****   /* creation of defaultTask */
 135:Core/Src/main.c ****   defaultTaskHandle = osThreadNew(StartDefaultTask, NULL, &defaultTask_attributes);
 136:Core/Src/main.c **** 
 137:Core/Src/main.c ****   /* USER CODE BEGIN RTOS_THREADS */
 138:Core/Src/main.c ****   /* add threads, ... */
 139:Core/Src/main.c ****   /* USER CODE END RTOS_THREADS */
 140:Core/Src/main.c **** 
 141:Core/Src/main.c ****   /* USER CODE BEGIN RTOS_EVENTS */
 142:Core/Src/main.c ****   /* add events, ... */
 143:Core/Src/main.c ****   /* USER CODE END RTOS_EVENTS */
 144:Core/Src/main.c **** 
 145:Core/Src/main.c ****   /* Start scheduler */
ARM GAS  /tmp/ccsJv4yF.s 			page 4


 146:Core/Src/main.c ****   osKernelStart();
 147:Core/Src/main.c **** 
 148:Core/Src/main.c ****   /* We should never get here as control is now taken by the scheduler */
 149:Core/Src/main.c ****   /* Infinite loop */
 150:Core/Src/main.c ****   /* USER CODE BEGIN WHILE */
 151:Core/Src/main.c ****   while (1)
 152:Core/Src/main.c ****   {
 153:Core/Src/main.c ****     /* USER CODE END WHILE */
 154:Core/Src/main.c **** 
 155:Core/Src/main.c ****   
 156:Core/Src/main.c ****     /* USER CODE BEGIN 3 */
 157:Core/Src/main.c ****   }
 158:Core/Src/main.c ****   /* USER CODE END 3 */
 159:Core/Src/main.c **** }
 160:Core/Src/main.c **** 
 161:Core/Src/main.c **** /**
 162:Core/Src/main.c ****   * @brief System Clock Configuration
 163:Core/Src/main.c ****   * @retval None
 164:Core/Src/main.c ****   */
 165:Core/Src/main.c **** void SystemClock_Config(void)
 166:Core/Src/main.c **** {
 167:Core/Src/main.c ****   RCC_OscInitTypeDef RCC_OscInitStruct = {0};
 168:Core/Src/main.c ****   RCC_ClkInitTypeDef RCC_ClkInitStruct = {0};
 169:Core/Src/main.c ****   RCC_PeriphCLKInitTypeDef PeriphClkInitStruct = {0};
 170:Core/Src/main.c **** 
 171:Core/Src/main.c ****   /** Configure the main internal regulator output voltage
 172:Core/Src/main.c ****   */
 173:Core/Src/main.c ****   __HAL_PWR_VOLTAGESCALING_CONFIG(PWR_REGULATOR_VOLTAGE_SCALE1);
 174:Core/Src/main.c ****   /** Initializes the RCC Oscillators according to the specified parameters
 175:Core/Src/main.c ****   * in the RCC_OscInitTypeDef structure.
 176:Core/Src/main.c ****   */
 177:Core/Src/main.c ****   RCC_OscInitStruct.OscillatorType = RCC_OSCILLATORTYPE_HSI|RCC_OSCILLATORTYPE_MSI;
 178:Core/Src/main.c ****   RCC_OscInitStruct.HSIState = RCC_HSI_ON;
 179:Core/Src/main.c ****   RCC_OscInitStruct.MSIState = RCC_MSI_ON;
 180:Core/Src/main.c ****   RCC_OscInitStruct.HSICalibrationValue = RCC_HSICALIBRATION_DEFAULT;
 181:Core/Src/main.c ****   RCC_OscInitStruct.MSICalibrationValue = RCC_MSICALIBRATION_DEFAULT;
 182:Core/Src/main.c ****   RCC_OscInitStruct.MSIClockRange = RCC_MSIRANGE_10;
 183:Core/Src/main.c ****   RCC_OscInitStruct.PLL.PLLState = RCC_PLL_NONE;
 184:Core/Src/main.c ****   if (HAL_RCC_OscConfig(&RCC_OscInitStruct) != HAL_OK)
 185:Core/Src/main.c ****   {
 186:Core/Src/main.c ****     Error_Handler();
 187:Core/Src/main.c ****   }
 188:Core/Src/main.c ****   /** Configure the SYSCLKSource, HCLK, PCLK1 and PCLK2 clocks dividers
 189:Core/Src/main.c ****   */
 190:Core/Src/main.c ****   RCC_ClkInitStruct.ClockType = RCC_CLOCKTYPE_HCLK4|RCC_CLOCKTYPE_HCLK2
 191:Core/Src/main.c ****                               |RCC_CLOCKTYPE_HCLK|RCC_CLOCKTYPE_SYSCLK
 192:Core/Src/main.c ****                               |RCC_CLOCKTYPE_PCLK1|RCC_CLOCKTYPE_PCLK2;
 193:Core/Src/main.c ****   RCC_ClkInitStruct.SYSCLKSource = RCC_SYSCLKSOURCE_MSI;
 194:Core/Src/main.c ****   RCC_ClkInitStruct.AHBCLKDivider = RCC_SYSCLK_DIV1;
 195:Core/Src/main.c ****   RCC_ClkInitStruct.APB1CLKDivider = RCC_HCLK_DIV1;
 196:Core/Src/main.c ****   RCC_ClkInitStruct.APB2CLKDivider = RCC_HCLK_DIV1;
 197:Core/Src/main.c ****   RCC_ClkInitStruct.AHBCLK2Divider = RCC_SYSCLK_DIV1;
 198:Core/Src/main.c ****   RCC_ClkInitStruct.AHBCLK4Divider = RCC_SYSCLK_DIV1;
 199:Core/Src/main.c **** 
 200:Core/Src/main.c ****   if (HAL_RCC_ClockConfig(&RCC_ClkInitStruct, FLASH_LATENCY_1) != HAL_OK)
 201:Core/Src/main.c ****   {
 202:Core/Src/main.c ****     Error_Handler();
ARM GAS  /tmp/ccsJv4yF.s 			page 5


 203:Core/Src/main.c ****   }
 204:Core/Src/main.c ****   /** Initializes the peripherals clocks
 205:Core/Src/main.c ****   */
 206:Core/Src/main.c ****   PeriphClkInitStruct.PeriphClockSelection = RCC_PERIPHCLK_SMPS|RCC_PERIPHCLK_USART1;
 207:Core/Src/main.c ****   PeriphClkInitStruct.Usart1ClockSelection = RCC_USART1CLKSOURCE_PCLK2;
 208:Core/Src/main.c ****   PeriphClkInitStruct.SmpsClockSelection = RCC_SMPSCLKSOURCE_HSI;
 209:Core/Src/main.c ****   PeriphClkInitStruct.SmpsDivSelection = RCC_SMPSCLKDIV_RANGE0;
 210:Core/Src/main.c ****   if (HAL_RCCEx_PeriphCLKConfig(&PeriphClkInitStruct) != HAL_OK)
 211:Core/Src/main.c ****   {
 212:Core/Src/main.c ****     Error_Handler();
 213:Core/Src/main.c ****   }
 214:Core/Src/main.c ****   /* USER CODE BEGIN Smps */
 215:Core/Src/main.c **** 
 216:Core/Src/main.c ****   /* USER CODE END Smps */
 217:Core/Src/main.c **** }
 218:Core/Src/main.c **** 
 219:Core/Src/main.c **** /**
 220:Core/Src/main.c ****   * @brief USART1 Initialization Function
 221:Core/Src/main.c ****   * @param None
 222:Core/Src/main.c ****   * @retval None
 223:Core/Src/main.c ****   */
 224:Core/Src/main.c **** static void MX_USART1_UART_Init(void)
 225:Core/Src/main.c **** {
 226:Core/Src/main.c **** 
 227:Core/Src/main.c ****   /* USER CODE BEGIN USART1_Init 0 */
 228:Core/Src/main.c **** 
 229:Core/Src/main.c ****   /* USER CODE END USART1_Init 0 */
 230:Core/Src/main.c **** 
 231:Core/Src/main.c ****   /* USER CODE BEGIN USART1_Init 1 */
 232:Core/Src/main.c **** 
 233:Core/Src/main.c ****   /* USER CODE END USART1_Init 1 */
 234:Core/Src/main.c ****   huart1.Instance = USART1;
 235:Core/Src/main.c ****   huart1.Init.BaudRate = 115200;
 236:Core/Src/main.c ****   huart1.Init.WordLength = UART_WORDLENGTH_8B;
 237:Core/Src/main.c ****   huart1.Init.StopBits = UART_STOPBITS_1;
 238:Core/Src/main.c ****   huart1.Init.Parity = UART_PARITY_NONE;
 239:Core/Src/main.c ****   huart1.Init.Mode = UART_MODE_TX_RX;
 240:Core/Src/main.c ****   huart1.Init.HwFlowCtl = UART_HWCONTROL_NONE;
 241:Core/Src/main.c ****   huart1.Init.OverSampling = UART_OVERSAMPLING_16;
 242:Core/Src/main.c ****   huart1.Init.OneBitSampling = UART_ONE_BIT_SAMPLE_DISABLE;
 243:Core/Src/main.c ****   huart1.Init.ClockPrescaler = UART_PRESCALER_DIV1;
 244:Core/Src/main.c ****   huart1.AdvancedInit.AdvFeatureInit = UART_ADVFEATURE_NO_INIT;
 245:Core/Src/main.c ****   if (HAL_UART_Init(&huart1) != HAL_OK)
 246:Core/Src/main.c ****   {
 247:Core/Src/main.c ****     Error_Handler();
 248:Core/Src/main.c ****   }
 249:Core/Src/main.c ****   if (HAL_UARTEx_SetTxFifoThreshold(&huart1, UART_TXFIFO_THRESHOLD_1_8) != HAL_OK)
 250:Core/Src/main.c ****   {
 251:Core/Src/main.c ****     Error_Handler();
 252:Core/Src/main.c ****   }
 253:Core/Src/main.c ****   if (HAL_UARTEx_SetRxFifoThreshold(&huart1, UART_RXFIFO_THRESHOLD_1_8) != HAL_OK)
 254:Core/Src/main.c ****   {
 255:Core/Src/main.c ****     Error_Handler();
 256:Core/Src/main.c ****   }
 257:Core/Src/main.c ****   if (HAL_UARTEx_DisableFifoMode(&huart1) != HAL_OK)
 258:Core/Src/main.c ****   {
 259:Core/Src/main.c ****     Error_Handler();
ARM GAS  /tmp/ccsJv4yF.s 			page 6


 260:Core/Src/main.c ****   }
 261:Core/Src/main.c ****   /* USER CODE BEGIN USART1_Init 2 */
 262:Core/Src/main.c **** 
 263:Core/Src/main.c ****   /* USER CODE END USART1_Init 2 */
 264:Core/Src/main.c **** 
 265:Core/Src/main.c **** }
 266:Core/Src/main.c **** 
 267:Core/Src/main.c **** /**
 268:Core/Src/main.c ****   * @brief GPIO Initialization Function
 269:Core/Src/main.c ****   * @param None
 270:Core/Src/main.c ****   * @retval None
 271:Core/Src/main.c ****   */
 272:Core/Src/main.c **** static void MX_GPIO_Init(void)
 273:Core/Src/main.c **** {
  28              		.loc 1 273 1 view -0
  29              		.cfi_startproc
  30              		@ args = 0, pretend = 0, frame = 40
  31              		@ frame_needed = 0, uses_anonymous_args = 0
  32 0000 70B5     		push	{r4, r5, r6, lr}
  33              	.LCFI0:
  34              		.cfi_def_cfa_offset 16
  35              		.cfi_offset 4, -16
  36              		.cfi_offset 5, -12
  37              		.cfi_offset 6, -8
  38              		.cfi_offset 14, -4
  39 0002 8AB0     		sub	sp, sp, #40
  40              	.LCFI1:
  41              		.cfi_def_cfa_offset 56
 274:Core/Src/main.c ****   GPIO_InitTypeDef GPIO_InitStruct = {0};
  42              		.loc 1 274 3 view .LVU1
  43              		.loc 1 274 20 is_stmt 0 view .LVU2
  44 0004 0024     		movs	r4, #0
  45 0006 0594     		str	r4, [sp, #20]
  46 0008 0694     		str	r4, [sp, #24]
  47 000a 0794     		str	r4, [sp, #28]
  48 000c 0894     		str	r4, [sp, #32]
  49 000e 0994     		str	r4, [sp, #36]
 275:Core/Src/main.c **** 
 276:Core/Src/main.c ****   /* GPIO Ports Clock Enable */
 277:Core/Src/main.c ****   __HAL_RCC_GPIOC_CLK_ENABLE();
  50              		.loc 1 277 3 is_stmt 1 view .LVU3
  51              	.LVL0:
  52              	.LBB12:
  53              	.LBI12:
  54              		.file 2 "Drivers/STM32WBxx_HAL_Driver/Inc/stm32wbxx_ll_bus.h"
   1:Drivers/STM32WBxx_HAL_Driver/Inc/stm32wbxx_ll_bus.h **** /**
   2:Drivers/STM32WBxx_HAL_Driver/Inc/stm32wbxx_ll_bus.h ****   ******************************************************************************
   3:Drivers/STM32WBxx_HAL_Driver/Inc/stm32wbxx_ll_bus.h ****   * @file    stm32wbxx_ll_bus.h
   4:Drivers/STM32WBxx_HAL_Driver/Inc/stm32wbxx_ll_bus.h ****   * @author  MCD Application Team
   5:Drivers/STM32WBxx_HAL_Driver/Inc/stm32wbxx_ll_bus.h ****   * @brief   Header file of BUS LL module.
   6:Drivers/STM32WBxx_HAL_Driver/Inc/stm32wbxx_ll_bus.h **** 
   7:Drivers/STM32WBxx_HAL_Driver/Inc/stm32wbxx_ll_bus.h ****   @verbatim
   8:Drivers/STM32WBxx_HAL_Driver/Inc/stm32wbxx_ll_bus.h ****                       ##### RCC Limitations #####
   9:Drivers/STM32WBxx_HAL_Driver/Inc/stm32wbxx_ll_bus.h ****   ==============================================================================
  10:Drivers/STM32WBxx_HAL_Driver/Inc/stm32wbxx_ll_bus.h ****     [..]
  11:Drivers/STM32WBxx_HAL_Driver/Inc/stm32wbxx_ll_bus.h ****       A delay between an RCC peripheral clock enable and the effective peripheral
  12:Drivers/STM32WBxx_HAL_Driver/Inc/stm32wbxx_ll_bus.h ****       enabling should be taken into account in order to manage the peripheral read/write
ARM GAS  /tmp/ccsJv4yF.s 			page 7


  13:Drivers/STM32WBxx_HAL_Driver/Inc/stm32wbxx_ll_bus.h ****       from/to registers.
  14:Drivers/STM32WBxx_HAL_Driver/Inc/stm32wbxx_ll_bus.h ****       (+) This delay depends on the peripheral mapping.
  15:Drivers/STM32WBxx_HAL_Driver/Inc/stm32wbxx_ll_bus.h ****         (++) AHB & APB peripherals, 1 dummy read is necessary
  16:Drivers/STM32WBxx_HAL_Driver/Inc/stm32wbxx_ll_bus.h **** 
  17:Drivers/STM32WBxx_HAL_Driver/Inc/stm32wbxx_ll_bus.h ****     [..]
  18:Drivers/STM32WBxx_HAL_Driver/Inc/stm32wbxx_ll_bus.h ****       Workarounds:
  19:Drivers/STM32WBxx_HAL_Driver/Inc/stm32wbxx_ll_bus.h ****       (#) For AHB & APB peripherals, a dummy read to the peripheral register has been
  20:Drivers/STM32WBxx_HAL_Driver/Inc/stm32wbxx_ll_bus.h ****           inserted in each LL_{BUS}_GRP{x}_EnableClock() function.
  21:Drivers/STM32WBxx_HAL_Driver/Inc/stm32wbxx_ll_bus.h **** 
  22:Drivers/STM32WBxx_HAL_Driver/Inc/stm32wbxx_ll_bus.h ****   @endverbatim
  23:Drivers/STM32WBxx_HAL_Driver/Inc/stm32wbxx_ll_bus.h ****   ******************************************************************************
  24:Drivers/STM32WBxx_HAL_Driver/Inc/stm32wbxx_ll_bus.h ****   * @attention
  25:Drivers/STM32WBxx_HAL_Driver/Inc/stm32wbxx_ll_bus.h ****   *
  26:Drivers/STM32WBxx_HAL_Driver/Inc/stm32wbxx_ll_bus.h ****   * <h2><center>&copy; Copyright (c) 2019 STMicroelectronics.
  27:Drivers/STM32WBxx_HAL_Driver/Inc/stm32wbxx_ll_bus.h ****   * All rights reserved.</center></h2>
  28:Drivers/STM32WBxx_HAL_Driver/Inc/stm32wbxx_ll_bus.h ****   *
  29:Drivers/STM32WBxx_HAL_Driver/Inc/stm32wbxx_ll_bus.h ****   * This software component is licensed by ST under BSD 3-Clause license,
  30:Drivers/STM32WBxx_HAL_Driver/Inc/stm32wbxx_ll_bus.h ****   * the "License"; You may not use this file except in compliance with the
  31:Drivers/STM32WBxx_HAL_Driver/Inc/stm32wbxx_ll_bus.h ****   * License. You may obtain a copy of the License at:
  32:Drivers/STM32WBxx_HAL_Driver/Inc/stm32wbxx_ll_bus.h ****   *                        opensource.org/licenses/BSD-3-Clause
  33:Drivers/STM32WBxx_HAL_Driver/Inc/stm32wbxx_ll_bus.h ****   *
  34:Drivers/STM32WBxx_HAL_Driver/Inc/stm32wbxx_ll_bus.h ****   ******************************************************************************
  35:Drivers/STM32WBxx_HAL_Driver/Inc/stm32wbxx_ll_bus.h ****   */
  36:Drivers/STM32WBxx_HAL_Driver/Inc/stm32wbxx_ll_bus.h **** 
  37:Drivers/STM32WBxx_HAL_Driver/Inc/stm32wbxx_ll_bus.h **** /* Define to prevent recursive inclusion -------------------------------------*/
  38:Drivers/STM32WBxx_HAL_Driver/Inc/stm32wbxx_ll_bus.h **** #ifndef STM32WBxx_LL_BUS_H
  39:Drivers/STM32WBxx_HAL_Driver/Inc/stm32wbxx_ll_bus.h **** #define STM32WBxx_LL_BUS_H
  40:Drivers/STM32WBxx_HAL_Driver/Inc/stm32wbxx_ll_bus.h **** 
  41:Drivers/STM32WBxx_HAL_Driver/Inc/stm32wbxx_ll_bus.h **** #ifdef __cplusplus
  42:Drivers/STM32WBxx_HAL_Driver/Inc/stm32wbxx_ll_bus.h **** extern "C" {
  43:Drivers/STM32WBxx_HAL_Driver/Inc/stm32wbxx_ll_bus.h **** #endif
  44:Drivers/STM32WBxx_HAL_Driver/Inc/stm32wbxx_ll_bus.h **** 
  45:Drivers/STM32WBxx_HAL_Driver/Inc/stm32wbxx_ll_bus.h **** /* Includes ------------------------------------------------------------------*/
  46:Drivers/STM32WBxx_HAL_Driver/Inc/stm32wbxx_ll_bus.h **** #include "stm32wbxx.h"
  47:Drivers/STM32WBxx_HAL_Driver/Inc/stm32wbxx_ll_bus.h **** 
  48:Drivers/STM32WBxx_HAL_Driver/Inc/stm32wbxx_ll_bus.h **** /** @addtogroup STM32WBxx_LL_Driver
  49:Drivers/STM32WBxx_HAL_Driver/Inc/stm32wbxx_ll_bus.h ****   * @{
  50:Drivers/STM32WBxx_HAL_Driver/Inc/stm32wbxx_ll_bus.h ****   */
  51:Drivers/STM32WBxx_HAL_Driver/Inc/stm32wbxx_ll_bus.h **** 
  52:Drivers/STM32WBxx_HAL_Driver/Inc/stm32wbxx_ll_bus.h **** #if defined(RCC)
  53:Drivers/STM32WBxx_HAL_Driver/Inc/stm32wbxx_ll_bus.h **** 
  54:Drivers/STM32WBxx_HAL_Driver/Inc/stm32wbxx_ll_bus.h **** /** @defgroup BUS_LL BUS
  55:Drivers/STM32WBxx_HAL_Driver/Inc/stm32wbxx_ll_bus.h ****   * @{
  56:Drivers/STM32WBxx_HAL_Driver/Inc/stm32wbxx_ll_bus.h ****   */
  57:Drivers/STM32WBxx_HAL_Driver/Inc/stm32wbxx_ll_bus.h **** 
  58:Drivers/STM32WBxx_HAL_Driver/Inc/stm32wbxx_ll_bus.h **** /* Private types -------------------------------------------------------------*/
  59:Drivers/STM32WBxx_HAL_Driver/Inc/stm32wbxx_ll_bus.h **** /* Private variables ---------------------------------------------------------*/
  60:Drivers/STM32WBxx_HAL_Driver/Inc/stm32wbxx_ll_bus.h **** 
  61:Drivers/STM32WBxx_HAL_Driver/Inc/stm32wbxx_ll_bus.h **** /* Private constants ---------------------------------------------------------*/
  62:Drivers/STM32WBxx_HAL_Driver/Inc/stm32wbxx_ll_bus.h **** 
  63:Drivers/STM32WBxx_HAL_Driver/Inc/stm32wbxx_ll_bus.h **** /* Private macros ------------------------------------------------------------*/
  64:Drivers/STM32WBxx_HAL_Driver/Inc/stm32wbxx_ll_bus.h **** 
  65:Drivers/STM32WBxx_HAL_Driver/Inc/stm32wbxx_ll_bus.h **** /* Exported types ------------------------------------------------------------*/
  66:Drivers/STM32WBxx_HAL_Driver/Inc/stm32wbxx_ll_bus.h **** 
  67:Drivers/STM32WBxx_HAL_Driver/Inc/stm32wbxx_ll_bus.h **** /* Exported constants --------------------------------------------------------*/
  68:Drivers/STM32WBxx_HAL_Driver/Inc/stm32wbxx_ll_bus.h **** /** @defgroup BUS_LL_Exported_Constants BUS Exported Constants
  69:Drivers/STM32WBxx_HAL_Driver/Inc/stm32wbxx_ll_bus.h ****   * @{
ARM GAS  /tmp/ccsJv4yF.s 			page 8


  70:Drivers/STM32WBxx_HAL_Driver/Inc/stm32wbxx_ll_bus.h ****   */
  71:Drivers/STM32WBxx_HAL_Driver/Inc/stm32wbxx_ll_bus.h **** 
  72:Drivers/STM32WBxx_HAL_Driver/Inc/stm32wbxx_ll_bus.h **** /** @defgroup BUS_LL_EC_AHB1_GRP1_PERIPH  AHB1 GRP1 PERIPH
  73:Drivers/STM32WBxx_HAL_Driver/Inc/stm32wbxx_ll_bus.h ****   * @{
  74:Drivers/STM32WBxx_HAL_Driver/Inc/stm32wbxx_ll_bus.h ****   */
  75:Drivers/STM32WBxx_HAL_Driver/Inc/stm32wbxx_ll_bus.h **** #define LL_AHB1_GRP1_PERIPH_ALL            (0xFFFFFFFFU)
  76:Drivers/STM32WBxx_HAL_Driver/Inc/stm32wbxx_ll_bus.h **** 
  77:Drivers/STM32WBxx_HAL_Driver/Inc/stm32wbxx_ll_bus.h **** #define LL_AHB1_GRP1_PERIPH_DMA1           RCC_AHB1ENR_DMA1EN
  78:Drivers/STM32WBxx_HAL_Driver/Inc/stm32wbxx_ll_bus.h **** #if defined(DMA2)
  79:Drivers/STM32WBxx_HAL_Driver/Inc/stm32wbxx_ll_bus.h **** #define LL_AHB1_GRP1_PERIPH_DMA2           RCC_AHB1ENR_DMA2EN
  80:Drivers/STM32WBxx_HAL_Driver/Inc/stm32wbxx_ll_bus.h **** #endif
  81:Drivers/STM32WBxx_HAL_Driver/Inc/stm32wbxx_ll_bus.h **** #define LL_AHB1_GRP1_PERIPH_DMAMUX1        RCC_AHB1ENR_DMAMUX1EN
  82:Drivers/STM32WBxx_HAL_Driver/Inc/stm32wbxx_ll_bus.h **** #define LL_AHB1_GRP1_PERIPH_SRAM1          RCC_AHB1SMENR_SRAM1SMEN
  83:Drivers/STM32WBxx_HAL_Driver/Inc/stm32wbxx_ll_bus.h **** #define LL_AHB1_GRP1_PERIPH_CRC            RCC_AHB1ENR_CRCEN
  84:Drivers/STM32WBxx_HAL_Driver/Inc/stm32wbxx_ll_bus.h **** #if defined(TSC)
  85:Drivers/STM32WBxx_HAL_Driver/Inc/stm32wbxx_ll_bus.h **** #define LL_AHB1_GRP1_PERIPH_TSC            RCC_AHB1ENR_TSCEN
  86:Drivers/STM32WBxx_HAL_Driver/Inc/stm32wbxx_ll_bus.h **** #endif
  87:Drivers/STM32WBxx_HAL_Driver/Inc/stm32wbxx_ll_bus.h **** /**
  88:Drivers/STM32WBxx_HAL_Driver/Inc/stm32wbxx_ll_bus.h ****   * @}
  89:Drivers/STM32WBxx_HAL_Driver/Inc/stm32wbxx_ll_bus.h ****   */
  90:Drivers/STM32WBxx_HAL_Driver/Inc/stm32wbxx_ll_bus.h **** 
  91:Drivers/STM32WBxx_HAL_Driver/Inc/stm32wbxx_ll_bus.h **** /** @defgroup BUS_LL_EC_AHB2_GRP1_PERIPH  AHB2 GRP1 PERIPH
  92:Drivers/STM32WBxx_HAL_Driver/Inc/stm32wbxx_ll_bus.h ****   * @{
  93:Drivers/STM32WBxx_HAL_Driver/Inc/stm32wbxx_ll_bus.h ****   */
  94:Drivers/STM32WBxx_HAL_Driver/Inc/stm32wbxx_ll_bus.h **** #define LL_AHB2_GRP1_PERIPH_ALL            (0xFFFFFFFFU)
  95:Drivers/STM32WBxx_HAL_Driver/Inc/stm32wbxx_ll_bus.h **** 
  96:Drivers/STM32WBxx_HAL_Driver/Inc/stm32wbxx_ll_bus.h **** #define LL_AHB2_GRP1_PERIPH_GPIOA          RCC_AHB2ENR_GPIOAEN
  97:Drivers/STM32WBxx_HAL_Driver/Inc/stm32wbxx_ll_bus.h **** #define LL_AHB2_GRP1_PERIPH_GPIOB          RCC_AHB2ENR_GPIOBEN
  98:Drivers/STM32WBxx_HAL_Driver/Inc/stm32wbxx_ll_bus.h **** #define LL_AHB2_GRP1_PERIPH_GPIOC          RCC_AHB2ENR_GPIOCEN
  99:Drivers/STM32WBxx_HAL_Driver/Inc/stm32wbxx_ll_bus.h **** #if defined(GPIOD)
 100:Drivers/STM32WBxx_HAL_Driver/Inc/stm32wbxx_ll_bus.h **** #define LL_AHB2_GRP1_PERIPH_GPIOD          RCC_AHB2ENR_GPIODEN
 101:Drivers/STM32WBxx_HAL_Driver/Inc/stm32wbxx_ll_bus.h **** #endif
 102:Drivers/STM32WBxx_HAL_Driver/Inc/stm32wbxx_ll_bus.h **** #define LL_AHB2_GRP1_PERIPH_GPIOE          RCC_AHB2ENR_GPIOEEN
 103:Drivers/STM32WBxx_HAL_Driver/Inc/stm32wbxx_ll_bus.h **** #define LL_AHB2_GRP1_PERIPH_GPIOH          RCC_AHB2ENR_GPIOHEN
 104:Drivers/STM32WBxx_HAL_Driver/Inc/stm32wbxx_ll_bus.h **** #if defined(ADC_SUPPORT_5_MSPS)
 105:Drivers/STM32WBxx_HAL_Driver/Inc/stm32wbxx_ll_bus.h **** #define LL_AHB2_GRP1_PERIPH_ADC            RCC_AHB2ENR_ADCEN
 106:Drivers/STM32WBxx_HAL_Driver/Inc/stm32wbxx_ll_bus.h **** #endif
 107:Drivers/STM32WBxx_HAL_Driver/Inc/stm32wbxx_ll_bus.h **** #if defined(AES1)
 108:Drivers/STM32WBxx_HAL_Driver/Inc/stm32wbxx_ll_bus.h **** #define LL_AHB2_GRP1_PERIPH_AES1           RCC_AHB2ENR_AES1EN
 109:Drivers/STM32WBxx_HAL_Driver/Inc/stm32wbxx_ll_bus.h **** #endif
 110:Drivers/STM32WBxx_HAL_Driver/Inc/stm32wbxx_ll_bus.h **** /**
 111:Drivers/STM32WBxx_HAL_Driver/Inc/stm32wbxx_ll_bus.h ****   * @}
 112:Drivers/STM32WBxx_HAL_Driver/Inc/stm32wbxx_ll_bus.h ****   */
 113:Drivers/STM32WBxx_HAL_Driver/Inc/stm32wbxx_ll_bus.h **** 
 114:Drivers/STM32WBxx_HAL_Driver/Inc/stm32wbxx_ll_bus.h **** /** @defgroup BUS_LL_EC_AHB3_GRP1_PERIPH  AHB3 GRP1 PERIPH
 115:Drivers/STM32WBxx_HAL_Driver/Inc/stm32wbxx_ll_bus.h ****   * @{
 116:Drivers/STM32WBxx_HAL_Driver/Inc/stm32wbxx_ll_bus.h ****   */
 117:Drivers/STM32WBxx_HAL_Driver/Inc/stm32wbxx_ll_bus.h **** #define LL_AHB3_GRP1_PERIPH_ALL            (0xFFFFFFFFU)
 118:Drivers/STM32WBxx_HAL_Driver/Inc/stm32wbxx_ll_bus.h **** #if defined(QUADSPI)
 119:Drivers/STM32WBxx_HAL_Driver/Inc/stm32wbxx_ll_bus.h **** #define LL_AHB3_GRP1_PERIPH_QUADSPI        RCC_AHB3ENR_QUADSPIEN
 120:Drivers/STM32WBxx_HAL_Driver/Inc/stm32wbxx_ll_bus.h **** #endif
 121:Drivers/STM32WBxx_HAL_Driver/Inc/stm32wbxx_ll_bus.h **** #define LL_AHB3_GRP1_PERIPH_PKA            RCC_AHB3ENR_PKAEN
 122:Drivers/STM32WBxx_HAL_Driver/Inc/stm32wbxx_ll_bus.h **** #define LL_AHB3_GRP1_PERIPH_AES2           RCC_AHB3ENR_AES2EN
 123:Drivers/STM32WBxx_HAL_Driver/Inc/stm32wbxx_ll_bus.h **** #define LL_AHB3_GRP1_PERIPH_RNG            RCC_AHB3ENR_RNGEN
 124:Drivers/STM32WBxx_HAL_Driver/Inc/stm32wbxx_ll_bus.h **** #define LL_AHB3_GRP1_PERIPH_HSEM           RCC_AHB3ENR_HSEMEN
 125:Drivers/STM32WBxx_HAL_Driver/Inc/stm32wbxx_ll_bus.h **** #define LL_AHB3_GRP1_PERIPH_IPCC           RCC_AHB3ENR_IPCCEN
 126:Drivers/STM32WBxx_HAL_Driver/Inc/stm32wbxx_ll_bus.h **** #define LL_AHB3_GRP1_PERIPH_SRAM2          RCC_AHB3SMENR_SRAM2SMEN
ARM GAS  /tmp/ccsJv4yF.s 			page 9


 127:Drivers/STM32WBxx_HAL_Driver/Inc/stm32wbxx_ll_bus.h **** #define LL_AHB3_GRP1_PERIPH_FLASH          RCC_AHB3ENR_FLASHEN
 128:Drivers/STM32WBxx_HAL_Driver/Inc/stm32wbxx_ll_bus.h **** /**
 129:Drivers/STM32WBxx_HAL_Driver/Inc/stm32wbxx_ll_bus.h ****   * @}
 130:Drivers/STM32WBxx_HAL_Driver/Inc/stm32wbxx_ll_bus.h ****   */
 131:Drivers/STM32WBxx_HAL_Driver/Inc/stm32wbxx_ll_bus.h **** 
 132:Drivers/STM32WBxx_HAL_Driver/Inc/stm32wbxx_ll_bus.h **** /** @defgroup BUS_LL_EC_APB1_GRP1_PERIPH  APB1 GRP1 PERIPH
 133:Drivers/STM32WBxx_HAL_Driver/Inc/stm32wbxx_ll_bus.h ****   * @{
 134:Drivers/STM32WBxx_HAL_Driver/Inc/stm32wbxx_ll_bus.h ****   */
 135:Drivers/STM32WBxx_HAL_Driver/Inc/stm32wbxx_ll_bus.h **** #define LL_APB1_GRP1_PERIPH_ALL            (0xFFFFFFFFU)
 136:Drivers/STM32WBxx_HAL_Driver/Inc/stm32wbxx_ll_bus.h **** #define LL_APB1_GRP1_PERIPH_TIM2           RCC_APB1ENR1_TIM2EN
 137:Drivers/STM32WBxx_HAL_Driver/Inc/stm32wbxx_ll_bus.h **** #if defined(LCD)
 138:Drivers/STM32WBxx_HAL_Driver/Inc/stm32wbxx_ll_bus.h **** #define LL_APB1_GRP1_PERIPH_LCD            RCC_APB1ENR1_LCDEN
 139:Drivers/STM32WBxx_HAL_Driver/Inc/stm32wbxx_ll_bus.h **** #endif
 140:Drivers/STM32WBxx_HAL_Driver/Inc/stm32wbxx_ll_bus.h **** #define LL_APB1_GRP1_PERIPH_RTCAPB         RCC_APB1ENR1_RTCAPBEN
 141:Drivers/STM32WBxx_HAL_Driver/Inc/stm32wbxx_ll_bus.h **** #define LL_APB1_GRP1_PERIPH_WWDG           RCC_APB1ENR1_WWDGEN
 142:Drivers/STM32WBxx_HAL_Driver/Inc/stm32wbxx_ll_bus.h **** #if defined(SPI2)
 143:Drivers/STM32WBxx_HAL_Driver/Inc/stm32wbxx_ll_bus.h **** #define LL_APB1_GRP1_PERIPH_SPI2           RCC_APB1ENR1_SPI2EN
 144:Drivers/STM32WBxx_HAL_Driver/Inc/stm32wbxx_ll_bus.h **** #endif
 145:Drivers/STM32WBxx_HAL_Driver/Inc/stm32wbxx_ll_bus.h **** #define LL_APB1_GRP1_PERIPH_I2C1           RCC_APB1ENR1_I2C1EN
 146:Drivers/STM32WBxx_HAL_Driver/Inc/stm32wbxx_ll_bus.h **** #if defined(I2C3)
 147:Drivers/STM32WBxx_HAL_Driver/Inc/stm32wbxx_ll_bus.h **** #define LL_APB1_GRP1_PERIPH_I2C3           RCC_APB1ENR1_I2C3EN
 148:Drivers/STM32WBxx_HAL_Driver/Inc/stm32wbxx_ll_bus.h **** #endif
 149:Drivers/STM32WBxx_HAL_Driver/Inc/stm32wbxx_ll_bus.h **** #if defined(CRS)
 150:Drivers/STM32WBxx_HAL_Driver/Inc/stm32wbxx_ll_bus.h **** #define LL_APB1_GRP1_PERIPH_CRS            RCC_APB1ENR1_CRSEN
 151:Drivers/STM32WBxx_HAL_Driver/Inc/stm32wbxx_ll_bus.h **** #endif
 152:Drivers/STM32WBxx_HAL_Driver/Inc/stm32wbxx_ll_bus.h **** #if defined(USB)
 153:Drivers/STM32WBxx_HAL_Driver/Inc/stm32wbxx_ll_bus.h **** #define LL_APB1_GRP1_PERIPH_USB            RCC_APB1ENR1_USBEN
 154:Drivers/STM32WBxx_HAL_Driver/Inc/stm32wbxx_ll_bus.h **** #endif
 155:Drivers/STM32WBxx_HAL_Driver/Inc/stm32wbxx_ll_bus.h **** #define LL_APB1_GRP1_PERIPH_LPTIM1         RCC_APB1ENR1_LPTIM1EN
 156:Drivers/STM32WBxx_HAL_Driver/Inc/stm32wbxx_ll_bus.h **** /**
 157:Drivers/STM32WBxx_HAL_Driver/Inc/stm32wbxx_ll_bus.h ****   * @}
 158:Drivers/STM32WBxx_HAL_Driver/Inc/stm32wbxx_ll_bus.h ****   */
 159:Drivers/STM32WBxx_HAL_Driver/Inc/stm32wbxx_ll_bus.h **** 
 160:Drivers/STM32WBxx_HAL_Driver/Inc/stm32wbxx_ll_bus.h **** 
 161:Drivers/STM32WBxx_HAL_Driver/Inc/stm32wbxx_ll_bus.h **** /** @defgroup BUS_LL_EC_APB1_GRP2_PERIPH  APB1 GRP2 PERIPH
 162:Drivers/STM32WBxx_HAL_Driver/Inc/stm32wbxx_ll_bus.h ****   * @{
 163:Drivers/STM32WBxx_HAL_Driver/Inc/stm32wbxx_ll_bus.h ****   */
 164:Drivers/STM32WBxx_HAL_Driver/Inc/stm32wbxx_ll_bus.h **** #define LL_APB1_GRP2_PERIPH_ALL            (0xFFFFFFFFU)
 165:Drivers/STM32WBxx_HAL_Driver/Inc/stm32wbxx_ll_bus.h **** 
 166:Drivers/STM32WBxx_HAL_Driver/Inc/stm32wbxx_ll_bus.h **** #if defined(LPUART1)
 167:Drivers/STM32WBxx_HAL_Driver/Inc/stm32wbxx_ll_bus.h **** #define LL_APB1_GRP2_PERIPH_LPUART1        RCC_APB1ENR2_LPUART1EN
 168:Drivers/STM32WBxx_HAL_Driver/Inc/stm32wbxx_ll_bus.h **** #endif
 169:Drivers/STM32WBxx_HAL_Driver/Inc/stm32wbxx_ll_bus.h **** #define LL_APB1_GRP2_PERIPH_LPTIM2         RCC_APB1ENR2_LPTIM2EN
 170:Drivers/STM32WBxx_HAL_Driver/Inc/stm32wbxx_ll_bus.h **** /**
 171:Drivers/STM32WBxx_HAL_Driver/Inc/stm32wbxx_ll_bus.h ****   * @}
 172:Drivers/STM32WBxx_HAL_Driver/Inc/stm32wbxx_ll_bus.h ****   */
 173:Drivers/STM32WBxx_HAL_Driver/Inc/stm32wbxx_ll_bus.h **** 
 174:Drivers/STM32WBxx_HAL_Driver/Inc/stm32wbxx_ll_bus.h **** /** @defgroup BUS_LL_EC_APB2_GRP1_PERIPH  APB2 GRP1 PERIPH
 175:Drivers/STM32WBxx_HAL_Driver/Inc/stm32wbxx_ll_bus.h ****   * @{
 176:Drivers/STM32WBxx_HAL_Driver/Inc/stm32wbxx_ll_bus.h ****   */
 177:Drivers/STM32WBxx_HAL_Driver/Inc/stm32wbxx_ll_bus.h **** #define LL_APB2_GRP1_PERIPH_ALL            (0xFFFFFFFFU)
 178:Drivers/STM32WBxx_HAL_Driver/Inc/stm32wbxx_ll_bus.h ****   
 179:Drivers/STM32WBxx_HAL_Driver/Inc/stm32wbxx_ll_bus.h **** #if defined(ADC_SUPPORT_2_5_MSPS)
 180:Drivers/STM32WBxx_HAL_Driver/Inc/stm32wbxx_ll_bus.h **** #define LL_APB2_GRP1_PERIPH_ADC            RCC_APB2ENR_ADCEN
 181:Drivers/STM32WBxx_HAL_Driver/Inc/stm32wbxx_ll_bus.h **** #endif
 182:Drivers/STM32WBxx_HAL_Driver/Inc/stm32wbxx_ll_bus.h **** #define LL_APB2_GRP1_PERIPH_TIM1           RCC_APB2ENR_TIM1EN
 183:Drivers/STM32WBxx_HAL_Driver/Inc/stm32wbxx_ll_bus.h **** #define LL_APB2_GRP1_PERIPH_SPI1           RCC_APB2ENR_SPI1EN
ARM GAS  /tmp/ccsJv4yF.s 			page 10


 184:Drivers/STM32WBxx_HAL_Driver/Inc/stm32wbxx_ll_bus.h **** #define LL_APB2_GRP1_PERIPH_USART1         RCC_APB2ENR_USART1EN
 185:Drivers/STM32WBxx_HAL_Driver/Inc/stm32wbxx_ll_bus.h **** #if defined(TIM16)
 186:Drivers/STM32WBxx_HAL_Driver/Inc/stm32wbxx_ll_bus.h **** #define LL_APB2_GRP1_PERIPH_TIM16          RCC_APB2ENR_TIM16EN
 187:Drivers/STM32WBxx_HAL_Driver/Inc/stm32wbxx_ll_bus.h **** #endif
 188:Drivers/STM32WBxx_HAL_Driver/Inc/stm32wbxx_ll_bus.h **** #if defined(TIM17)
 189:Drivers/STM32WBxx_HAL_Driver/Inc/stm32wbxx_ll_bus.h **** #define LL_APB2_GRP1_PERIPH_TIM17          RCC_APB2ENR_TIM17EN
 190:Drivers/STM32WBxx_HAL_Driver/Inc/stm32wbxx_ll_bus.h **** #endif
 191:Drivers/STM32WBxx_HAL_Driver/Inc/stm32wbxx_ll_bus.h **** #if defined(SAI1)
 192:Drivers/STM32WBxx_HAL_Driver/Inc/stm32wbxx_ll_bus.h **** #define LL_APB2_GRP1_PERIPH_SAI1           RCC_APB2ENR_SAI1EN
 193:Drivers/STM32WBxx_HAL_Driver/Inc/stm32wbxx_ll_bus.h **** #endif
 194:Drivers/STM32WBxx_HAL_Driver/Inc/stm32wbxx_ll_bus.h **** /**
 195:Drivers/STM32WBxx_HAL_Driver/Inc/stm32wbxx_ll_bus.h ****   * @}
 196:Drivers/STM32WBxx_HAL_Driver/Inc/stm32wbxx_ll_bus.h ****   */
 197:Drivers/STM32WBxx_HAL_Driver/Inc/stm32wbxx_ll_bus.h **** 
 198:Drivers/STM32WBxx_HAL_Driver/Inc/stm32wbxx_ll_bus.h **** /** @defgroup BUS_LL_EC_APB3_GRP1_PERIPH  APB3 GRP1 PERIPH
 199:Drivers/STM32WBxx_HAL_Driver/Inc/stm32wbxx_ll_bus.h ****   * @{
 200:Drivers/STM32WBxx_HAL_Driver/Inc/stm32wbxx_ll_bus.h ****   */
 201:Drivers/STM32WBxx_HAL_Driver/Inc/stm32wbxx_ll_bus.h **** #define LL_APB3_GRP1_PERIPH_ALL            (0xFFFFFFFFU)
 202:Drivers/STM32WBxx_HAL_Driver/Inc/stm32wbxx_ll_bus.h **** #define LL_APB3_GRP1_PERIPH_RF             RCC_APB3RSTR_RFRST
 203:Drivers/STM32WBxx_HAL_Driver/Inc/stm32wbxx_ll_bus.h **** /**
 204:Drivers/STM32WBxx_HAL_Driver/Inc/stm32wbxx_ll_bus.h ****   * @}
 205:Drivers/STM32WBxx_HAL_Driver/Inc/stm32wbxx_ll_bus.h ****   */
 206:Drivers/STM32WBxx_HAL_Driver/Inc/stm32wbxx_ll_bus.h **** 
 207:Drivers/STM32WBxx_HAL_Driver/Inc/stm32wbxx_ll_bus.h **** 
 208:Drivers/STM32WBxx_HAL_Driver/Inc/stm32wbxx_ll_bus.h **** /** @defgroup BUS_LL_EC_C2_AHB1_GRP1_PERIPH  C2 AHB1 GRP1 PERIPH
 209:Drivers/STM32WBxx_HAL_Driver/Inc/stm32wbxx_ll_bus.h ****   * @{
 210:Drivers/STM32WBxx_HAL_Driver/Inc/stm32wbxx_ll_bus.h ****   */
 211:Drivers/STM32WBxx_HAL_Driver/Inc/stm32wbxx_ll_bus.h **** #define LL_C2_AHB1_GRP1_PERIPH_DMA1         RCC_C2AHB1ENR_DMA1EN
 212:Drivers/STM32WBxx_HAL_Driver/Inc/stm32wbxx_ll_bus.h **** #if defined(DMA2)
 213:Drivers/STM32WBxx_HAL_Driver/Inc/stm32wbxx_ll_bus.h **** #define LL_C2_AHB1_GRP1_PERIPH_DMA2         RCC_C2AHB1ENR_DMA2EN
 214:Drivers/STM32WBxx_HAL_Driver/Inc/stm32wbxx_ll_bus.h **** #endif
 215:Drivers/STM32WBxx_HAL_Driver/Inc/stm32wbxx_ll_bus.h **** #define LL_C2_AHB1_GRP1_PERIPH_DMAMUX1      RCC_C2AHB1ENR_DMAMUX1EN
 216:Drivers/STM32WBxx_HAL_Driver/Inc/stm32wbxx_ll_bus.h **** #define LL_C2_AHB1_GRP1_PERIPH_SRAM1        RCC_C2AHB1ENR_SRAM1EN
 217:Drivers/STM32WBxx_HAL_Driver/Inc/stm32wbxx_ll_bus.h **** #define LL_C2_AHB1_GRP1_PERIPH_CRC          RCC_C2AHB1ENR_CRCEN
 218:Drivers/STM32WBxx_HAL_Driver/Inc/stm32wbxx_ll_bus.h **** #if defined(TSC)
 219:Drivers/STM32WBxx_HAL_Driver/Inc/stm32wbxx_ll_bus.h **** #define LL_C2_AHB1_GRP1_PERIPH_TSC          RCC_C2AHB1ENR_TSCEN
 220:Drivers/STM32WBxx_HAL_Driver/Inc/stm32wbxx_ll_bus.h **** #endif
 221:Drivers/STM32WBxx_HAL_Driver/Inc/stm32wbxx_ll_bus.h **** /**
 222:Drivers/STM32WBxx_HAL_Driver/Inc/stm32wbxx_ll_bus.h ****   * @}
 223:Drivers/STM32WBxx_HAL_Driver/Inc/stm32wbxx_ll_bus.h ****   */
 224:Drivers/STM32WBxx_HAL_Driver/Inc/stm32wbxx_ll_bus.h **** 
 225:Drivers/STM32WBxx_HAL_Driver/Inc/stm32wbxx_ll_bus.h **** 
 226:Drivers/STM32WBxx_HAL_Driver/Inc/stm32wbxx_ll_bus.h **** /** @defgroup BUS_LL_EC_C2_AHB2_GRP1_PERIPH  C2 AHB2 GRP1 PERIPH
 227:Drivers/STM32WBxx_HAL_Driver/Inc/stm32wbxx_ll_bus.h ****   * @{
 228:Drivers/STM32WBxx_HAL_Driver/Inc/stm32wbxx_ll_bus.h ****   */
 229:Drivers/STM32WBxx_HAL_Driver/Inc/stm32wbxx_ll_bus.h **** #define LL_C2_AHB2_GRP1_PERIPH_GPIOA        RCC_C2AHB2ENR_GPIOAEN
 230:Drivers/STM32WBxx_HAL_Driver/Inc/stm32wbxx_ll_bus.h **** #define LL_C2_AHB2_GRP1_PERIPH_GPIOB        RCC_C2AHB2ENR_GPIOBEN
 231:Drivers/STM32WBxx_HAL_Driver/Inc/stm32wbxx_ll_bus.h **** #define LL_C2_AHB2_GRP1_PERIPH_GPIOC        RCC_C2AHB2ENR_GPIOCEN
 232:Drivers/STM32WBxx_HAL_Driver/Inc/stm32wbxx_ll_bus.h **** #if defined(GPIOD)
 233:Drivers/STM32WBxx_HAL_Driver/Inc/stm32wbxx_ll_bus.h **** #define LL_C2_AHB2_GRP1_PERIPH_GPIOD        RCC_C2AHB2ENR_GPIODEN
 234:Drivers/STM32WBxx_HAL_Driver/Inc/stm32wbxx_ll_bus.h **** #endif
 235:Drivers/STM32WBxx_HAL_Driver/Inc/stm32wbxx_ll_bus.h **** #define LL_C2_AHB2_GRP1_PERIPH_GPIOE        RCC_C2AHB2ENR_GPIOEEN
 236:Drivers/STM32WBxx_HAL_Driver/Inc/stm32wbxx_ll_bus.h **** #define LL_C2_AHB2_GRP1_PERIPH_GPIOH        RCC_C2AHB2ENR_GPIOHEN
 237:Drivers/STM32WBxx_HAL_Driver/Inc/stm32wbxx_ll_bus.h **** #if defined(ADC_SUPPORT_5_MSPS)
 238:Drivers/STM32WBxx_HAL_Driver/Inc/stm32wbxx_ll_bus.h **** #define LL_C2_AHB2_GRP1_PERIPH_ADC          RCC_C2AHB2ENR_ADCEN
 239:Drivers/STM32WBxx_HAL_Driver/Inc/stm32wbxx_ll_bus.h **** #endif
 240:Drivers/STM32WBxx_HAL_Driver/Inc/stm32wbxx_ll_bus.h **** #if defined(AES1)
ARM GAS  /tmp/ccsJv4yF.s 			page 11


 241:Drivers/STM32WBxx_HAL_Driver/Inc/stm32wbxx_ll_bus.h **** #define LL_C2_AHB2_GRP1_PERIPH_AES1         RCC_C2AHB2ENR_AES1EN
 242:Drivers/STM32WBxx_HAL_Driver/Inc/stm32wbxx_ll_bus.h **** #endif
 243:Drivers/STM32WBxx_HAL_Driver/Inc/stm32wbxx_ll_bus.h **** /**
 244:Drivers/STM32WBxx_HAL_Driver/Inc/stm32wbxx_ll_bus.h ****   * @}
 245:Drivers/STM32WBxx_HAL_Driver/Inc/stm32wbxx_ll_bus.h ****   */
 246:Drivers/STM32WBxx_HAL_Driver/Inc/stm32wbxx_ll_bus.h **** 
 247:Drivers/STM32WBxx_HAL_Driver/Inc/stm32wbxx_ll_bus.h **** 
 248:Drivers/STM32WBxx_HAL_Driver/Inc/stm32wbxx_ll_bus.h **** /** @defgroup BUS_LL_EC_C2_AHB3_GRP1_PERIPH  C2 AHB3 GRP1 PERIPH
 249:Drivers/STM32WBxx_HAL_Driver/Inc/stm32wbxx_ll_bus.h ****   * @{
 250:Drivers/STM32WBxx_HAL_Driver/Inc/stm32wbxx_ll_bus.h ****   */
 251:Drivers/STM32WBxx_HAL_Driver/Inc/stm32wbxx_ll_bus.h **** #define LL_C2_AHB3_GRP1_PERIPH_PKA          RCC_C2AHB3ENR_PKAEN
 252:Drivers/STM32WBxx_HAL_Driver/Inc/stm32wbxx_ll_bus.h **** #define LL_C2_AHB3_GRP1_PERIPH_AES2         RCC_C2AHB3ENR_AES2EN
 253:Drivers/STM32WBxx_HAL_Driver/Inc/stm32wbxx_ll_bus.h **** #define LL_C2_AHB3_GRP1_PERIPH_RNG          RCC_C2AHB3ENR_RNGEN
 254:Drivers/STM32WBxx_HAL_Driver/Inc/stm32wbxx_ll_bus.h **** #define LL_C2_AHB3_GRP1_PERIPH_HSEM         RCC_C2AHB3ENR_HSEMEN
 255:Drivers/STM32WBxx_HAL_Driver/Inc/stm32wbxx_ll_bus.h **** #define LL_C2_AHB3_GRP1_PERIPH_IPCC         RCC_C2AHB3ENR_IPCCEN
 256:Drivers/STM32WBxx_HAL_Driver/Inc/stm32wbxx_ll_bus.h **** #define LL_C2_AHB3_GRP1_PERIPH_FLASH        RCC_C2AHB3ENR_FLASHEN
 257:Drivers/STM32WBxx_HAL_Driver/Inc/stm32wbxx_ll_bus.h **** #define LL_C2_AHB3_GRP1_PERIPH_SRAM2        RCC_C2AHB3SMENR_SRAM2SMEN
 258:Drivers/STM32WBxx_HAL_Driver/Inc/stm32wbxx_ll_bus.h **** /**
 259:Drivers/STM32WBxx_HAL_Driver/Inc/stm32wbxx_ll_bus.h ****   * @}
 260:Drivers/STM32WBxx_HAL_Driver/Inc/stm32wbxx_ll_bus.h ****   */
 261:Drivers/STM32WBxx_HAL_Driver/Inc/stm32wbxx_ll_bus.h **** 
 262:Drivers/STM32WBxx_HAL_Driver/Inc/stm32wbxx_ll_bus.h **** 
 263:Drivers/STM32WBxx_HAL_Driver/Inc/stm32wbxx_ll_bus.h **** /** @defgroup BUS_LL_EC_C2_APB1_GRP1_PERIPH  C2 APB1 GRP1 PERIPH
 264:Drivers/STM32WBxx_HAL_Driver/Inc/stm32wbxx_ll_bus.h ****   * @{
 265:Drivers/STM32WBxx_HAL_Driver/Inc/stm32wbxx_ll_bus.h ****   */
 266:Drivers/STM32WBxx_HAL_Driver/Inc/stm32wbxx_ll_bus.h **** #define LL_C2_APB1_GRP1_PERIPH_TIM2         RCC_C2APB1ENR1_TIM2EN
 267:Drivers/STM32WBxx_HAL_Driver/Inc/stm32wbxx_ll_bus.h **** #if defined(LCD)
 268:Drivers/STM32WBxx_HAL_Driver/Inc/stm32wbxx_ll_bus.h **** #define LL_C2_APB1_GRP1_PERIPH_LCD          RCC_C2APB1ENR1_LCDEN
 269:Drivers/STM32WBxx_HAL_Driver/Inc/stm32wbxx_ll_bus.h **** #endif
 270:Drivers/STM32WBxx_HAL_Driver/Inc/stm32wbxx_ll_bus.h **** #define LL_C2_APB1_GRP1_PERIPH_RTCAPB       RCC_C2APB1ENR1_RTCAPBEN
 271:Drivers/STM32WBxx_HAL_Driver/Inc/stm32wbxx_ll_bus.h **** #if defined(SPI2)
 272:Drivers/STM32WBxx_HAL_Driver/Inc/stm32wbxx_ll_bus.h **** #define LL_C2_APB1_GRP1_PERIPH_SPI2         RCC_C2APB1ENR1_SPI2EN
 273:Drivers/STM32WBxx_HAL_Driver/Inc/stm32wbxx_ll_bus.h **** #endif
 274:Drivers/STM32WBxx_HAL_Driver/Inc/stm32wbxx_ll_bus.h **** #define LL_C2_APB1_GRP1_PERIPH_I2C1         RCC_C2APB1ENR1_I2C1EN
 275:Drivers/STM32WBxx_HAL_Driver/Inc/stm32wbxx_ll_bus.h **** #if defined(I2C3)
 276:Drivers/STM32WBxx_HAL_Driver/Inc/stm32wbxx_ll_bus.h **** #define LL_C2_APB1_GRP1_PERIPH_I2C3         RCC_C2APB1ENR1_I2C3EN
 277:Drivers/STM32WBxx_HAL_Driver/Inc/stm32wbxx_ll_bus.h **** #define LL_C2_APB1_GRP1_PERIPH_CRS          RCC_C2APB1ENR1_CRSEN
 278:Drivers/STM32WBxx_HAL_Driver/Inc/stm32wbxx_ll_bus.h **** #define LL_C2_APB1_GRP1_PERIPH_USB          RCC_C2APB1ENR1_USBEN
 279:Drivers/STM32WBxx_HAL_Driver/Inc/stm32wbxx_ll_bus.h **** #endif
 280:Drivers/STM32WBxx_HAL_Driver/Inc/stm32wbxx_ll_bus.h **** #define LL_C2_APB1_GRP1_PERIPH_LPTIM1       RCC_C2APB1ENR1_LPTIM1EN
 281:Drivers/STM32WBxx_HAL_Driver/Inc/stm32wbxx_ll_bus.h **** /**
 282:Drivers/STM32WBxx_HAL_Driver/Inc/stm32wbxx_ll_bus.h ****   * @}
 283:Drivers/STM32WBxx_HAL_Driver/Inc/stm32wbxx_ll_bus.h ****   */
 284:Drivers/STM32WBxx_HAL_Driver/Inc/stm32wbxx_ll_bus.h **** 
 285:Drivers/STM32WBxx_HAL_Driver/Inc/stm32wbxx_ll_bus.h **** 
 286:Drivers/STM32WBxx_HAL_Driver/Inc/stm32wbxx_ll_bus.h **** /** @defgroup BUS_LL_EC_C2_APB1_GRP2_PERIPH  C2 APB1 GRP2 PERIPH
 287:Drivers/STM32WBxx_HAL_Driver/Inc/stm32wbxx_ll_bus.h ****   * @{
 288:Drivers/STM32WBxx_HAL_Driver/Inc/stm32wbxx_ll_bus.h ****   */
 289:Drivers/STM32WBxx_HAL_Driver/Inc/stm32wbxx_ll_bus.h **** #if defined(LPUART1)
 290:Drivers/STM32WBxx_HAL_Driver/Inc/stm32wbxx_ll_bus.h **** #define LL_C2_APB1_GRP2_PERIPH_LPUART1      RCC_C2APB1ENR2_LPUART1EN
 291:Drivers/STM32WBxx_HAL_Driver/Inc/stm32wbxx_ll_bus.h **** #endif
 292:Drivers/STM32WBxx_HAL_Driver/Inc/stm32wbxx_ll_bus.h **** #define LL_C2_APB1_GRP2_PERIPH_LPTIM2       RCC_C2APB1ENR2_LPTIM2EN
 293:Drivers/STM32WBxx_HAL_Driver/Inc/stm32wbxx_ll_bus.h **** /**
 294:Drivers/STM32WBxx_HAL_Driver/Inc/stm32wbxx_ll_bus.h ****   * @}
 295:Drivers/STM32WBxx_HAL_Driver/Inc/stm32wbxx_ll_bus.h ****   */
 296:Drivers/STM32WBxx_HAL_Driver/Inc/stm32wbxx_ll_bus.h **** 
 297:Drivers/STM32WBxx_HAL_Driver/Inc/stm32wbxx_ll_bus.h **** 
ARM GAS  /tmp/ccsJv4yF.s 			page 12


 298:Drivers/STM32WBxx_HAL_Driver/Inc/stm32wbxx_ll_bus.h **** /** @defgroup BUS_LL_EC_C2_APB2_GRP1_PERIPH  C2 APB2 GRP1 PERIPH
 299:Drivers/STM32WBxx_HAL_Driver/Inc/stm32wbxx_ll_bus.h ****   * @{
 300:Drivers/STM32WBxx_HAL_Driver/Inc/stm32wbxx_ll_bus.h ****   */
 301:Drivers/STM32WBxx_HAL_Driver/Inc/stm32wbxx_ll_bus.h **** #if defined(ADC_SUPPORT_2_5_MSPS)
 302:Drivers/STM32WBxx_HAL_Driver/Inc/stm32wbxx_ll_bus.h **** #define LL_C2_APB2_GRP1_PERIPH_ADC          RCC_C2APB2ENR_ADCEN
 303:Drivers/STM32WBxx_HAL_Driver/Inc/stm32wbxx_ll_bus.h **** #endif
 304:Drivers/STM32WBxx_HAL_Driver/Inc/stm32wbxx_ll_bus.h **** #define LL_C2_APB2_GRP1_PERIPH_TIM1         RCC_C2APB2ENR_TIM1EN
 305:Drivers/STM32WBxx_HAL_Driver/Inc/stm32wbxx_ll_bus.h **** #define LL_C2_APB2_GRP1_PERIPH_SPI1         RCC_C2APB2ENR_SPI1EN
 306:Drivers/STM32WBxx_HAL_Driver/Inc/stm32wbxx_ll_bus.h **** #define LL_C2_APB2_GRP1_PERIPH_USART1       RCC_C2APB2ENR_USART1EN
 307:Drivers/STM32WBxx_HAL_Driver/Inc/stm32wbxx_ll_bus.h **** #if defined(TIM16)
 308:Drivers/STM32WBxx_HAL_Driver/Inc/stm32wbxx_ll_bus.h **** #define LL_C2_APB2_GRP1_PERIPH_TIM16        RCC_C2APB2ENR_TIM16EN
 309:Drivers/STM32WBxx_HAL_Driver/Inc/stm32wbxx_ll_bus.h **** #endif
 310:Drivers/STM32WBxx_HAL_Driver/Inc/stm32wbxx_ll_bus.h **** #if defined(TIM17)
 311:Drivers/STM32WBxx_HAL_Driver/Inc/stm32wbxx_ll_bus.h **** #define LL_C2_APB2_GRP1_PERIPH_TIM17        RCC_C2APB2ENR_TIM17EN
 312:Drivers/STM32WBxx_HAL_Driver/Inc/stm32wbxx_ll_bus.h **** #endif
 313:Drivers/STM32WBxx_HAL_Driver/Inc/stm32wbxx_ll_bus.h **** #if defined(SAI1)
 314:Drivers/STM32WBxx_HAL_Driver/Inc/stm32wbxx_ll_bus.h **** #define LL_C2_APB2_GRP1_PERIPH_SAI1         RCC_C2APB2ENR_SAI1EN
 315:Drivers/STM32WBxx_HAL_Driver/Inc/stm32wbxx_ll_bus.h **** #endif
 316:Drivers/STM32WBxx_HAL_Driver/Inc/stm32wbxx_ll_bus.h **** /**
 317:Drivers/STM32WBxx_HAL_Driver/Inc/stm32wbxx_ll_bus.h ****   * @}
 318:Drivers/STM32WBxx_HAL_Driver/Inc/stm32wbxx_ll_bus.h ****   */
 319:Drivers/STM32WBxx_HAL_Driver/Inc/stm32wbxx_ll_bus.h **** 
 320:Drivers/STM32WBxx_HAL_Driver/Inc/stm32wbxx_ll_bus.h **** 
 321:Drivers/STM32WBxx_HAL_Driver/Inc/stm32wbxx_ll_bus.h **** /** @defgroup BUS_LL_EC_C2_APB3_GRP1_PERIPH  C2 APB3 GRP1 PERIPH
 322:Drivers/STM32WBxx_HAL_Driver/Inc/stm32wbxx_ll_bus.h ****   * @{
 323:Drivers/STM32WBxx_HAL_Driver/Inc/stm32wbxx_ll_bus.h ****   */
 324:Drivers/STM32WBxx_HAL_Driver/Inc/stm32wbxx_ll_bus.h **** #define LL_C2_APB3_GRP1_PERIPH_BLE          RCC_C2APB3ENR_BLEEN
 325:Drivers/STM32WBxx_HAL_Driver/Inc/stm32wbxx_ll_bus.h **** #if defined(RCC_802_SUPPORT)
 326:Drivers/STM32WBxx_HAL_Driver/Inc/stm32wbxx_ll_bus.h **** #define LL_C2_APB3_GRP1_PERIPH_802          RCC_C2APB3ENR_802EN
 327:Drivers/STM32WBxx_HAL_Driver/Inc/stm32wbxx_ll_bus.h **** #endif
 328:Drivers/STM32WBxx_HAL_Driver/Inc/stm32wbxx_ll_bus.h **** /**
 329:Drivers/STM32WBxx_HAL_Driver/Inc/stm32wbxx_ll_bus.h ****   * @}
 330:Drivers/STM32WBxx_HAL_Driver/Inc/stm32wbxx_ll_bus.h ****   */
 331:Drivers/STM32WBxx_HAL_Driver/Inc/stm32wbxx_ll_bus.h **** 
 332:Drivers/STM32WBxx_HAL_Driver/Inc/stm32wbxx_ll_bus.h **** 
 333:Drivers/STM32WBxx_HAL_Driver/Inc/stm32wbxx_ll_bus.h **** /**
 334:Drivers/STM32WBxx_HAL_Driver/Inc/stm32wbxx_ll_bus.h ****   * @}
 335:Drivers/STM32WBxx_HAL_Driver/Inc/stm32wbxx_ll_bus.h ****   */
 336:Drivers/STM32WBxx_HAL_Driver/Inc/stm32wbxx_ll_bus.h **** 
 337:Drivers/STM32WBxx_HAL_Driver/Inc/stm32wbxx_ll_bus.h **** /* Exported macro ------------------------------------------------------------*/
 338:Drivers/STM32WBxx_HAL_Driver/Inc/stm32wbxx_ll_bus.h **** 
 339:Drivers/STM32WBxx_HAL_Driver/Inc/stm32wbxx_ll_bus.h **** /* Exported functions --------------------------------------------------------*/
 340:Drivers/STM32WBxx_HAL_Driver/Inc/stm32wbxx_ll_bus.h **** 
 341:Drivers/STM32WBxx_HAL_Driver/Inc/stm32wbxx_ll_bus.h **** /** @defgroup BUS_LL_Exported_Functions BUS Exported Functions
 342:Drivers/STM32WBxx_HAL_Driver/Inc/stm32wbxx_ll_bus.h ****   * @{
 343:Drivers/STM32WBxx_HAL_Driver/Inc/stm32wbxx_ll_bus.h ****   */
 344:Drivers/STM32WBxx_HAL_Driver/Inc/stm32wbxx_ll_bus.h **** 
 345:Drivers/STM32WBxx_HAL_Driver/Inc/stm32wbxx_ll_bus.h **** /** @defgroup BUS_LL_EF_AHB1 AHB1
 346:Drivers/STM32WBxx_HAL_Driver/Inc/stm32wbxx_ll_bus.h ****   * @{
 347:Drivers/STM32WBxx_HAL_Driver/Inc/stm32wbxx_ll_bus.h ****   */
 348:Drivers/STM32WBxx_HAL_Driver/Inc/stm32wbxx_ll_bus.h **** 
 349:Drivers/STM32WBxx_HAL_Driver/Inc/stm32wbxx_ll_bus.h **** /**
 350:Drivers/STM32WBxx_HAL_Driver/Inc/stm32wbxx_ll_bus.h ****   * @brief  Enable AHB1 peripherals clock.
 351:Drivers/STM32WBxx_HAL_Driver/Inc/stm32wbxx_ll_bus.h ****   * @rmtoll AHB1ENR      DMA1EN        LL_AHB1_GRP1_EnableClock\n
 352:Drivers/STM32WBxx_HAL_Driver/Inc/stm32wbxx_ll_bus.h ****   *         AHB1ENR      DMA2EN        LL_AHB1_GRP1_EnableClock\n
 353:Drivers/STM32WBxx_HAL_Driver/Inc/stm32wbxx_ll_bus.h ****   *         AHB1ENR      DMAMUX1EN      LL_AHB1_GRP1_EnableClock\n
 354:Drivers/STM32WBxx_HAL_Driver/Inc/stm32wbxx_ll_bus.h ****   *         AHB1ENR      CRCEN         LL_AHB1_GRP1_EnableClock\n
ARM GAS  /tmp/ccsJv4yF.s 			page 13


 355:Drivers/STM32WBxx_HAL_Driver/Inc/stm32wbxx_ll_bus.h ****   *         AHB1ENR      TSCEN         LL_AHB1_GRP1_EnableClock
 356:Drivers/STM32WBxx_HAL_Driver/Inc/stm32wbxx_ll_bus.h ****   * @param  Periphs This parameter can be a combination of the following values:
 357:Drivers/STM32WBxx_HAL_Driver/Inc/stm32wbxx_ll_bus.h ****   *         @arg @ref LL_AHB1_GRP1_PERIPH_DMA1
 358:Drivers/STM32WBxx_HAL_Driver/Inc/stm32wbxx_ll_bus.h ****   *         @arg @ref LL_AHB1_GRP1_PERIPH_DMA2 (*)
 359:Drivers/STM32WBxx_HAL_Driver/Inc/stm32wbxx_ll_bus.h ****   *         @arg @ref LL_AHB1_GRP1_PERIPH_DMAMUX1
 360:Drivers/STM32WBxx_HAL_Driver/Inc/stm32wbxx_ll_bus.h ****   *         @arg @ref LL_AHB1_GRP1_PERIPH_CRC
 361:Drivers/STM32WBxx_HAL_Driver/Inc/stm32wbxx_ll_bus.h ****   *         @arg @ref LL_AHB1_GRP1_PERIPH_TSC
 362:Drivers/STM32WBxx_HAL_Driver/Inc/stm32wbxx_ll_bus.h ****   * @note  (*) Not supported by all the devices
 363:Drivers/STM32WBxx_HAL_Driver/Inc/stm32wbxx_ll_bus.h ****   * @retval None
 364:Drivers/STM32WBxx_HAL_Driver/Inc/stm32wbxx_ll_bus.h ****   */
 365:Drivers/STM32WBxx_HAL_Driver/Inc/stm32wbxx_ll_bus.h **** __STATIC_INLINE void LL_AHB1_GRP1_EnableClock(uint32_t Periphs)
 366:Drivers/STM32WBxx_HAL_Driver/Inc/stm32wbxx_ll_bus.h **** {
 367:Drivers/STM32WBxx_HAL_Driver/Inc/stm32wbxx_ll_bus.h ****   __IO uint32_t tmpreg;
 368:Drivers/STM32WBxx_HAL_Driver/Inc/stm32wbxx_ll_bus.h ****   SET_BIT(RCC->AHB1ENR, Periphs);
 369:Drivers/STM32WBxx_HAL_Driver/Inc/stm32wbxx_ll_bus.h ****   /* Delay after an RCC peripheral clock enabling */
 370:Drivers/STM32WBxx_HAL_Driver/Inc/stm32wbxx_ll_bus.h ****   tmpreg = READ_BIT(RCC->AHB1ENR, Periphs);
 371:Drivers/STM32WBxx_HAL_Driver/Inc/stm32wbxx_ll_bus.h ****   (void)tmpreg;
 372:Drivers/STM32WBxx_HAL_Driver/Inc/stm32wbxx_ll_bus.h **** }
 373:Drivers/STM32WBxx_HAL_Driver/Inc/stm32wbxx_ll_bus.h **** 
 374:Drivers/STM32WBxx_HAL_Driver/Inc/stm32wbxx_ll_bus.h **** /**
 375:Drivers/STM32WBxx_HAL_Driver/Inc/stm32wbxx_ll_bus.h ****   * @brief  Check if AHB1 peripheral clock is enabled or not
 376:Drivers/STM32WBxx_HAL_Driver/Inc/stm32wbxx_ll_bus.h ****   * @rmtoll AHB1ENR      DMA1EN        LL_AHB1_GRP1_IsEnabledClock\n
 377:Drivers/STM32WBxx_HAL_Driver/Inc/stm32wbxx_ll_bus.h ****   *         AHB1ENR      DMA2EN        LL_AHB1_GRP1_IsEnabledClock\n
 378:Drivers/STM32WBxx_HAL_Driver/Inc/stm32wbxx_ll_bus.h ****   *         AHB1ENR      DMAMUX1EN      LL_AHB1_GRP1_IsEnabledClock\n
 379:Drivers/STM32WBxx_HAL_Driver/Inc/stm32wbxx_ll_bus.h ****   *         AHB1ENR      CRCEN         LL_AHB1_GRP1_IsEnabledClock\n
 380:Drivers/STM32WBxx_HAL_Driver/Inc/stm32wbxx_ll_bus.h ****   *         AHB1ENR      TSCEN         LL_AHB1_GRP1_IsEnabledClock
 381:Drivers/STM32WBxx_HAL_Driver/Inc/stm32wbxx_ll_bus.h ****   * @param  Periphs This parameter can be a combination of the following values:
 382:Drivers/STM32WBxx_HAL_Driver/Inc/stm32wbxx_ll_bus.h ****   *         @arg @ref LL_AHB1_GRP1_PERIPH_DMA1
 383:Drivers/STM32WBxx_HAL_Driver/Inc/stm32wbxx_ll_bus.h ****   *         @arg @ref LL_AHB1_GRP1_PERIPH_DMA2 (*)
 384:Drivers/STM32WBxx_HAL_Driver/Inc/stm32wbxx_ll_bus.h ****   *         @arg @ref LL_AHB1_GRP1_PERIPH_DMAMUX1
 385:Drivers/STM32WBxx_HAL_Driver/Inc/stm32wbxx_ll_bus.h ****   *         @arg @ref LL_AHB1_GRP1_PERIPH_CRC
 386:Drivers/STM32WBxx_HAL_Driver/Inc/stm32wbxx_ll_bus.h ****   *         @arg @ref LL_AHB1_GRP1_PERIPH_TSC
 387:Drivers/STM32WBxx_HAL_Driver/Inc/stm32wbxx_ll_bus.h ****   * @note  (*) Not supported by all the devices
 388:Drivers/STM32WBxx_HAL_Driver/Inc/stm32wbxx_ll_bus.h ****   * @retval uint32_t
 389:Drivers/STM32WBxx_HAL_Driver/Inc/stm32wbxx_ll_bus.h ****   */
 390:Drivers/STM32WBxx_HAL_Driver/Inc/stm32wbxx_ll_bus.h **** __STATIC_INLINE uint32_t LL_AHB1_GRP1_IsEnabledClock(uint32_t Periphs)
 391:Drivers/STM32WBxx_HAL_Driver/Inc/stm32wbxx_ll_bus.h **** {
 392:Drivers/STM32WBxx_HAL_Driver/Inc/stm32wbxx_ll_bus.h ****   return ((READ_BIT(RCC->AHB1ENR, Periphs) == (Periphs)) ? 1UL : 0UL);
 393:Drivers/STM32WBxx_HAL_Driver/Inc/stm32wbxx_ll_bus.h **** }
 394:Drivers/STM32WBxx_HAL_Driver/Inc/stm32wbxx_ll_bus.h **** 
 395:Drivers/STM32WBxx_HAL_Driver/Inc/stm32wbxx_ll_bus.h **** /**
 396:Drivers/STM32WBxx_HAL_Driver/Inc/stm32wbxx_ll_bus.h ****   * @brief  Disable AHB1 peripherals clock.
 397:Drivers/STM32WBxx_HAL_Driver/Inc/stm32wbxx_ll_bus.h ****   * @rmtoll AHB1ENR      DMA1EN        LL_AHB1_GRP1_DisableClock\n
 398:Drivers/STM32WBxx_HAL_Driver/Inc/stm32wbxx_ll_bus.h ****   *         AHB1ENR      DMA2EN        LL_AHB1_GRP1_DisableClock\n
 399:Drivers/STM32WBxx_HAL_Driver/Inc/stm32wbxx_ll_bus.h ****   *         AHB1ENR      DMAMUX1EN      LL_AHB1_GRP1_DisableClock\n
 400:Drivers/STM32WBxx_HAL_Driver/Inc/stm32wbxx_ll_bus.h ****   *         AHB1ENR      CRCEN         LL_AHB1_GRP1_DisableClock\n
 401:Drivers/STM32WBxx_HAL_Driver/Inc/stm32wbxx_ll_bus.h ****   *         AHB1ENR      TSCEN         LL_AHB1_GRP1_DisableClock
 402:Drivers/STM32WBxx_HAL_Driver/Inc/stm32wbxx_ll_bus.h ****   * @param  Periphs This parameter can be a combination of the following values:
 403:Drivers/STM32WBxx_HAL_Driver/Inc/stm32wbxx_ll_bus.h ****   *         @arg @ref LL_AHB1_GRP1_PERIPH_DMA1
 404:Drivers/STM32WBxx_HAL_Driver/Inc/stm32wbxx_ll_bus.h ****   *         @arg @ref LL_AHB1_GRP1_PERIPH_DMA2 (*)
 405:Drivers/STM32WBxx_HAL_Driver/Inc/stm32wbxx_ll_bus.h ****   *         @arg @ref LL_AHB1_GRP1_PERIPH_DMAMUX1
 406:Drivers/STM32WBxx_HAL_Driver/Inc/stm32wbxx_ll_bus.h ****   *         @arg @ref LL_AHB1_GRP1_PERIPH_CRC
 407:Drivers/STM32WBxx_HAL_Driver/Inc/stm32wbxx_ll_bus.h ****   *         @arg @ref LL_AHB1_GRP1_PERIPH_TSC
 408:Drivers/STM32WBxx_HAL_Driver/Inc/stm32wbxx_ll_bus.h ****   * @note  (*) Not supported by all the devices
 409:Drivers/STM32WBxx_HAL_Driver/Inc/stm32wbxx_ll_bus.h ****   * @retval None
 410:Drivers/STM32WBxx_HAL_Driver/Inc/stm32wbxx_ll_bus.h ****   */
 411:Drivers/STM32WBxx_HAL_Driver/Inc/stm32wbxx_ll_bus.h **** __STATIC_INLINE void LL_AHB1_GRP1_DisableClock(uint32_t Periphs)
ARM GAS  /tmp/ccsJv4yF.s 			page 14


 412:Drivers/STM32WBxx_HAL_Driver/Inc/stm32wbxx_ll_bus.h **** {
 413:Drivers/STM32WBxx_HAL_Driver/Inc/stm32wbxx_ll_bus.h ****   CLEAR_BIT(RCC->AHB1ENR, Periphs);
 414:Drivers/STM32WBxx_HAL_Driver/Inc/stm32wbxx_ll_bus.h **** }
 415:Drivers/STM32WBxx_HAL_Driver/Inc/stm32wbxx_ll_bus.h **** 
 416:Drivers/STM32WBxx_HAL_Driver/Inc/stm32wbxx_ll_bus.h **** /**
 417:Drivers/STM32WBxx_HAL_Driver/Inc/stm32wbxx_ll_bus.h ****   * @brief  Force AHB1 peripherals reset.
 418:Drivers/STM32WBxx_HAL_Driver/Inc/stm32wbxx_ll_bus.h ****   * @rmtoll AHB1RSTR     DMA1RST       LL_AHB1_GRP1_ForceReset\n
 419:Drivers/STM32WBxx_HAL_Driver/Inc/stm32wbxx_ll_bus.h ****   *         AHB1RSTR     DMA2RST       LL_AHB1_GRP1_ForceReset\n
 420:Drivers/STM32WBxx_HAL_Driver/Inc/stm32wbxx_ll_bus.h ****   *         AHB1RSTR     DMAMUX1RST     LL_AHB1_GRP1_ForceReset\n
 421:Drivers/STM32WBxx_HAL_Driver/Inc/stm32wbxx_ll_bus.h ****   *         AHB1RSTR     CRCRST        LL_AHB1_GRP1_ForceReset\n
 422:Drivers/STM32WBxx_HAL_Driver/Inc/stm32wbxx_ll_bus.h ****   *         AHB1RSTR     TSCRST        LL_AHB1_GRP1_ForceReset
 423:Drivers/STM32WBxx_HAL_Driver/Inc/stm32wbxx_ll_bus.h ****   * @param  Periphs This parameter can be a combination of the following values:
 424:Drivers/STM32WBxx_HAL_Driver/Inc/stm32wbxx_ll_bus.h ****   *         @arg @ref LL_AHB1_GRP1_PERIPH_ALL
 425:Drivers/STM32WBxx_HAL_Driver/Inc/stm32wbxx_ll_bus.h ****   *         @arg @ref LL_AHB1_GRP1_PERIPH_DMA1
 426:Drivers/STM32WBxx_HAL_Driver/Inc/stm32wbxx_ll_bus.h ****   *         @arg @ref LL_AHB1_GRP1_PERIPH_DMA2 (*)
 427:Drivers/STM32WBxx_HAL_Driver/Inc/stm32wbxx_ll_bus.h ****   *         @arg @ref LL_AHB1_GRP1_PERIPH_DMAMUX1
 428:Drivers/STM32WBxx_HAL_Driver/Inc/stm32wbxx_ll_bus.h ****   *         @arg @ref LL_AHB1_GRP1_PERIPH_CRC
 429:Drivers/STM32WBxx_HAL_Driver/Inc/stm32wbxx_ll_bus.h ****   *         @arg @ref LL_AHB1_GRP1_PERIPH_TSC
 430:Drivers/STM32WBxx_HAL_Driver/Inc/stm32wbxx_ll_bus.h ****   * @note  (*) Not supported by all the devices
 431:Drivers/STM32WBxx_HAL_Driver/Inc/stm32wbxx_ll_bus.h ****   * @retval None
 432:Drivers/STM32WBxx_HAL_Driver/Inc/stm32wbxx_ll_bus.h ****   */
 433:Drivers/STM32WBxx_HAL_Driver/Inc/stm32wbxx_ll_bus.h **** __STATIC_INLINE void LL_AHB1_GRP1_ForceReset(uint32_t Periphs)
 434:Drivers/STM32WBxx_HAL_Driver/Inc/stm32wbxx_ll_bus.h **** {
 435:Drivers/STM32WBxx_HAL_Driver/Inc/stm32wbxx_ll_bus.h ****   SET_BIT(RCC->AHB1RSTR, Periphs);
 436:Drivers/STM32WBxx_HAL_Driver/Inc/stm32wbxx_ll_bus.h **** }
 437:Drivers/STM32WBxx_HAL_Driver/Inc/stm32wbxx_ll_bus.h **** 
 438:Drivers/STM32WBxx_HAL_Driver/Inc/stm32wbxx_ll_bus.h **** /**
 439:Drivers/STM32WBxx_HAL_Driver/Inc/stm32wbxx_ll_bus.h ****   * @brief  Release AHB1 peripherals reset.
 440:Drivers/STM32WBxx_HAL_Driver/Inc/stm32wbxx_ll_bus.h ****   * @rmtoll AHB1RSTR     DMA1RST       LL_AHB1_GRP1_ReleaseReset\n
 441:Drivers/STM32WBxx_HAL_Driver/Inc/stm32wbxx_ll_bus.h ****   *         AHB1RSTR     DMA2RST       LL_AHB1_GRP1_ReleaseReset\n
 442:Drivers/STM32WBxx_HAL_Driver/Inc/stm32wbxx_ll_bus.h ****   *         AHB1RSTR     DMAMUX1RST     LL_AHB1_GRP1_ReleaseReset\n
 443:Drivers/STM32WBxx_HAL_Driver/Inc/stm32wbxx_ll_bus.h ****   *         AHB1RSTR     CRCRST        LL_AHB1_GRP1_ReleaseReset\n
 444:Drivers/STM32WBxx_HAL_Driver/Inc/stm32wbxx_ll_bus.h ****   *         AHB1RSTR     TSCRST        LL_AHB1_GRP1_ReleaseReset
 445:Drivers/STM32WBxx_HAL_Driver/Inc/stm32wbxx_ll_bus.h ****   * @param  Periphs This parameter can be a combination of the following values:
 446:Drivers/STM32WBxx_HAL_Driver/Inc/stm32wbxx_ll_bus.h ****   *         @arg @ref LL_AHB1_GRP1_PERIPH_ALL
 447:Drivers/STM32WBxx_HAL_Driver/Inc/stm32wbxx_ll_bus.h ****   *         @arg @ref LL_AHB1_GRP1_PERIPH_DMA1
 448:Drivers/STM32WBxx_HAL_Driver/Inc/stm32wbxx_ll_bus.h ****   *         @arg @ref LL_AHB1_GRP1_PERIPH_DMA2 (*)
 449:Drivers/STM32WBxx_HAL_Driver/Inc/stm32wbxx_ll_bus.h ****   *         @arg @ref LL_AHB1_GRP1_PERIPH_DMAMUX1
 450:Drivers/STM32WBxx_HAL_Driver/Inc/stm32wbxx_ll_bus.h ****   *         @arg @ref LL_AHB1_GRP1_PERIPH_CRC
 451:Drivers/STM32WBxx_HAL_Driver/Inc/stm32wbxx_ll_bus.h ****   *         @arg @ref LL_AHB1_GRP1_PERIPH_TSC
 452:Drivers/STM32WBxx_HAL_Driver/Inc/stm32wbxx_ll_bus.h ****   * @note  (*) Not supported by all the devices
 453:Drivers/STM32WBxx_HAL_Driver/Inc/stm32wbxx_ll_bus.h ****   * @retval None
 454:Drivers/STM32WBxx_HAL_Driver/Inc/stm32wbxx_ll_bus.h ****   */
 455:Drivers/STM32WBxx_HAL_Driver/Inc/stm32wbxx_ll_bus.h **** __STATIC_INLINE void LL_AHB1_GRP1_ReleaseReset(uint32_t Periphs)
 456:Drivers/STM32WBxx_HAL_Driver/Inc/stm32wbxx_ll_bus.h **** {
 457:Drivers/STM32WBxx_HAL_Driver/Inc/stm32wbxx_ll_bus.h ****   CLEAR_BIT(RCC->AHB1RSTR, Periphs);
 458:Drivers/STM32WBxx_HAL_Driver/Inc/stm32wbxx_ll_bus.h **** }
 459:Drivers/STM32WBxx_HAL_Driver/Inc/stm32wbxx_ll_bus.h **** 
 460:Drivers/STM32WBxx_HAL_Driver/Inc/stm32wbxx_ll_bus.h **** /**
 461:Drivers/STM32WBxx_HAL_Driver/Inc/stm32wbxx_ll_bus.h ****   * @brief  Enable AHB1 peripherals clock during Low Power (Sleep) mode.
 462:Drivers/STM32WBxx_HAL_Driver/Inc/stm32wbxx_ll_bus.h ****   * @rmtoll AHB1SMENR    DMA1SMEN      LL_AHB1_GRP1_EnableClockSleep\n
 463:Drivers/STM32WBxx_HAL_Driver/Inc/stm32wbxx_ll_bus.h ****   *         AHB1SMENR    DMA2SMEN      LL_AHB1_GRP1_EnableClockSleep\n
 464:Drivers/STM32WBxx_HAL_Driver/Inc/stm32wbxx_ll_bus.h ****   *         AHB1SMENR    DMAMUX1SMEN    LL_AHB1_GRP1_EnableClockSleep\n
 465:Drivers/STM32WBxx_HAL_Driver/Inc/stm32wbxx_ll_bus.h ****   *         AHB1SMENR    SRAM1SMEN     LL_AHB1_GRP1_EnableClockSleep\n
 466:Drivers/STM32WBxx_HAL_Driver/Inc/stm32wbxx_ll_bus.h ****   *         AHB1SMENR    CRCSMEN       LL_AHB1_GRP1_EnableClockSleep\n
 467:Drivers/STM32WBxx_HAL_Driver/Inc/stm32wbxx_ll_bus.h ****   *         AHB1SMENR    TSCSMEN       LL_AHB1_GRP1_EnableClockSleep
 468:Drivers/STM32WBxx_HAL_Driver/Inc/stm32wbxx_ll_bus.h ****   * @param  Periphs This parameter can be a combination of the following values:
ARM GAS  /tmp/ccsJv4yF.s 			page 15


 469:Drivers/STM32WBxx_HAL_Driver/Inc/stm32wbxx_ll_bus.h ****   *         @arg @ref LL_AHB1_GRP1_PERIPH_DMA1
 470:Drivers/STM32WBxx_HAL_Driver/Inc/stm32wbxx_ll_bus.h ****   *         @arg @ref LL_AHB1_GRP1_PERIPH_DMA2 (*)
 471:Drivers/STM32WBxx_HAL_Driver/Inc/stm32wbxx_ll_bus.h ****   *         @arg @ref LL_AHB1_GRP1_PERIPH_DMAMUX1
 472:Drivers/STM32WBxx_HAL_Driver/Inc/stm32wbxx_ll_bus.h ****   *         @arg @ref LL_AHB1_GRP1_PERIPH_SRAM1
 473:Drivers/STM32WBxx_HAL_Driver/Inc/stm32wbxx_ll_bus.h ****   *         @arg @ref LL_AHB1_GRP1_PERIPH_CRC
 474:Drivers/STM32WBxx_HAL_Driver/Inc/stm32wbxx_ll_bus.h ****   *         @arg @ref LL_AHB1_GRP1_PERIPH_TSC
 475:Drivers/STM32WBxx_HAL_Driver/Inc/stm32wbxx_ll_bus.h ****   * @note  (*) Not supported by all the devices
 476:Drivers/STM32WBxx_HAL_Driver/Inc/stm32wbxx_ll_bus.h ****   * @retval None
 477:Drivers/STM32WBxx_HAL_Driver/Inc/stm32wbxx_ll_bus.h ****   */
 478:Drivers/STM32WBxx_HAL_Driver/Inc/stm32wbxx_ll_bus.h **** __STATIC_INLINE void LL_AHB1_GRP1_EnableClockSleep(uint32_t Periphs)
 479:Drivers/STM32WBxx_HAL_Driver/Inc/stm32wbxx_ll_bus.h **** {
 480:Drivers/STM32WBxx_HAL_Driver/Inc/stm32wbxx_ll_bus.h ****   __IO uint32_t tmpreg;
 481:Drivers/STM32WBxx_HAL_Driver/Inc/stm32wbxx_ll_bus.h ****   SET_BIT(RCC->AHB1SMENR, Periphs);
 482:Drivers/STM32WBxx_HAL_Driver/Inc/stm32wbxx_ll_bus.h ****   /* Delay after an RCC peripheral clock enabling */
 483:Drivers/STM32WBxx_HAL_Driver/Inc/stm32wbxx_ll_bus.h ****   tmpreg = READ_BIT(RCC->AHB1SMENR, Periphs);
 484:Drivers/STM32WBxx_HAL_Driver/Inc/stm32wbxx_ll_bus.h ****   (void)tmpreg;
 485:Drivers/STM32WBxx_HAL_Driver/Inc/stm32wbxx_ll_bus.h **** }
 486:Drivers/STM32WBxx_HAL_Driver/Inc/stm32wbxx_ll_bus.h **** 
 487:Drivers/STM32WBxx_HAL_Driver/Inc/stm32wbxx_ll_bus.h **** /**
 488:Drivers/STM32WBxx_HAL_Driver/Inc/stm32wbxx_ll_bus.h ****   * @brief  Disable AHB1 peripherals clock during Low Power (Sleep) mode.
 489:Drivers/STM32WBxx_HAL_Driver/Inc/stm32wbxx_ll_bus.h ****   * @rmtoll AHB1SMENR    DMA1SMEN      LL_AHB1_GRP1_DisableClockSleep\n
 490:Drivers/STM32WBxx_HAL_Driver/Inc/stm32wbxx_ll_bus.h ****   *         AHB1SMENR    DMA2SMEN      LL_AHB1_GRP1_DisableClockSleep\n
 491:Drivers/STM32WBxx_HAL_Driver/Inc/stm32wbxx_ll_bus.h ****   *         AHB1SMENR    DMAMUX1SMEN    LL_AHB1_GRP1_DisableClockSleep\n
 492:Drivers/STM32WBxx_HAL_Driver/Inc/stm32wbxx_ll_bus.h ****   *         AHB1SMENR    SRAM1SMEN     LL_AHB1_GRP1_DisableClockSleep\n
 493:Drivers/STM32WBxx_HAL_Driver/Inc/stm32wbxx_ll_bus.h ****   *         AHB1SMENR    CRCSMEN       LL_AHB1_GRP1_DisableClockSleep\n
 494:Drivers/STM32WBxx_HAL_Driver/Inc/stm32wbxx_ll_bus.h ****   *         AHB1SMENR    TSCSMEN       LL_AHB1_GRP1_DisableClockSleep
 495:Drivers/STM32WBxx_HAL_Driver/Inc/stm32wbxx_ll_bus.h ****   * @param  Periphs This parameter can be a combination of the following values:
 496:Drivers/STM32WBxx_HAL_Driver/Inc/stm32wbxx_ll_bus.h ****   *         @arg @ref LL_AHB1_GRP1_PERIPH_DMA1
 497:Drivers/STM32WBxx_HAL_Driver/Inc/stm32wbxx_ll_bus.h ****   *         @arg @ref LL_AHB1_GRP1_PERIPH_DMA2 (*)
 498:Drivers/STM32WBxx_HAL_Driver/Inc/stm32wbxx_ll_bus.h ****   *         @arg @ref LL_AHB1_GRP1_PERIPH_DMAMUX1
 499:Drivers/STM32WBxx_HAL_Driver/Inc/stm32wbxx_ll_bus.h ****   *         @arg @ref LL_AHB1_GRP1_PERIPH_SRAM1
 500:Drivers/STM32WBxx_HAL_Driver/Inc/stm32wbxx_ll_bus.h ****   *         @arg @ref LL_AHB1_GRP1_PERIPH_CRC
 501:Drivers/STM32WBxx_HAL_Driver/Inc/stm32wbxx_ll_bus.h ****   *         @arg @ref LL_AHB1_GRP1_PERIPH_TSC
 502:Drivers/STM32WBxx_HAL_Driver/Inc/stm32wbxx_ll_bus.h ****   * @note  (*) Not supported by all the devices
 503:Drivers/STM32WBxx_HAL_Driver/Inc/stm32wbxx_ll_bus.h ****   * @retval None
 504:Drivers/STM32WBxx_HAL_Driver/Inc/stm32wbxx_ll_bus.h ****   */
 505:Drivers/STM32WBxx_HAL_Driver/Inc/stm32wbxx_ll_bus.h **** __STATIC_INLINE void LL_AHB1_GRP1_DisableClockSleep(uint32_t Periphs)
 506:Drivers/STM32WBxx_HAL_Driver/Inc/stm32wbxx_ll_bus.h **** {
 507:Drivers/STM32WBxx_HAL_Driver/Inc/stm32wbxx_ll_bus.h ****   CLEAR_BIT(RCC->AHB1SMENR, Periphs);
 508:Drivers/STM32WBxx_HAL_Driver/Inc/stm32wbxx_ll_bus.h **** }
 509:Drivers/STM32WBxx_HAL_Driver/Inc/stm32wbxx_ll_bus.h **** 
 510:Drivers/STM32WBxx_HAL_Driver/Inc/stm32wbxx_ll_bus.h **** /**
 511:Drivers/STM32WBxx_HAL_Driver/Inc/stm32wbxx_ll_bus.h ****   * @}
 512:Drivers/STM32WBxx_HAL_Driver/Inc/stm32wbxx_ll_bus.h ****   */
 513:Drivers/STM32WBxx_HAL_Driver/Inc/stm32wbxx_ll_bus.h **** 
 514:Drivers/STM32WBxx_HAL_Driver/Inc/stm32wbxx_ll_bus.h **** /** @defgroup BUS_LL_EF_AHB2 AHB2
 515:Drivers/STM32WBxx_HAL_Driver/Inc/stm32wbxx_ll_bus.h ****   * @{
 516:Drivers/STM32WBxx_HAL_Driver/Inc/stm32wbxx_ll_bus.h ****   */
 517:Drivers/STM32WBxx_HAL_Driver/Inc/stm32wbxx_ll_bus.h **** 
 518:Drivers/STM32WBxx_HAL_Driver/Inc/stm32wbxx_ll_bus.h **** /**
 519:Drivers/STM32WBxx_HAL_Driver/Inc/stm32wbxx_ll_bus.h ****   * @brief  Enable AHB2 peripherals clock.
 520:Drivers/STM32WBxx_HAL_Driver/Inc/stm32wbxx_ll_bus.h ****   * @rmtoll AHB2ENR      GPIOAEN       LL_AHB2_GRP1_EnableClock\n
 521:Drivers/STM32WBxx_HAL_Driver/Inc/stm32wbxx_ll_bus.h ****   *         AHB2ENR      GPIOBEN       LL_AHB2_GRP1_EnableClock\n
 522:Drivers/STM32WBxx_HAL_Driver/Inc/stm32wbxx_ll_bus.h ****   *         AHB2ENR      GPIOCEN       LL_AHB2_GRP1_EnableClock\n
 523:Drivers/STM32WBxx_HAL_Driver/Inc/stm32wbxx_ll_bus.h ****   *         AHB2ENR      GPIODEN       LL_AHB2_GRP1_EnableClock\n
 524:Drivers/STM32WBxx_HAL_Driver/Inc/stm32wbxx_ll_bus.h ****   *         AHB2ENR      GPIOEEN       LL_AHB2_GRP1_EnableClock\n
 525:Drivers/STM32WBxx_HAL_Driver/Inc/stm32wbxx_ll_bus.h ****   *         AHB2ENR      GPIOHEN       LL_AHB2_GRP1_EnableClock\n
ARM GAS  /tmp/ccsJv4yF.s 			page 16


 526:Drivers/STM32WBxx_HAL_Driver/Inc/stm32wbxx_ll_bus.h ****   *         AHB2ENR      ADCEN         LL_AHB2_GRP1_EnableClock\n
 527:Drivers/STM32WBxx_HAL_Driver/Inc/stm32wbxx_ll_bus.h ****   *         AHB2ENR      AES1EN        LL_AHB2_GRP1_EnableClock
 528:Drivers/STM32WBxx_HAL_Driver/Inc/stm32wbxx_ll_bus.h ****   * @param  Periphs This parameter can be a combination of the following values:
 529:Drivers/STM32WBxx_HAL_Driver/Inc/stm32wbxx_ll_bus.h ****   *         @arg @ref LL_AHB2_GRP1_PERIPH_GPIOA
 530:Drivers/STM32WBxx_HAL_Driver/Inc/stm32wbxx_ll_bus.h ****   *         @arg @ref LL_AHB2_GRP1_PERIPH_GPIOB
 531:Drivers/STM32WBxx_HAL_Driver/Inc/stm32wbxx_ll_bus.h ****   *         @arg @ref LL_AHB2_GRP1_PERIPH_GPIOC
 532:Drivers/STM32WBxx_HAL_Driver/Inc/stm32wbxx_ll_bus.h ****   *         @arg @ref LL_AHB2_GRP1_PERIPH_GPIOD (*)
 533:Drivers/STM32WBxx_HAL_Driver/Inc/stm32wbxx_ll_bus.h ****   *         @arg @ref LL_AHB2_GRP1_PERIPH_GPIOE
 534:Drivers/STM32WBxx_HAL_Driver/Inc/stm32wbxx_ll_bus.h ****   *         @arg @ref LL_AHB2_GRP1_PERIPH_GPIOH
 535:Drivers/STM32WBxx_HAL_Driver/Inc/stm32wbxx_ll_bus.h ****   *         @arg @ref LL_AHB2_GRP1_PERIPH_ADC (*)
 536:Drivers/STM32WBxx_HAL_Driver/Inc/stm32wbxx_ll_bus.h ****   *         @arg @ref LL_AHB2_GRP1_PERIPH_AES1 (*)
 537:Drivers/STM32WBxx_HAL_Driver/Inc/stm32wbxx_ll_bus.h ****   * @note  (*) Not supported by all the devices
 538:Drivers/STM32WBxx_HAL_Driver/Inc/stm32wbxx_ll_bus.h ****   * @retval None
 539:Drivers/STM32WBxx_HAL_Driver/Inc/stm32wbxx_ll_bus.h ****   */
 540:Drivers/STM32WBxx_HAL_Driver/Inc/stm32wbxx_ll_bus.h **** __STATIC_INLINE void LL_AHB2_GRP1_EnableClock(uint32_t Periphs)
  55              		.loc 2 540 22 view .LVU4
  56              	.LBB13:
 541:Drivers/STM32WBxx_HAL_Driver/Inc/stm32wbxx_ll_bus.h **** {
 542:Drivers/STM32WBxx_HAL_Driver/Inc/stm32wbxx_ll_bus.h ****   __IO uint32_t tmpreg;
  57              		.loc 2 542 3 view .LVU5
 543:Drivers/STM32WBxx_HAL_Driver/Inc/stm32wbxx_ll_bus.h ****   SET_BIT(RCC->AHB2ENR, Periphs);
  58              		.loc 2 543 3 view .LVU6
  59 0010 4FF0B043 		mov	r3, #1476395008
  60 0014 DA6C     		ldr	r2, [r3, #76]
  61 0016 42F00402 		orr	r2, r2, #4
  62 001a DA64     		str	r2, [r3, #76]
 544:Drivers/STM32WBxx_HAL_Driver/Inc/stm32wbxx_ll_bus.h ****   /* Delay after an RCC peripheral clock enabling */
 545:Drivers/STM32WBxx_HAL_Driver/Inc/stm32wbxx_ll_bus.h ****   tmpreg = READ_BIT(RCC->AHB2ENR, Periphs);
  63              		.loc 2 545 3 view .LVU7
  64              		.loc 2 545 12 is_stmt 0 view .LVU8
  65 001c DA6C     		ldr	r2, [r3, #76]
  66 001e 02F00402 		and	r2, r2, #4
  67              		.loc 2 545 10 view .LVU9
  68 0022 0492     		str	r2, [sp, #16]
 546:Drivers/STM32WBxx_HAL_Driver/Inc/stm32wbxx_ll_bus.h ****   (void)tmpreg;
  69              		.loc 2 546 3 is_stmt 1 view .LVU10
  70 0024 049A     		ldr	r2, [sp, #16]
  71              	.LVL1:
  72              		.loc 2 546 3 is_stmt 0 view .LVU11
  73              	.LBE13:
  74              	.LBE12:
 278:Core/Src/main.c ****   __HAL_RCC_GPIOA_CLK_ENABLE();
  75              		.loc 1 278 3 is_stmt 1 view .LVU12
  76              	.LBB14:
  77              	.LBI14:
 540:Drivers/STM32WBxx_HAL_Driver/Inc/stm32wbxx_ll_bus.h **** {
  78              		.loc 2 540 22 view .LVU13
  79              	.LBB15:
 542:Drivers/STM32WBxx_HAL_Driver/Inc/stm32wbxx_ll_bus.h ****   SET_BIT(RCC->AHB2ENR, Periphs);
  80              		.loc 2 542 3 view .LVU14
 543:Drivers/STM32WBxx_HAL_Driver/Inc/stm32wbxx_ll_bus.h ****   /* Delay after an RCC peripheral clock enabling */
  81              		.loc 2 543 3 view .LVU15
  82 0026 DA6C     		ldr	r2, [r3, #76]
  83 0028 42F00102 		orr	r2, r2, #1
  84 002c DA64     		str	r2, [r3, #76]
 545:Drivers/STM32WBxx_HAL_Driver/Inc/stm32wbxx_ll_bus.h ****   (void)tmpreg;
  85              		.loc 2 545 3 view .LVU16
ARM GAS  /tmp/ccsJv4yF.s 			page 17


 545:Drivers/STM32WBxx_HAL_Driver/Inc/stm32wbxx_ll_bus.h ****   (void)tmpreg;
  86              		.loc 2 545 12 is_stmt 0 view .LVU17
  87 002e DA6C     		ldr	r2, [r3, #76]
  88 0030 02F00102 		and	r2, r2, #1
 545:Drivers/STM32WBxx_HAL_Driver/Inc/stm32wbxx_ll_bus.h ****   (void)tmpreg;
  89              		.loc 2 545 10 view .LVU18
  90 0034 0392     		str	r2, [sp, #12]
  91              		.loc 2 546 3 is_stmt 1 view .LVU19
  92 0036 039A     		ldr	r2, [sp, #12]
  93              	.LVL2:
  94              		.loc 2 546 3 is_stmt 0 view .LVU20
  95              	.LBE15:
  96              	.LBE14:
 279:Core/Src/main.c ****   __HAL_RCC_GPIOB_CLK_ENABLE();
  97              		.loc 1 279 3 is_stmt 1 view .LVU21
  98              	.LBB16:
  99              	.LBI16:
 540:Drivers/STM32WBxx_HAL_Driver/Inc/stm32wbxx_ll_bus.h **** {
 100              		.loc 2 540 22 view .LVU22
 101              	.LBB17:
 542:Drivers/STM32WBxx_HAL_Driver/Inc/stm32wbxx_ll_bus.h ****   SET_BIT(RCC->AHB2ENR, Periphs);
 102              		.loc 2 542 3 view .LVU23
 543:Drivers/STM32WBxx_HAL_Driver/Inc/stm32wbxx_ll_bus.h ****   /* Delay after an RCC peripheral clock enabling */
 103              		.loc 2 543 3 view .LVU24
 104 0038 DA6C     		ldr	r2, [r3, #76]
 105 003a 42F00202 		orr	r2, r2, #2
 106 003e DA64     		str	r2, [r3, #76]
 545:Drivers/STM32WBxx_HAL_Driver/Inc/stm32wbxx_ll_bus.h ****   (void)tmpreg;
 107              		.loc 2 545 3 view .LVU25
 545:Drivers/STM32WBxx_HAL_Driver/Inc/stm32wbxx_ll_bus.h ****   (void)tmpreg;
 108              		.loc 2 545 12 is_stmt 0 view .LVU26
 109 0040 DA6C     		ldr	r2, [r3, #76]
 110 0042 02F00202 		and	r2, r2, #2
 545:Drivers/STM32WBxx_HAL_Driver/Inc/stm32wbxx_ll_bus.h ****   (void)tmpreg;
 111              		.loc 2 545 10 view .LVU27
 112 0046 0292     		str	r2, [sp, #8]
 113              		.loc 2 546 3 is_stmt 1 view .LVU28
 114 0048 029A     		ldr	r2, [sp, #8]
 115              	.LVL3:
 116              		.loc 2 546 3 is_stmt 0 view .LVU29
 117              	.LBE17:
 118              	.LBE16:
 280:Core/Src/main.c ****   __HAL_RCC_GPIOD_CLK_ENABLE();
 119              		.loc 1 280 3 is_stmt 1 view .LVU30
 120              	.LBB18:
 121              	.LBI18:
 540:Drivers/STM32WBxx_HAL_Driver/Inc/stm32wbxx_ll_bus.h **** {
 122              		.loc 2 540 22 view .LVU31
 123              	.LBB19:
 542:Drivers/STM32WBxx_HAL_Driver/Inc/stm32wbxx_ll_bus.h ****   SET_BIT(RCC->AHB2ENR, Periphs);
 124              		.loc 2 542 3 view .LVU32
 543:Drivers/STM32WBxx_HAL_Driver/Inc/stm32wbxx_ll_bus.h ****   /* Delay after an RCC peripheral clock enabling */
 125              		.loc 2 543 3 view .LVU33
 126 004a DA6C     		ldr	r2, [r3, #76]
 127 004c 42F00802 		orr	r2, r2, #8
 128 0050 DA64     		str	r2, [r3, #76]
 545:Drivers/STM32WBxx_HAL_Driver/Inc/stm32wbxx_ll_bus.h ****   (void)tmpreg;
ARM GAS  /tmp/ccsJv4yF.s 			page 18


 129              		.loc 2 545 3 view .LVU34
 545:Drivers/STM32WBxx_HAL_Driver/Inc/stm32wbxx_ll_bus.h ****   (void)tmpreg;
 130              		.loc 2 545 12 is_stmt 0 view .LVU35
 131 0052 DB6C     		ldr	r3, [r3, #76]
 132 0054 03F00803 		and	r3, r3, #8
 545:Drivers/STM32WBxx_HAL_Driver/Inc/stm32wbxx_ll_bus.h ****   (void)tmpreg;
 133              		.loc 2 545 10 view .LVU36
 134 0058 0193     		str	r3, [sp, #4]
 135              		.loc 2 546 3 is_stmt 1 view .LVU37
 136 005a 019B     		ldr	r3, [sp, #4]
 137              	.LVL4:
 138              		.loc 2 546 3 is_stmt 0 view .LVU38
 139              	.LBE19:
 140              	.LBE18:
 281:Core/Src/main.c **** 
 282:Core/Src/main.c ****   /*Configure GPIO pin Output Level */
 283:Core/Src/main.c ****   HAL_GPIO_WritePin(GPIOB, LD2_Pin|LD3_Pin|LD1_Pin, GPIO_PIN_RESET);
 141              		.loc 1 283 3 is_stmt 1 view .LVU39
 142 005c 1D4E     		ldr	r6, .L3
 143 005e 2246     		mov	r2, r4
 144 0060 2321     		movs	r1, #35
 145 0062 3046     		mov	r0, r6
 146 0064 FFF7FEFF 		bl	HAL_GPIO_WritePin
 147              	.LVL5:
 284:Core/Src/main.c **** 
 285:Core/Src/main.c ****   /*Configure GPIO pins : PA2 PA3 */
 286:Core/Src/main.c ****   GPIO_InitStruct.Pin = GPIO_PIN_2|GPIO_PIN_3;
 148              		.loc 1 286 3 view .LVU40
 149              		.loc 1 286 23 is_stmt 0 view .LVU41
 150 0068 0C23     		movs	r3, #12
 151 006a 0593     		str	r3, [sp, #20]
 287:Core/Src/main.c ****   GPIO_InitStruct.Mode = GPIO_MODE_AF_PP;
 152              		.loc 1 287 3 is_stmt 1 view .LVU42
 153              		.loc 1 287 24 is_stmt 0 view .LVU43
 154 006c 0225     		movs	r5, #2
 155 006e 0695     		str	r5, [sp, #24]
 288:Core/Src/main.c ****   GPIO_InitStruct.Pull = GPIO_NOPULL;
 156              		.loc 1 288 3 is_stmt 1 view .LVU44
 157              		.loc 1 288 24 is_stmt 0 view .LVU45
 158 0070 0794     		str	r4, [sp, #28]
 289:Core/Src/main.c ****   GPIO_InitStruct.Speed = GPIO_SPEED_FREQ_LOW;
 159              		.loc 1 289 3 is_stmt 1 view .LVU46
 160              		.loc 1 289 25 is_stmt 0 view .LVU47
 161 0072 0894     		str	r4, [sp, #32]
 290:Core/Src/main.c ****   GPIO_InitStruct.Alternate = GPIO_AF8_LPUART1;
 162              		.loc 1 290 3 is_stmt 1 view .LVU48
 163              		.loc 1 290 29 is_stmt 0 view .LVU49
 164 0074 0823     		movs	r3, #8
 165 0076 0993     		str	r3, [sp, #36]
 291:Core/Src/main.c ****   HAL_GPIO_Init(GPIOA, &GPIO_InitStruct);
 166              		.loc 1 291 3 is_stmt 1 view .LVU50
 167 0078 05A9     		add	r1, sp, #20
 168 007a 4FF09040 		mov	r0, #1207959552
 169 007e FFF7FEFF 		bl	HAL_GPIO_Init
 170              	.LVL6:
 292:Core/Src/main.c **** 
 293:Core/Src/main.c ****   /*Configure GPIO pin : B1_Pin */
ARM GAS  /tmp/ccsJv4yF.s 			page 19


 294:Core/Src/main.c ****   GPIO_InitStruct.Pin = B1_Pin;
 171              		.loc 1 294 3 view .LVU51
 172              		.loc 1 294 23 is_stmt 0 view .LVU52
 173 0082 1023     		movs	r3, #16
 174 0084 0593     		str	r3, [sp, #20]
 295:Core/Src/main.c ****   GPIO_InitStruct.Mode = GPIO_MODE_INPUT;
 175              		.loc 1 295 3 is_stmt 1 view .LVU53
 176              		.loc 1 295 24 is_stmt 0 view .LVU54
 177 0086 0694     		str	r4, [sp, #24]
 296:Core/Src/main.c ****   GPIO_InitStruct.Pull = GPIO_NOPULL;
 178              		.loc 1 296 3 is_stmt 1 view .LVU55
 179              		.loc 1 296 24 is_stmt 0 view .LVU56
 180 0088 0794     		str	r4, [sp, #28]
 297:Core/Src/main.c ****   HAL_GPIO_Init(B1_GPIO_Port, &GPIO_InitStruct);
 181              		.loc 1 297 3 is_stmt 1 view .LVU57
 182 008a 05A9     		add	r1, sp, #20
 183 008c 1248     		ldr	r0, .L3+4
 184 008e FFF7FEFF 		bl	HAL_GPIO_Init
 185              	.LVL7:
 298:Core/Src/main.c **** 
 299:Core/Src/main.c ****   /*Configure GPIO pins : LD2_Pin LD3_Pin LD1_Pin */
 300:Core/Src/main.c ****   GPIO_InitStruct.Pin = LD2_Pin|LD3_Pin|LD1_Pin;
 186              		.loc 1 300 3 view .LVU58
 187              		.loc 1 300 23 is_stmt 0 view .LVU59
 188 0092 2323     		movs	r3, #35
 189 0094 0593     		str	r3, [sp, #20]
 301:Core/Src/main.c ****   GPIO_InitStruct.Mode = GPIO_MODE_OUTPUT_PP;
 190              		.loc 1 301 3 is_stmt 1 view .LVU60
 191              		.loc 1 301 24 is_stmt 0 view .LVU61
 192 0096 0123     		movs	r3, #1
 193 0098 0693     		str	r3, [sp, #24]
 302:Core/Src/main.c ****   GPIO_InitStruct.Pull = GPIO_NOPULL;
 194              		.loc 1 302 3 is_stmt 1 view .LVU62
 195              		.loc 1 302 24 is_stmt 0 view .LVU63
 196 009a 0794     		str	r4, [sp, #28]
 303:Core/Src/main.c ****   GPIO_InitStruct.Speed = GPIO_SPEED_FREQ_LOW;
 197              		.loc 1 303 3 is_stmt 1 view .LVU64
 198              		.loc 1 303 25 is_stmt 0 view .LVU65
 199 009c 0894     		str	r4, [sp, #32]
 304:Core/Src/main.c ****   HAL_GPIO_Init(GPIOB, &GPIO_InitStruct);
 200              		.loc 1 304 3 is_stmt 1 view .LVU66
 201 009e 05A9     		add	r1, sp, #20
 202 00a0 3046     		mov	r0, r6
 203 00a2 FFF7FEFF 		bl	HAL_GPIO_Init
 204              	.LVL8:
 305:Core/Src/main.c **** 
 306:Core/Src/main.c ****   /*Configure GPIO pins : PA11 PA12 */
 307:Core/Src/main.c ****   GPIO_InitStruct.Pin = GPIO_PIN_11|GPIO_PIN_12;
 205              		.loc 1 307 3 view .LVU67
 206              		.loc 1 307 23 is_stmt 0 view .LVU68
 207 00a6 4FF4C053 		mov	r3, #6144
 208 00aa 0593     		str	r3, [sp, #20]
 308:Core/Src/main.c ****   GPIO_InitStruct.Mode = GPIO_MODE_AF_PP;
 209              		.loc 1 308 3 is_stmt 1 view .LVU69
 210              		.loc 1 308 24 is_stmt 0 view .LVU70
 211 00ac 0695     		str	r5, [sp, #24]
 309:Core/Src/main.c ****   GPIO_InitStruct.Pull = GPIO_NOPULL;
ARM GAS  /tmp/ccsJv4yF.s 			page 20


 212              		.loc 1 309 3 is_stmt 1 view .LVU71
 213              		.loc 1 309 24 is_stmt 0 view .LVU72
 214 00ae 0794     		str	r4, [sp, #28]
 310:Core/Src/main.c ****   GPIO_InitStruct.Speed = GPIO_SPEED_FREQ_LOW;
 215              		.loc 1 310 3 is_stmt 1 view .LVU73
 216              		.loc 1 310 25 is_stmt 0 view .LVU74
 217 00b0 0894     		str	r4, [sp, #32]
 311:Core/Src/main.c ****   GPIO_InitStruct.Alternate = GPIO_AF10_USB;
 218              		.loc 1 311 3 is_stmt 1 view .LVU75
 219              		.loc 1 311 29 is_stmt 0 view .LVU76
 220 00b2 0A23     		movs	r3, #10
 221 00b4 0993     		str	r3, [sp, #36]
 312:Core/Src/main.c ****   HAL_GPIO_Init(GPIOA, &GPIO_InitStruct);
 222              		.loc 1 312 3 is_stmt 1 view .LVU77
 223 00b6 05A9     		add	r1, sp, #20
 224 00b8 4FF09040 		mov	r0, #1207959552
 225 00bc FFF7FEFF 		bl	HAL_GPIO_Init
 226              	.LVL9:
 313:Core/Src/main.c **** 
 314:Core/Src/main.c ****   /*Configure GPIO pins : B2_Pin B3_Pin */
 315:Core/Src/main.c ****   GPIO_InitStruct.Pin = B2_Pin|B3_Pin;
 227              		.loc 1 315 3 view .LVU78
 228              		.loc 1 315 23 is_stmt 0 view .LVU79
 229 00c0 0323     		movs	r3, #3
 230 00c2 0593     		str	r3, [sp, #20]
 316:Core/Src/main.c ****   GPIO_InitStruct.Mode = GPIO_MODE_INPUT;
 231              		.loc 1 316 3 is_stmt 1 view .LVU80
 232              		.loc 1 316 24 is_stmt 0 view .LVU81
 233 00c4 0694     		str	r4, [sp, #24]
 317:Core/Src/main.c ****   GPIO_InitStruct.Pull = GPIO_NOPULL;
 234              		.loc 1 317 3 is_stmt 1 view .LVU82
 235              		.loc 1 317 24 is_stmt 0 view .LVU83
 236 00c6 0794     		str	r4, [sp, #28]
 318:Core/Src/main.c ****   HAL_GPIO_Init(GPIOD, &GPIO_InitStruct);
 237              		.loc 1 318 3 is_stmt 1 view .LVU84
 238 00c8 05A9     		add	r1, sp, #20
 239 00ca 0448     		ldr	r0, .L3+8
 240 00cc FFF7FEFF 		bl	HAL_GPIO_Init
 241              	.LVL10:
 319:Core/Src/main.c **** 
 320:Core/Src/main.c **** }
 242              		.loc 1 320 1 is_stmt 0 view .LVU85
 243 00d0 0AB0     		add	sp, sp, #40
 244              	.LCFI2:
 245              		.cfi_def_cfa_offset 16
 246              		@ sp needed
 247 00d2 70BD     		pop	{r4, r5, r6, pc}
 248              	.L4:
 249              		.align	2
 250              	.L3:
 251 00d4 00040048 		.word	1207960576
 252 00d8 00080048 		.word	1207961600
 253 00dc 000C0048 		.word	1207962624
 254              		.cfi_endproc
 255              	.LFE956:
 257              		.section	.text.StartDefaultTask,"ax",%progbits
 258              		.align	1
ARM GAS  /tmp/ccsJv4yF.s 			page 21


 259              		.global	StartDefaultTask
 260              		.syntax unified
 261              		.thumb
 262              		.thumb_func
 263              		.fpu fpv4-sp-d16
 265              	StartDefaultTask:
 266              	.LVL11:
 267              	.LFB957:
 321:Core/Src/main.c **** 
 322:Core/Src/main.c **** /* USER CODE BEGIN 4 */
 323:Core/Src/main.c **** 
 324:Core/Src/main.c **** /* USER CODE END 4 */
 325:Core/Src/main.c **** 
 326:Core/Src/main.c **** /* USER CODE BEGIN Header_StartDefaultTask */
 327:Core/Src/main.c **** /**
 328:Core/Src/main.c ****   * @brief  Function implementing the defaultTask thread.
 329:Core/Src/main.c ****   * @param  argument: Not used
 330:Core/Src/main.c ****   * @retval None
 331:Core/Src/main.c ****   */
 332:Core/Src/main.c **** /* USER CODE END Header_StartDefaultTask */
 333:Core/Src/main.c **** void StartDefaultTask(void *argument)
 334:Core/Src/main.c **** {
 268              		.loc 1 334 1 is_stmt 1 view -0
 269              		.cfi_startproc
 270              		@ args = 0, pretend = 0, frame = 176
 271              		@ frame_needed = 0, uses_anonymous_args = 0
 272              		.loc 1 334 1 is_stmt 0 view .LVU87
 273 0000 30B5     		push	{r4, r5, lr}
 274              	.LCFI3:
 275              		.cfi_def_cfa_offset 12
 276              		.cfi_offset 4, -12
 277              		.cfi_offset 5, -8
 278              		.cfi_offset 14, -4
 279 0002 AFB0     		sub	sp, sp, #188
 280              	.LCFI4:
 281              		.cfi_def_cfa_offset 200
 335:Core/Src/main.c ****   /* USER CODE BEGIN 5 */
 336:Core/Src/main.c ****   /* Infinite loop */
 337:Core/Src/main.c ****   secp256k1_context* secp256k1_context_sign;
 282              		.loc 1 337 3 is_stmt 1 view .LVU88
 338:Core/Src/main.c ****   secp256k1_context_sign = secp256k1_context_create(SECP256K1_CONTEXT_SIGN);
 283              		.loc 1 338 3 view .LVU89
 284              		.loc 1 338 28 is_stmt 0 view .LVU90
 285 0004 40F20120 		movw	r0, #513
 286              	.LVL12:
 287              		.loc 1 338 28 view .LVU91
 288 0008 FFF7FEFF 		bl	secp256k1_context_create
 289              	.LVL13:
 290              	.L11:
 339:Core/Src/main.c ****   for(;;)
 291              		.loc 1 339 3 is_stmt 1 view .LVU92
 292              	.LBB20:
 340:Core/Src/main.c ****   {
 341:Core/Src/main.c ****     uint8_t p[32];
 293              		.loc 1 341 5 view .LVU93
 342:Core/Src/main.c ****     osDelay(1000);
 294              		.loc 1 342 5 view .LVU94
ARM GAS  /tmp/ccsJv4yF.s 			page 22


 295 000c 4FF47A70 		mov	r0, #1000
 296 0010 FFF7FEFF 		bl	osDelay
 297              	.LVL14:
 343:Core/Src/main.c **** 
 344:Core/Src/main.c ****    SHA256((uint8_t*)"bruh",p);
 298              		.loc 1 344 4 view .LVU95
 299 0014 04A9     		add	r1, sp, #16
 300 0016 1D48     		ldr	r0, .L15
 301 0018 FFF7FEFF 		bl	SHA256
 302              	.LVL15:
 345:Core/Src/main.c ****     for(int i = 0; i < 32;i++)printf("%02x",p[i]);
 303              		.loc 1 345 5 view .LVU96
 304              	.LBB21:
 305              		.loc 1 345 9 view .LVU97
 306              		.loc 1 345 13 is_stmt 0 view .LVU98
 307 001c 0024     		movs	r4, #0
 308              	.LVL16:
 309              	.L6:
 310              		.loc 1 345 5 discriminator 1 view .LVU99
 311 001e 1F2C     		cmp	r4, #31
 312 0020 08DC     		bgt	.L14
 313              		.loc 1 345 31 is_stmt 1 discriminator 3 view .LVU100
 314              		.loc 1 345 46 is_stmt 0 discriminator 3 view .LVU101
 315 0022 2EAB     		add	r3, sp, #184
 316 0024 2344     		add	r3, r3, r4
 317              		.loc 1 345 31 discriminator 3 view .LVU102
 318 0026 13F8A81C 		ldrb	r1, [r3, #-168]	@ zero_extendqisi2
 319 002a 1948     		ldr	r0, .L15+4
 320 002c FFF7FEFF 		bl	printf
 321              	.LVL17:
 322              		.loc 1 345 28 discriminator 3 view .LVU103
 323 0030 0134     		adds	r4, r4, #1
 324              	.LVL18:
 325              		.loc 1 345 28 discriminator 3 view .LVU104
 326 0032 F4E7     		b	.L6
 327              	.L14:
 328              		.loc 1 345 28 discriminator 3 view .LVU105
 329              	.LBE21:
 346:Core/Src/main.c ****     printf("\n");
 330              		.loc 1 346 5 is_stmt 1 view .LVU106
 331 0034 0A20     		movs	r0, #10
 332 0036 FFF7FEFF 		bl	putchar
 333              	.LVL19:
 347:Core/Src/main.c ****     secp256k1_ecdsa_signature sig;
 334              		.loc 1 347 5 view .LVU107
 348:Core/Src/main.c ****     uint8_t t[72];
 335              		.loc 1 348 5 view .LVU108
 349:Core/Src/main.c ****     secp256k1_context* secp256k1_context_sign;
 336              		.loc 1 349 5 view .LVU109
 350:Core/Src/main.c ****     secp256k1_context_sign = secp256k1_context_create(SECP256K1_CONTEXT_SIGN);
 337              		.loc 1 350 5 view .LVU110
 338              		.loc 1 350 30 is_stmt 0 view .LVU111
 339 003a 40F20120 		movw	r0, #513
 340 003e FFF7FEFF 		bl	secp256k1_context_create
 341              	.LVL20:
 342 0042 0546     		mov	r5, r0
 343              	.LVL21:
ARM GAS  /tmp/ccsJv4yF.s 			page 23


 351:Core/Src/main.c ****     int ret = secp256k1_ecdsa_sign(secp256k1_context_sign, &sig, p, p, secp256k1_nonce_function_rfc
 344              		.loc 1 351 5 is_stmt 1 view .LVU112
 345              		.loc 1 351 15 is_stmt 0 view .LVU113
 346 0044 0024     		movs	r4, #0
 347              	.LVL22:
 348              		.loc 1 351 15 view .LVU114
 349 0046 0194     		str	r4, [sp, #4]
 350 0048 124B     		ldr	r3, .L15+8
 351 004a 1B68     		ldr	r3, [r3]
 352 004c 0093     		str	r3, [sp]
 353 004e 04AB     		add	r3, sp, #16
 354 0050 1A46     		mov	r2, r3
 355 0052 0CA9     		add	r1, sp, #48
 356 0054 FFF7FEFF 		bl	secp256k1_ecdsa_sign
 357              	.LVL23:
 352:Core/Src/main.c ****     int sz = 72;
 358              		.loc 1 352 5 is_stmt 1 view .LVU115
 359              		.loc 1 352 9 is_stmt 0 view .LVU116
 360 0058 4823     		movs	r3, #72
 361 005a 0393     		str	r3, [sp, #12]
 353:Core/Src/main.c ****     secp256k1_ecdsa_signature_serialize_der(secp256k1_context_sign,t,&sz,&sig);
 362              		.loc 1 353 5 is_stmt 1 view .LVU117
 363 005c 0CAB     		add	r3, sp, #48
 364 005e 03AA     		add	r2, sp, #12
 365 0060 1CA9     		add	r1, sp, #112
 366 0062 2846     		mov	r0, r5
 367 0064 FFF7FEFF 		bl	secp256k1_ecdsa_signature_serialize_der
 368              	.LVL24:
 354:Core/Src/main.c ****     for(int i = 0; i < 72;i++)printf("%02x%s",t[i],(!((i+1)%8))?"\n":"");
 369              		.loc 1 354 5 view .LVU118
 370              	.LBB22:
 371              		.loc 1 354 9 view .LVU119
 372              		.loc 1 354 5 is_stmt 0 view .LVU120
 373 0068 03E0     		b	.L8
 374              	.LVL25:
 375              	.L12:
 376              		.loc 1 354 31 view .LVU121
 377 006a 0B4A     		ldr	r2, .L15+12
 378              	.L9:
 379              		.loc 1 354 31 discriminator 5 view .LVU122
 380 006c 0B48     		ldr	r0, .L15+16
 381 006e FFF7FEFF 		bl	printf
 382              	.LVL26:
 383              	.L8:
 384              		.loc 1 354 5 discriminator 6 view .LVU123
 385 0072 472C     		cmp	r4, #71
 386 0074 CADC     		bgt	.L11
 387              		.loc 1 354 31 is_stmt 1 discriminator 7 view .LVU124
 388              		.loc 1 354 48 is_stmt 0 discriminator 7 view .LVU125
 389 0076 2EAB     		add	r3, sp, #184
 390 0078 2344     		add	r3, r3, r4
 391 007a 13F8481C 		ldrb	r1, [r3, #-72]	@ zero_extendqisi2
 392              		.loc 1 354 57 discriminator 7 view .LVU126
 393 007e 0134     		adds	r4, r4, #1
 394              	.LVL27:
 395              		.loc 1 354 31 discriminator 7 view .LVU127
 396 0080 14F0070F 		tst	r4, #7
ARM GAS  /tmp/ccsJv4yF.s 			page 24


 397 0084 F1D1     		bne	.L12
 398              		.loc 1 354 31 view .LVU128
 399 0086 064A     		ldr	r2, .L15+20
 400 0088 F0E7     		b	.L9
 401              	.L16:
 402 008a 00BF     		.align	2
 403              	.L15:
 404 008c 08000000 		.word	.LC2
 405 0090 10000000 		.word	.LC3
 406 0094 00000000 		.word	secp256k1_nonce_function_rfc6979
 407 0098 00000000 		.word	.LC0
 408 009c 18000000 		.word	.LC4
 409 00a0 04000000 		.word	.LC1
 410              	.LBE22:
 411              	.LBE20:
 412              		.cfi_endproc
 413              	.LFE957:
 415              		.section	.text.HAL_TIM_PeriodElapsedCallback,"ax",%progbits
 416              		.align	1
 417              		.global	HAL_TIM_PeriodElapsedCallback
 418              		.syntax unified
 419              		.thumb
 420              		.thumb_func
 421              		.fpu fpv4-sp-d16
 423              	HAL_TIM_PeriodElapsedCallback:
 424              	.LVL28:
 425              	.LFB958:
 355:Core/Src/main.c ****   }
 356:Core/Src/main.c ****   /* USER CODE END 5 */
 357:Core/Src/main.c **** }
 358:Core/Src/main.c **** 
 359:Core/Src/main.c **** /**
 360:Core/Src/main.c ****   * @brief  Period elapsed callback in non blocking mode
 361:Core/Src/main.c ****   * @note   This function is called  when TIM1 interrupt took place, inside
 362:Core/Src/main.c ****   * HAL_TIM_IRQHandler(). It makes a direct call to HAL_IncTick() to increment
 363:Core/Src/main.c ****   * a global variable "uwTick" used as application time base.
 364:Core/Src/main.c ****   * @param  htim : TIM handle
 365:Core/Src/main.c ****   * @retval None
 366:Core/Src/main.c ****   */
 367:Core/Src/main.c **** void HAL_TIM_PeriodElapsedCallback(TIM_HandleTypeDef *htim)
 368:Core/Src/main.c **** {
 426              		.loc 1 368 1 is_stmt 1 view -0
 427              		.cfi_startproc
 428              		@ args = 0, pretend = 0, frame = 0
 429              		@ frame_needed = 0, uses_anonymous_args = 0
 430              		.loc 1 368 1 is_stmt 0 view .LVU130
 431 0000 08B5     		push	{r3, lr}
 432              	.LCFI5:
 433              		.cfi_def_cfa_offset 8
 434              		.cfi_offset 3, -8
 435              		.cfi_offset 14, -4
 369:Core/Src/main.c ****   /* USER CODE BEGIN Callback 0 */
 370:Core/Src/main.c **** 
 371:Core/Src/main.c ****   /* USER CODE END Callback 0 */
 372:Core/Src/main.c ****   if (htim->Instance == TIM1) {
 436              		.loc 1 372 3 is_stmt 1 view .LVU131
 437              		.loc 1 372 11 is_stmt 0 view .LVU132
ARM GAS  /tmp/ccsJv4yF.s 			page 25


 438 0002 0268     		ldr	r2, [r0]
 439              		.loc 1 372 6 view .LVU133
 440 0004 034B     		ldr	r3, .L21
 441 0006 9A42     		cmp	r2, r3
 442 0008 00D0     		beq	.L20
 443              	.LVL29:
 444              	.L17:
 373:Core/Src/main.c ****     HAL_IncTick();
 374:Core/Src/main.c ****   }
 375:Core/Src/main.c ****   /* USER CODE BEGIN Callback 1 */
 376:Core/Src/main.c **** 
 377:Core/Src/main.c ****   /* USER CODE END Callback 1 */
 378:Core/Src/main.c **** }
 445              		.loc 1 378 1 view .LVU134
 446 000a 08BD     		pop	{r3, pc}
 447              	.LVL30:
 448              	.L20:
 373:Core/Src/main.c ****     HAL_IncTick();
 449              		.loc 1 373 5 is_stmt 1 view .LVU135
 450 000c FFF7FEFF 		bl	HAL_IncTick
 451              	.LVL31:
 452              		.loc 1 378 1 is_stmt 0 view .LVU136
 453 0010 FBE7     		b	.L17
 454              	.L22:
 455 0012 00BF     		.align	2
 456              	.L21:
 457 0014 002C0140 		.word	1073818624
 458              		.cfi_endproc
 459              	.LFE958:
 461              		.section	.text.Error_Handler,"ax",%progbits
 462              		.align	1
 463              		.global	Error_Handler
 464              		.syntax unified
 465              		.thumb
 466              		.thumb_func
 467              		.fpu fpv4-sp-d16
 469              	Error_Handler:
 470              	.LFB959:
 379:Core/Src/main.c **** 
 380:Core/Src/main.c **** /**
 381:Core/Src/main.c ****   * @brief  This function is executed in case of error occurrence.
 382:Core/Src/main.c ****   * @retval None
 383:Core/Src/main.c ****   */
 384:Core/Src/main.c **** void Error_Handler(void)
 385:Core/Src/main.c **** {
 471              		.loc 1 385 1 is_stmt 1 view -0
 472              		.cfi_startproc
 473              		@ Volatile: function does not return.
 474              		@ args = 0, pretend = 0, frame = 0
 475              		@ frame_needed = 0, uses_anonymous_args = 0
 476              		@ link register save eliminated.
 386:Core/Src/main.c ****   /* USER CODE BEGIN Error_Handler_Debug */
 387:Core/Src/main.c ****   /* User can add his own implementation to report the HAL error return state */
 388:Core/Src/main.c ****   __disable_irq();
 477              		.loc 1 388 3 view .LVU138
 478              	.LBB23:
 479              	.LBI23:
ARM GAS  /tmp/ccsJv4yF.s 			page 26


 480              		.file 3 "Drivers/CMSIS/Include/cmsis_gcc.h"
   1:Drivers/CMSIS/Include/cmsis_gcc.h **** /**************************************************************************//**
   2:Drivers/CMSIS/Include/cmsis_gcc.h ****  * @file     cmsis_gcc.h
   3:Drivers/CMSIS/Include/cmsis_gcc.h ****  * @brief    CMSIS compiler GCC header file
   4:Drivers/CMSIS/Include/cmsis_gcc.h ****  * @version  V5.2.0
   5:Drivers/CMSIS/Include/cmsis_gcc.h ****  * @date     08. May 2019
   6:Drivers/CMSIS/Include/cmsis_gcc.h ****  ******************************************************************************/
   7:Drivers/CMSIS/Include/cmsis_gcc.h **** /*
   8:Drivers/CMSIS/Include/cmsis_gcc.h ****  * Copyright (c) 2009-2019 Arm Limited. All rights reserved.
   9:Drivers/CMSIS/Include/cmsis_gcc.h ****  *
  10:Drivers/CMSIS/Include/cmsis_gcc.h ****  * SPDX-License-Identifier: Apache-2.0
  11:Drivers/CMSIS/Include/cmsis_gcc.h ****  *
  12:Drivers/CMSIS/Include/cmsis_gcc.h ****  * Licensed under the Apache License, Version 2.0 (the License); you may
  13:Drivers/CMSIS/Include/cmsis_gcc.h ****  * not use this file except in compliance with the License.
  14:Drivers/CMSIS/Include/cmsis_gcc.h ****  * You may obtain a copy of the License at
  15:Drivers/CMSIS/Include/cmsis_gcc.h ****  *
  16:Drivers/CMSIS/Include/cmsis_gcc.h ****  * www.apache.org/licenses/LICENSE-2.0
  17:Drivers/CMSIS/Include/cmsis_gcc.h ****  *
  18:Drivers/CMSIS/Include/cmsis_gcc.h ****  * Unless required by applicable law or agreed to in writing, software
  19:Drivers/CMSIS/Include/cmsis_gcc.h ****  * distributed under the License is distributed on an AS IS BASIS, WITHOUT
  20:Drivers/CMSIS/Include/cmsis_gcc.h ****  * WARRANTIES OR CONDITIONS OF ANY KIND, either express or implied.
  21:Drivers/CMSIS/Include/cmsis_gcc.h ****  * See the License for the specific language governing permissions and
  22:Drivers/CMSIS/Include/cmsis_gcc.h ****  * limitations under the License.
  23:Drivers/CMSIS/Include/cmsis_gcc.h ****  */
  24:Drivers/CMSIS/Include/cmsis_gcc.h **** 
  25:Drivers/CMSIS/Include/cmsis_gcc.h **** #ifndef __CMSIS_GCC_H
  26:Drivers/CMSIS/Include/cmsis_gcc.h **** #define __CMSIS_GCC_H
  27:Drivers/CMSIS/Include/cmsis_gcc.h **** 
  28:Drivers/CMSIS/Include/cmsis_gcc.h **** /* ignore some GCC warnings */
  29:Drivers/CMSIS/Include/cmsis_gcc.h **** #pragma GCC diagnostic push
  30:Drivers/CMSIS/Include/cmsis_gcc.h **** #pragma GCC diagnostic ignored "-Wsign-conversion"
  31:Drivers/CMSIS/Include/cmsis_gcc.h **** #pragma GCC diagnostic ignored "-Wconversion"
  32:Drivers/CMSIS/Include/cmsis_gcc.h **** #pragma GCC diagnostic ignored "-Wunused-parameter"
  33:Drivers/CMSIS/Include/cmsis_gcc.h **** 
  34:Drivers/CMSIS/Include/cmsis_gcc.h **** /* Fallback for __has_builtin */
  35:Drivers/CMSIS/Include/cmsis_gcc.h **** #ifndef __has_builtin
  36:Drivers/CMSIS/Include/cmsis_gcc.h ****   #define __has_builtin(x) (0)
  37:Drivers/CMSIS/Include/cmsis_gcc.h **** #endif
  38:Drivers/CMSIS/Include/cmsis_gcc.h **** 
  39:Drivers/CMSIS/Include/cmsis_gcc.h **** /* CMSIS compiler specific defines */
  40:Drivers/CMSIS/Include/cmsis_gcc.h **** #ifndef   __ASM
  41:Drivers/CMSIS/Include/cmsis_gcc.h ****   #define __ASM                                  __asm
  42:Drivers/CMSIS/Include/cmsis_gcc.h **** #endif
  43:Drivers/CMSIS/Include/cmsis_gcc.h **** #ifndef   __INLINE
  44:Drivers/CMSIS/Include/cmsis_gcc.h ****   #define __INLINE                               inline
  45:Drivers/CMSIS/Include/cmsis_gcc.h **** #endif
  46:Drivers/CMSIS/Include/cmsis_gcc.h **** #ifndef   __STATIC_INLINE
  47:Drivers/CMSIS/Include/cmsis_gcc.h ****   #define __STATIC_INLINE                        static inline
  48:Drivers/CMSIS/Include/cmsis_gcc.h **** #endif
  49:Drivers/CMSIS/Include/cmsis_gcc.h **** #ifndef   __STATIC_FORCEINLINE                 
  50:Drivers/CMSIS/Include/cmsis_gcc.h ****   #define __STATIC_FORCEINLINE                   __attribute__((always_inline)) static inline
  51:Drivers/CMSIS/Include/cmsis_gcc.h **** #endif                                           
  52:Drivers/CMSIS/Include/cmsis_gcc.h **** #ifndef   __NO_RETURN
  53:Drivers/CMSIS/Include/cmsis_gcc.h ****   #define __NO_RETURN                            __attribute__((__noreturn__))
  54:Drivers/CMSIS/Include/cmsis_gcc.h **** #endif
  55:Drivers/CMSIS/Include/cmsis_gcc.h **** #ifndef   __USED
  56:Drivers/CMSIS/Include/cmsis_gcc.h ****   #define __USED                                 __attribute__((used))
ARM GAS  /tmp/ccsJv4yF.s 			page 27


  57:Drivers/CMSIS/Include/cmsis_gcc.h **** #endif
  58:Drivers/CMSIS/Include/cmsis_gcc.h **** #ifndef   __WEAK
  59:Drivers/CMSIS/Include/cmsis_gcc.h ****   #define __WEAK                                 __attribute__((weak))
  60:Drivers/CMSIS/Include/cmsis_gcc.h **** #endif
  61:Drivers/CMSIS/Include/cmsis_gcc.h **** #ifndef   __PACKED
  62:Drivers/CMSIS/Include/cmsis_gcc.h ****   #define __PACKED                               __attribute__((packed, aligned(1)))
  63:Drivers/CMSIS/Include/cmsis_gcc.h **** #endif
  64:Drivers/CMSIS/Include/cmsis_gcc.h **** #ifndef   __PACKED_STRUCT
  65:Drivers/CMSIS/Include/cmsis_gcc.h ****   #define __PACKED_STRUCT                        struct __attribute__((packed, aligned(1)))
  66:Drivers/CMSIS/Include/cmsis_gcc.h **** #endif
  67:Drivers/CMSIS/Include/cmsis_gcc.h **** #ifndef   __PACKED_UNION
  68:Drivers/CMSIS/Include/cmsis_gcc.h ****   #define __PACKED_UNION                         union __attribute__((packed, aligned(1)))
  69:Drivers/CMSIS/Include/cmsis_gcc.h **** #endif
  70:Drivers/CMSIS/Include/cmsis_gcc.h **** #ifndef   __UNALIGNED_UINT32        /* deprecated */
  71:Drivers/CMSIS/Include/cmsis_gcc.h ****   #pragma GCC diagnostic push
  72:Drivers/CMSIS/Include/cmsis_gcc.h ****   #pragma GCC diagnostic ignored "-Wpacked"
  73:Drivers/CMSIS/Include/cmsis_gcc.h ****   #pragma GCC diagnostic ignored "-Wattributes"
  74:Drivers/CMSIS/Include/cmsis_gcc.h ****   struct __attribute__((packed)) T_UINT32 { uint32_t v; };
  75:Drivers/CMSIS/Include/cmsis_gcc.h ****   #pragma GCC diagnostic pop
  76:Drivers/CMSIS/Include/cmsis_gcc.h ****   #define __UNALIGNED_UINT32(x)                  (((struct T_UINT32 *)(x))->v)
  77:Drivers/CMSIS/Include/cmsis_gcc.h **** #endif
  78:Drivers/CMSIS/Include/cmsis_gcc.h **** #ifndef   __UNALIGNED_UINT16_WRITE
  79:Drivers/CMSIS/Include/cmsis_gcc.h ****   #pragma GCC diagnostic push
  80:Drivers/CMSIS/Include/cmsis_gcc.h ****   #pragma GCC diagnostic ignored "-Wpacked"
  81:Drivers/CMSIS/Include/cmsis_gcc.h ****   #pragma GCC diagnostic ignored "-Wattributes"
  82:Drivers/CMSIS/Include/cmsis_gcc.h ****   __PACKED_STRUCT T_UINT16_WRITE { uint16_t v; };
  83:Drivers/CMSIS/Include/cmsis_gcc.h ****   #pragma GCC diagnostic pop
  84:Drivers/CMSIS/Include/cmsis_gcc.h ****   #define __UNALIGNED_UINT16_WRITE(addr, val)    (void)((((struct T_UINT16_WRITE *)(void *)(addr))-
  85:Drivers/CMSIS/Include/cmsis_gcc.h **** #endif
  86:Drivers/CMSIS/Include/cmsis_gcc.h **** #ifndef   __UNALIGNED_UINT16_READ
  87:Drivers/CMSIS/Include/cmsis_gcc.h ****   #pragma GCC diagnostic push
  88:Drivers/CMSIS/Include/cmsis_gcc.h ****   #pragma GCC diagnostic ignored "-Wpacked"
  89:Drivers/CMSIS/Include/cmsis_gcc.h ****   #pragma GCC diagnostic ignored "-Wattributes"
  90:Drivers/CMSIS/Include/cmsis_gcc.h ****   __PACKED_STRUCT T_UINT16_READ { uint16_t v; };
  91:Drivers/CMSIS/Include/cmsis_gcc.h ****   #pragma GCC diagnostic pop
  92:Drivers/CMSIS/Include/cmsis_gcc.h ****   #define __UNALIGNED_UINT16_READ(addr)          (((const struct T_UINT16_READ *)(const void *)(add
  93:Drivers/CMSIS/Include/cmsis_gcc.h **** #endif
  94:Drivers/CMSIS/Include/cmsis_gcc.h **** #ifndef   __UNALIGNED_UINT32_WRITE
  95:Drivers/CMSIS/Include/cmsis_gcc.h ****   #pragma GCC diagnostic push
  96:Drivers/CMSIS/Include/cmsis_gcc.h ****   #pragma GCC diagnostic ignored "-Wpacked"
  97:Drivers/CMSIS/Include/cmsis_gcc.h ****   #pragma GCC diagnostic ignored "-Wattributes"
  98:Drivers/CMSIS/Include/cmsis_gcc.h ****   __PACKED_STRUCT T_UINT32_WRITE { uint32_t v; };
  99:Drivers/CMSIS/Include/cmsis_gcc.h ****   #pragma GCC diagnostic pop
 100:Drivers/CMSIS/Include/cmsis_gcc.h ****   #define __UNALIGNED_UINT32_WRITE(addr, val)    (void)((((struct T_UINT32_WRITE *)(void *)(addr))-
 101:Drivers/CMSIS/Include/cmsis_gcc.h **** #endif
 102:Drivers/CMSIS/Include/cmsis_gcc.h **** #ifndef   __UNALIGNED_UINT32_READ
 103:Drivers/CMSIS/Include/cmsis_gcc.h ****   #pragma GCC diagnostic push
 104:Drivers/CMSIS/Include/cmsis_gcc.h ****   #pragma GCC diagnostic ignored "-Wpacked"
 105:Drivers/CMSIS/Include/cmsis_gcc.h ****   #pragma GCC diagnostic ignored "-Wattributes"
 106:Drivers/CMSIS/Include/cmsis_gcc.h ****   __PACKED_STRUCT T_UINT32_READ { uint32_t v; };
 107:Drivers/CMSIS/Include/cmsis_gcc.h ****   #pragma GCC diagnostic pop
 108:Drivers/CMSIS/Include/cmsis_gcc.h ****   #define __UNALIGNED_UINT32_READ(addr)          (((const struct T_UINT32_READ *)(const void *)(add
 109:Drivers/CMSIS/Include/cmsis_gcc.h **** #endif
 110:Drivers/CMSIS/Include/cmsis_gcc.h **** #ifndef   __ALIGNED
 111:Drivers/CMSIS/Include/cmsis_gcc.h ****   #define __ALIGNED(x)                           __attribute__((aligned(x)))
 112:Drivers/CMSIS/Include/cmsis_gcc.h **** #endif
 113:Drivers/CMSIS/Include/cmsis_gcc.h **** #ifndef   __RESTRICT
ARM GAS  /tmp/ccsJv4yF.s 			page 28


 114:Drivers/CMSIS/Include/cmsis_gcc.h ****   #define __RESTRICT                             __restrict
 115:Drivers/CMSIS/Include/cmsis_gcc.h **** #endif
 116:Drivers/CMSIS/Include/cmsis_gcc.h **** #ifndef   __COMPILER_BARRIER
 117:Drivers/CMSIS/Include/cmsis_gcc.h ****   #define __COMPILER_BARRIER()                   __ASM volatile("":::"memory")
 118:Drivers/CMSIS/Include/cmsis_gcc.h **** #endif
 119:Drivers/CMSIS/Include/cmsis_gcc.h **** 
 120:Drivers/CMSIS/Include/cmsis_gcc.h **** /* #########################  Startup and Lowlevel Init  ######################## */
 121:Drivers/CMSIS/Include/cmsis_gcc.h **** 
 122:Drivers/CMSIS/Include/cmsis_gcc.h **** #ifndef __PROGRAM_START
 123:Drivers/CMSIS/Include/cmsis_gcc.h **** 
 124:Drivers/CMSIS/Include/cmsis_gcc.h **** /**
 125:Drivers/CMSIS/Include/cmsis_gcc.h ****   \brief   Initializes data and bss sections
 126:Drivers/CMSIS/Include/cmsis_gcc.h ****   \details This default implementations initialized all data and additional bss
 127:Drivers/CMSIS/Include/cmsis_gcc.h ****            sections relying on .copy.table and .zero.table specified properly
 128:Drivers/CMSIS/Include/cmsis_gcc.h ****            in the used linker script.
 129:Drivers/CMSIS/Include/cmsis_gcc.h ****   
 130:Drivers/CMSIS/Include/cmsis_gcc.h ****  */
 131:Drivers/CMSIS/Include/cmsis_gcc.h **** __STATIC_FORCEINLINE __NO_RETURN void __cmsis_start(void)
 132:Drivers/CMSIS/Include/cmsis_gcc.h **** {
 133:Drivers/CMSIS/Include/cmsis_gcc.h ****   extern void _start(void) __NO_RETURN;
 134:Drivers/CMSIS/Include/cmsis_gcc.h ****   
 135:Drivers/CMSIS/Include/cmsis_gcc.h ****   typedef struct {
 136:Drivers/CMSIS/Include/cmsis_gcc.h ****     uint32_t const* src;
 137:Drivers/CMSIS/Include/cmsis_gcc.h ****     uint32_t* dest;
 138:Drivers/CMSIS/Include/cmsis_gcc.h ****     uint32_t  wlen;
 139:Drivers/CMSIS/Include/cmsis_gcc.h ****   } __copy_table_t;
 140:Drivers/CMSIS/Include/cmsis_gcc.h ****   
 141:Drivers/CMSIS/Include/cmsis_gcc.h ****   typedef struct {
 142:Drivers/CMSIS/Include/cmsis_gcc.h ****     uint32_t* dest;
 143:Drivers/CMSIS/Include/cmsis_gcc.h ****     uint32_t  wlen;
 144:Drivers/CMSIS/Include/cmsis_gcc.h ****   } __zero_table_t;
 145:Drivers/CMSIS/Include/cmsis_gcc.h ****   
 146:Drivers/CMSIS/Include/cmsis_gcc.h ****   extern const __copy_table_t __copy_table_start__;
 147:Drivers/CMSIS/Include/cmsis_gcc.h ****   extern const __copy_table_t __copy_table_end__;
 148:Drivers/CMSIS/Include/cmsis_gcc.h ****   extern const __zero_table_t __zero_table_start__;
 149:Drivers/CMSIS/Include/cmsis_gcc.h ****   extern const __zero_table_t __zero_table_end__;
 150:Drivers/CMSIS/Include/cmsis_gcc.h **** 
 151:Drivers/CMSIS/Include/cmsis_gcc.h ****   for (__copy_table_t const* pTable = &__copy_table_start__; pTable < &__copy_table_end__; ++pTable
 152:Drivers/CMSIS/Include/cmsis_gcc.h ****     for(uint32_t i=0u; i<pTable->wlen; ++i) {
 153:Drivers/CMSIS/Include/cmsis_gcc.h ****       pTable->dest[i] = pTable->src[i];
 154:Drivers/CMSIS/Include/cmsis_gcc.h ****     }
 155:Drivers/CMSIS/Include/cmsis_gcc.h ****   }
 156:Drivers/CMSIS/Include/cmsis_gcc.h ****  
 157:Drivers/CMSIS/Include/cmsis_gcc.h ****   for (__zero_table_t const* pTable = &__zero_table_start__; pTable < &__zero_table_end__; ++pTable
 158:Drivers/CMSIS/Include/cmsis_gcc.h ****     for(uint32_t i=0u; i<pTable->wlen; ++i) {
 159:Drivers/CMSIS/Include/cmsis_gcc.h ****       pTable->dest[i] = 0u;
 160:Drivers/CMSIS/Include/cmsis_gcc.h ****     }
 161:Drivers/CMSIS/Include/cmsis_gcc.h ****   }
 162:Drivers/CMSIS/Include/cmsis_gcc.h ****  
 163:Drivers/CMSIS/Include/cmsis_gcc.h ****   _start();
 164:Drivers/CMSIS/Include/cmsis_gcc.h **** }
 165:Drivers/CMSIS/Include/cmsis_gcc.h ****   
 166:Drivers/CMSIS/Include/cmsis_gcc.h **** #define __PROGRAM_START           __cmsis_start
 167:Drivers/CMSIS/Include/cmsis_gcc.h **** #endif
 168:Drivers/CMSIS/Include/cmsis_gcc.h **** 
 169:Drivers/CMSIS/Include/cmsis_gcc.h **** #ifndef __INITIAL_SP
 170:Drivers/CMSIS/Include/cmsis_gcc.h **** #define __INITIAL_SP              __StackTop
ARM GAS  /tmp/ccsJv4yF.s 			page 29


 171:Drivers/CMSIS/Include/cmsis_gcc.h **** #endif
 172:Drivers/CMSIS/Include/cmsis_gcc.h **** 
 173:Drivers/CMSIS/Include/cmsis_gcc.h **** #ifndef __STACK_LIMIT
 174:Drivers/CMSIS/Include/cmsis_gcc.h **** #define __STACK_LIMIT             __StackLimit
 175:Drivers/CMSIS/Include/cmsis_gcc.h **** #endif
 176:Drivers/CMSIS/Include/cmsis_gcc.h **** 
 177:Drivers/CMSIS/Include/cmsis_gcc.h **** #ifndef __VECTOR_TABLE
 178:Drivers/CMSIS/Include/cmsis_gcc.h **** #define __VECTOR_TABLE            __Vectors
 179:Drivers/CMSIS/Include/cmsis_gcc.h **** #endif
 180:Drivers/CMSIS/Include/cmsis_gcc.h **** 
 181:Drivers/CMSIS/Include/cmsis_gcc.h **** #ifndef __VECTOR_TABLE_ATTRIBUTE
 182:Drivers/CMSIS/Include/cmsis_gcc.h **** #define __VECTOR_TABLE_ATTRIBUTE  __attribute((used, section(".vectors")))
 183:Drivers/CMSIS/Include/cmsis_gcc.h **** #endif
 184:Drivers/CMSIS/Include/cmsis_gcc.h **** 
 185:Drivers/CMSIS/Include/cmsis_gcc.h **** /* ###########################  Core Function Access  ########################### */
 186:Drivers/CMSIS/Include/cmsis_gcc.h **** /** \ingroup  CMSIS_Core_FunctionInterface
 187:Drivers/CMSIS/Include/cmsis_gcc.h ****     \defgroup CMSIS_Core_RegAccFunctions CMSIS Core Register Access Functions
 188:Drivers/CMSIS/Include/cmsis_gcc.h ****   @{
 189:Drivers/CMSIS/Include/cmsis_gcc.h ****  */
 190:Drivers/CMSIS/Include/cmsis_gcc.h **** 
 191:Drivers/CMSIS/Include/cmsis_gcc.h **** /**
 192:Drivers/CMSIS/Include/cmsis_gcc.h ****   \brief   Enable IRQ Interrupts
 193:Drivers/CMSIS/Include/cmsis_gcc.h ****   \details Enables IRQ interrupts by clearing the I-bit in the CPSR.
 194:Drivers/CMSIS/Include/cmsis_gcc.h ****            Can only be executed in Privileged modes.
 195:Drivers/CMSIS/Include/cmsis_gcc.h ****  */
 196:Drivers/CMSIS/Include/cmsis_gcc.h **** __STATIC_FORCEINLINE void __enable_irq(void)
 197:Drivers/CMSIS/Include/cmsis_gcc.h **** {
 198:Drivers/CMSIS/Include/cmsis_gcc.h ****   __ASM volatile ("cpsie i" : : : "memory");
 199:Drivers/CMSIS/Include/cmsis_gcc.h **** }
 200:Drivers/CMSIS/Include/cmsis_gcc.h **** 
 201:Drivers/CMSIS/Include/cmsis_gcc.h **** 
 202:Drivers/CMSIS/Include/cmsis_gcc.h **** /**
 203:Drivers/CMSIS/Include/cmsis_gcc.h ****   \brief   Disable IRQ Interrupts
 204:Drivers/CMSIS/Include/cmsis_gcc.h ****   \details Disables IRQ interrupts by setting the I-bit in the CPSR.
 205:Drivers/CMSIS/Include/cmsis_gcc.h ****            Can only be executed in Privileged modes.
 206:Drivers/CMSIS/Include/cmsis_gcc.h ****  */
 207:Drivers/CMSIS/Include/cmsis_gcc.h **** __STATIC_FORCEINLINE void __disable_irq(void)
 481              		.loc 3 207 27 view .LVU139
 482              	.LBB24:
 208:Drivers/CMSIS/Include/cmsis_gcc.h **** {
 209:Drivers/CMSIS/Include/cmsis_gcc.h ****   __ASM volatile ("cpsid i" : : : "memory");
 483              		.loc 3 209 3 view .LVU140
 484              		.syntax unified
 485              	@ 209 "Drivers/CMSIS/Include/cmsis_gcc.h" 1
 486 0000 72B6     		cpsid i
 487              	@ 0 "" 2
 488              		.thumb
 489              		.syntax unified
 490              	.L24:
 491              	.LBE24:
 492              	.LBE23:
 389:Core/Src/main.c ****   while (1)
 493              		.loc 1 389 3 discriminator 1 view .LVU141
 390:Core/Src/main.c ****   {
 391:Core/Src/main.c ****   }
 494              		.loc 1 391 3 discriminator 1 view .LVU142
 495 0002 FEE7     		b	.L24
ARM GAS  /tmp/ccsJv4yF.s 			page 30


 496              		.cfi_endproc
 497              	.LFE959:
 499              		.section	.text.MX_USART1_UART_Init,"ax",%progbits
 500              		.align	1
 501              		.syntax unified
 502              		.thumb
 503              		.thumb_func
 504              		.fpu fpv4-sp-d16
 506              	MX_USART1_UART_Init:
 507              	.LFB955:
 225:Core/Src/main.c **** 
 508              		.loc 1 225 1 view -0
 509              		.cfi_startproc
 510              		@ args = 0, pretend = 0, frame = 0
 511              		@ frame_needed = 0, uses_anonymous_args = 0
 512 0000 08B5     		push	{r3, lr}
 513              	.LCFI6:
 514              		.cfi_def_cfa_offset 8
 515              		.cfi_offset 3, -8
 516              		.cfi_offset 14, -4
 234:Core/Src/main.c ****   huart1.Init.BaudRate = 115200;
 517              		.loc 1 234 3 view .LVU144
 234:Core/Src/main.c ****   huart1.Init.BaudRate = 115200;
 518              		.loc 1 234 19 is_stmt 0 view .LVU145
 519 0002 1548     		ldr	r0, .L35
 520 0004 154B     		ldr	r3, .L35+4
 521 0006 0360     		str	r3, [r0]
 235:Core/Src/main.c ****   huart1.Init.WordLength = UART_WORDLENGTH_8B;
 522              		.loc 1 235 3 is_stmt 1 view .LVU146
 235:Core/Src/main.c ****   huart1.Init.WordLength = UART_WORDLENGTH_8B;
 523              		.loc 1 235 24 is_stmt 0 view .LVU147
 524 0008 4FF4E133 		mov	r3, #115200
 525 000c 4360     		str	r3, [r0, #4]
 236:Core/Src/main.c ****   huart1.Init.StopBits = UART_STOPBITS_1;
 526              		.loc 1 236 3 is_stmt 1 view .LVU148
 236:Core/Src/main.c ****   huart1.Init.StopBits = UART_STOPBITS_1;
 527              		.loc 1 236 26 is_stmt 0 view .LVU149
 528 000e 0023     		movs	r3, #0
 529 0010 8360     		str	r3, [r0, #8]
 237:Core/Src/main.c ****   huart1.Init.Parity = UART_PARITY_NONE;
 530              		.loc 1 237 3 is_stmt 1 view .LVU150
 237:Core/Src/main.c ****   huart1.Init.Parity = UART_PARITY_NONE;
 531              		.loc 1 237 24 is_stmt 0 view .LVU151
 532 0012 C360     		str	r3, [r0, #12]
 238:Core/Src/main.c ****   huart1.Init.Mode = UART_MODE_TX_RX;
 533              		.loc 1 238 3 is_stmt 1 view .LVU152
 238:Core/Src/main.c ****   huart1.Init.Mode = UART_MODE_TX_RX;
 534              		.loc 1 238 22 is_stmt 0 view .LVU153
 535 0014 0361     		str	r3, [r0, #16]
 239:Core/Src/main.c ****   huart1.Init.HwFlowCtl = UART_HWCONTROL_NONE;
 536              		.loc 1 239 3 is_stmt 1 view .LVU154
 239:Core/Src/main.c ****   huart1.Init.HwFlowCtl = UART_HWCONTROL_NONE;
 537              		.loc 1 239 20 is_stmt 0 view .LVU155
 538 0016 0C22     		movs	r2, #12
 539 0018 4261     		str	r2, [r0, #20]
 240:Core/Src/main.c ****   huart1.Init.OverSampling = UART_OVERSAMPLING_16;
 540              		.loc 1 240 3 is_stmt 1 view .LVU156
ARM GAS  /tmp/ccsJv4yF.s 			page 31


 240:Core/Src/main.c ****   huart1.Init.OverSampling = UART_OVERSAMPLING_16;
 541              		.loc 1 240 25 is_stmt 0 view .LVU157
 542 001a 8361     		str	r3, [r0, #24]
 241:Core/Src/main.c ****   huart1.Init.OneBitSampling = UART_ONE_BIT_SAMPLE_DISABLE;
 543              		.loc 1 241 3 is_stmt 1 view .LVU158
 241:Core/Src/main.c ****   huart1.Init.OneBitSampling = UART_ONE_BIT_SAMPLE_DISABLE;
 544              		.loc 1 241 28 is_stmt 0 view .LVU159
 545 001c C361     		str	r3, [r0, #28]
 242:Core/Src/main.c ****   huart1.Init.ClockPrescaler = UART_PRESCALER_DIV1;
 546              		.loc 1 242 3 is_stmt 1 view .LVU160
 242:Core/Src/main.c ****   huart1.Init.ClockPrescaler = UART_PRESCALER_DIV1;
 547              		.loc 1 242 30 is_stmt 0 view .LVU161
 548 001e 0362     		str	r3, [r0, #32]
 243:Core/Src/main.c ****   huart1.AdvancedInit.AdvFeatureInit = UART_ADVFEATURE_NO_INIT;
 549              		.loc 1 243 3 is_stmt 1 view .LVU162
 243:Core/Src/main.c ****   huart1.AdvancedInit.AdvFeatureInit = UART_ADVFEATURE_NO_INIT;
 550              		.loc 1 243 30 is_stmt 0 view .LVU163
 551 0020 4362     		str	r3, [r0, #36]
 244:Core/Src/main.c ****   if (HAL_UART_Init(&huart1) != HAL_OK)
 552              		.loc 1 244 3 is_stmt 1 view .LVU164
 244:Core/Src/main.c ****   if (HAL_UART_Init(&huart1) != HAL_OK)
 553              		.loc 1 244 38 is_stmt 0 view .LVU165
 554 0022 8362     		str	r3, [r0, #40]
 245:Core/Src/main.c ****   {
 555              		.loc 1 245 3 is_stmt 1 view .LVU166
 245:Core/Src/main.c ****   {
 556              		.loc 1 245 7 is_stmt 0 view .LVU167
 557 0024 FFF7FEFF 		bl	HAL_UART_Init
 558              	.LVL32:
 245:Core/Src/main.c ****   {
 559              		.loc 1 245 6 view .LVU168
 560 0028 70B9     		cbnz	r0, .L31
 249:Core/Src/main.c ****   {
 561              		.loc 1 249 3 is_stmt 1 view .LVU169
 249:Core/Src/main.c ****   {
 562              		.loc 1 249 7 is_stmt 0 view .LVU170
 563 002a 0021     		movs	r1, #0
 564 002c 0A48     		ldr	r0, .L35
 565 002e FFF7FEFF 		bl	HAL_UARTEx_SetTxFifoThreshold
 566              	.LVL33:
 249:Core/Src/main.c ****   {
 567              		.loc 1 249 6 view .LVU171
 568 0032 58B9     		cbnz	r0, .L32
 253:Core/Src/main.c ****   {
 569              		.loc 1 253 3 is_stmt 1 view .LVU172
 253:Core/Src/main.c ****   {
 570              		.loc 1 253 7 is_stmt 0 view .LVU173
 571 0034 0021     		movs	r1, #0
 572 0036 0848     		ldr	r0, .L35
 573 0038 FFF7FEFF 		bl	HAL_UARTEx_SetRxFifoThreshold
 574              	.LVL34:
 253:Core/Src/main.c ****   {
 575              		.loc 1 253 6 view .LVU174
 576 003c 40B9     		cbnz	r0, .L33
 257:Core/Src/main.c ****   {
 577              		.loc 1 257 3 is_stmt 1 view .LVU175
 257:Core/Src/main.c ****   {
ARM GAS  /tmp/ccsJv4yF.s 			page 32


 578              		.loc 1 257 7 is_stmt 0 view .LVU176
 579 003e 0648     		ldr	r0, .L35
 580 0040 FFF7FEFF 		bl	HAL_UARTEx_DisableFifoMode
 581              	.LVL35:
 257:Core/Src/main.c ****   {
 582              		.loc 1 257 6 view .LVU177
 583 0044 30B9     		cbnz	r0, .L34
 265:Core/Src/main.c **** 
 584              		.loc 1 265 1 view .LVU178
 585 0046 08BD     		pop	{r3, pc}
 586              	.L31:
 247:Core/Src/main.c ****   }
 587              		.loc 1 247 5 is_stmt 1 view .LVU179
 588 0048 FFF7FEFF 		bl	Error_Handler
 589              	.LVL36:
 590              	.L32:
 251:Core/Src/main.c ****   }
 591              		.loc 1 251 5 view .LVU180
 592 004c FFF7FEFF 		bl	Error_Handler
 593              	.LVL37:
 594              	.L33:
 255:Core/Src/main.c ****   }
 595              		.loc 1 255 5 view .LVU181
 596 0050 FFF7FEFF 		bl	Error_Handler
 597              	.LVL38:
 598              	.L34:
 259:Core/Src/main.c ****   }
 599              		.loc 1 259 5 view .LVU182
 600 0054 FFF7FEFF 		bl	Error_Handler
 601              	.LVL39:
 602              	.L36:
 603              		.align	2
 604              	.L35:
 605 0058 00000000 		.word	huart1
 606 005c 00380140 		.word	1073821696
 607              		.cfi_endproc
 608              	.LFE955:
 610              		.section	.text.SystemClock_Config,"ax",%progbits
 611              		.align	1
 612              		.global	SystemClock_Config
 613              		.syntax unified
 614              		.thumb
 615              		.thumb_func
 616              		.fpu fpv4-sp-d16
 618              	SystemClock_Config:
 619              	.LFB954:
 166:Core/Src/main.c ****   RCC_OscInitTypeDef RCC_OscInitStruct = {0};
 620              		.loc 1 166 1 view -0
 621              		.cfi_startproc
 622              		@ args = 0, pretend = 0, frame = 184
 623              		@ frame_needed = 0, uses_anonymous_args = 0
 624 0000 10B5     		push	{r4, lr}
 625              	.LCFI7:
 626              		.cfi_def_cfa_offset 8
 627              		.cfi_offset 4, -8
 628              		.cfi_offset 14, -4
 629 0002 AEB0     		sub	sp, sp, #184
ARM GAS  /tmp/ccsJv4yF.s 			page 33


 630              	.LCFI8:
 631              		.cfi_def_cfa_offset 192
 167:Core/Src/main.c ****   RCC_ClkInitTypeDef RCC_ClkInitStruct = {0};
 632              		.loc 1 167 3 view .LVU184
 167:Core/Src/main.c ****   RCC_ClkInitTypeDef RCC_ClkInitStruct = {0};
 633              		.loc 1 167 22 is_stmt 0 view .LVU185
 634 0004 4822     		movs	r2, #72
 635 0006 0021     		movs	r1, #0
 636 0008 1CA8     		add	r0, sp, #112
 637 000a FFF7FEFF 		bl	memset
 638              	.LVL40:
 168:Core/Src/main.c ****   RCC_PeriphCLKInitTypeDef PeriphClkInitStruct = {0};
 639              		.loc 1 168 3 is_stmt 1 view .LVU186
 168:Core/Src/main.c ****   RCC_PeriphCLKInitTypeDef PeriphClkInitStruct = {0};
 640              		.loc 1 168 22 is_stmt 0 view .LVU187
 641 000e 0024     		movs	r4, #0
 642 0010 1594     		str	r4, [sp, #84]
 643 0012 1694     		str	r4, [sp, #88]
 644 0014 1794     		str	r4, [sp, #92]
 645 0016 1894     		str	r4, [sp, #96]
 646 0018 1994     		str	r4, [sp, #100]
 647 001a 1A94     		str	r4, [sp, #104]
 648 001c 1B94     		str	r4, [sp, #108]
 169:Core/Src/main.c **** 
 649              		.loc 1 169 3 is_stmt 1 view .LVU188
 169:Core/Src/main.c **** 
 650              		.loc 1 169 28 is_stmt 0 view .LVU189
 651 001e 5022     		movs	r2, #80
 652 0020 2146     		mov	r1, r4
 653 0022 01A8     		add	r0, sp, #4
 654 0024 FFF7FEFF 		bl	memset
 655              	.LVL41:
 173:Core/Src/main.c ****   /** Initializes the RCC Oscillators according to the specified parameters
 656              		.loc 1 173 3 is_stmt 1 view .LVU190
 657              	.LBB25:
 173:Core/Src/main.c ****   /** Initializes the RCC Oscillators according to the specified parameters
 658              		.loc 1 173 3 view .LVU191
 173:Core/Src/main.c ****   /** Initializes the RCC Oscillators according to the specified parameters
 659              		.loc 1 173 3 view .LVU192
 660 0028 1E4A     		ldr	r2, .L45
 661 002a 1368     		ldr	r3, [r2]
 662 002c 23F4C063 		bic	r3, r3, #1536
 663 0030 43F40073 		orr	r3, r3, #512
 664 0034 1360     		str	r3, [r2]
 173:Core/Src/main.c ****   /** Initializes the RCC Oscillators according to the specified parameters
 665              		.loc 1 173 3 view .LVU193
 666 0036 1368     		ldr	r3, [r2]
 667 0038 03F4C063 		and	r3, r3, #1536
 668 003c 0093     		str	r3, [sp]
 173:Core/Src/main.c ****   /** Initializes the RCC Oscillators according to the specified parameters
 669              		.loc 1 173 3 view .LVU194
 670 003e 009B     		ldr	r3, [sp]
 671              	.LBE25:
 177:Core/Src/main.c ****   RCC_OscInitStruct.HSIState = RCC_HSI_ON;
 672              		.loc 1 177 3 view .LVU195
 177:Core/Src/main.c ****   RCC_OscInitStruct.HSIState = RCC_HSI_ON;
 673              		.loc 1 177 36 is_stmt 0 view .LVU196
ARM GAS  /tmp/ccsJv4yF.s 			page 34


 674 0040 2223     		movs	r3, #34
 675 0042 1C93     		str	r3, [sp, #112]
 178:Core/Src/main.c ****   RCC_OscInitStruct.MSIState = RCC_MSI_ON;
 676              		.loc 1 178 3 is_stmt 1 view .LVU197
 178:Core/Src/main.c ****   RCC_OscInitStruct.MSIState = RCC_MSI_ON;
 677              		.loc 1 178 30 is_stmt 0 view .LVU198
 678 0044 4FF48073 		mov	r3, #256
 679 0048 1F93     		str	r3, [sp, #124]
 179:Core/Src/main.c ****   RCC_OscInitStruct.HSICalibrationValue = RCC_HSICALIBRATION_DEFAULT;
 680              		.loc 1 179 3 is_stmt 1 view .LVU199
 179:Core/Src/main.c ****   RCC_OscInitStruct.HSICalibrationValue = RCC_HSICALIBRATION_DEFAULT;
 681              		.loc 1 179 30 is_stmt 0 view .LVU200
 682 004a 0123     		movs	r3, #1
 683 004c 2393     		str	r3, [sp, #140]
 180:Core/Src/main.c ****   RCC_OscInitStruct.MSICalibrationValue = RCC_MSICALIBRATION_DEFAULT;
 684              		.loc 1 180 3 is_stmt 1 view .LVU201
 180:Core/Src/main.c ****   RCC_OscInitStruct.MSICalibrationValue = RCC_MSICALIBRATION_DEFAULT;
 685              		.loc 1 180 41 is_stmt 0 view .LVU202
 686 004e 4023     		movs	r3, #64
 687 0050 2093     		str	r3, [sp, #128]
 181:Core/Src/main.c ****   RCC_OscInitStruct.MSIClockRange = RCC_MSIRANGE_10;
 688              		.loc 1 181 3 is_stmt 1 view .LVU203
 181:Core/Src/main.c ****   RCC_OscInitStruct.MSIClockRange = RCC_MSIRANGE_10;
 689              		.loc 1 181 41 is_stmt 0 view .LVU204
 690 0052 2494     		str	r4, [sp, #144]
 182:Core/Src/main.c ****   RCC_OscInitStruct.PLL.PLLState = RCC_PLL_NONE;
 691              		.loc 1 182 3 is_stmt 1 view .LVU205
 182:Core/Src/main.c ****   RCC_OscInitStruct.PLL.PLLState = RCC_PLL_NONE;
 692              		.loc 1 182 35 is_stmt 0 view .LVU206
 693 0054 A023     		movs	r3, #160
 694 0056 2593     		str	r3, [sp, #148]
 183:Core/Src/main.c ****   if (HAL_RCC_OscConfig(&RCC_OscInitStruct) != HAL_OK)
 695              		.loc 1 183 3 is_stmt 1 view .LVU207
 183:Core/Src/main.c ****   if (HAL_RCC_OscConfig(&RCC_OscInitStruct) != HAL_OK)
 696              		.loc 1 183 34 is_stmt 0 view .LVU208
 697 0058 2794     		str	r4, [sp, #156]
 184:Core/Src/main.c ****   {
 698              		.loc 1 184 3 is_stmt 1 view .LVU209
 184:Core/Src/main.c ****   {
 699              		.loc 1 184 7 is_stmt 0 view .LVU210
 700 005a 1CA8     		add	r0, sp, #112
 701 005c FFF7FEFF 		bl	HAL_RCC_OscConfig
 702              	.LVL42:
 184:Core/Src/main.c ****   {
 703              		.loc 1 184 6 view .LVU211
 704 0060 D0B9     		cbnz	r0, .L42
 190:Core/Src/main.c ****                               |RCC_CLOCKTYPE_HCLK|RCC_CLOCKTYPE_SYSCLK
 705              		.loc 1 190 3 is_stmt 1 view .LVU212
 190:Core/Src/main.c ****                               |RCC_CLOCKTYPE_HCLK|RCC_CLOCKTYPE_SYSCLK
 706              		.loc 1 190 31 is_stmt 0 view .LVU213
 707 0062 6F23     		movs	r3, #111
 708 0064 1593     		str	r3, [sp, #84]
 193:Core/Src/main.c ****   RCC_ClkInitStruct.AHBCLKDivider = RCC_SYSCLK_DIV1;
 709              		.loc 1 193 3 is_stmt 1 view .LVU214
 193:Core/Src/main.c ****   RCC_ClkInitStruct.AHBCLKDivider = RCC_SYSCLK_DIV1;
 710              		.loc 1 193 34 is_stmt 0 view .LVU215
 711 0066 0023     		movs	r3, #0
ARM GAS  /tmp/ccsJv4yF.s 			page 35


 712 0068 1693     		str	r3, [sp, #88]
 194:Core/Src/main.c ****   RCC_ClkInitStruct.APB1CLKDivider = RCC_HCLK_DIV1;
 713              		.loc 1 194 3 is_stmt 1 view .LVU216
 194:Core/Src/main.c ****   RCC_ClkInitStruct.APB1CLKDivider = RCC_HCLK_DIV1;
 714              		.loc 1 194 35 is_stmt 0 view .LVU217
 715 006a 1793     		str	r3, [sp, #92]
 195:Core/Src/main.c ****   RCC_ClkInitStruct.APB2CLKDivider = RCC_HCLK_DIV1;
 716              		.loc 1 195 3 is_stmt 1 view .LVU218
 195:Core/Src/main.c ****   RCC_ClkInitStruct.APB2CLKDivider = RCC_HCLK_DIV1;
 717              		.loc 1 195 36 is_stmt 0 view .LVU219
 718 006c 1893     		str	r3, [sp, #96]
 196:Core/Src/main.c ****   RCC_ClkInitStruct.AHBCLK2Divider = RCC_SYSCLK_DIV1;
 719              		.loc 1 196 3 is_stmt 1 view .LVU220
 196:Core/Src/main.c ****   RCC_ClkInitStruct.AHBCLK2Divider = RCC_SYSCLK_DIV1;
 720              		.loc 1 196 36 is_stmt 0 view .LVU221
 721 006e 1993     		str	r3, [sp, #100]
 197:Core/Src/main.c ****   RCC_ClkInitStruct.AHBCLK4Divider = RCC_SYSCLK_DIV1;
 722              		.loc 1 197 3 is_stmt 1 view .LVU222
 197:Core/Src/main.c ****   RCC_ClkInitStruct.AHBCLK4Divider = RCC_SYSCLK_DIV1;
 723              		.loc 1 197 36 is_stmt 0 view .LVU223
 724 0070 1A93     		str	r3, [sp, #104]
 198:Core/Src/main.c **** 
 725              		.loc 1 198 3 is_stmt 1 view .LVU224
 198:Core/Src/main.c **** 
 726              		.loc 1 198 36 is_stmt 0 view .LVU225
 727 0072 1B93     		str	r3, [sp, #108]
 200:Core/Src/main.c ****   {
 728              		.loc 1 200 3 is_stmt 1 view .LVU226
 200:Core/Src/main.c ****   {
 729              		.loc 1 200 7 is_stmt 0 view .LVU227
 730 0074 0121     		movs	r1, #1
 731 0076 15A8     		add	r0, sp, #84
 732 0078 FFF7FEFF 		bl	HAL_RCC_ClockConfig
 733              	.LVL43:
 200:Core/Src/main.c ****   {
 734              		.loc 1 200 6 view .LVU228
 735 007c 70B9     		cbnz	r0, .L43
 206:Core/Src/main.c ****   PeriphClkInitStruct.Usart1ClockSelection = RCC_USART1CLKSOURCE_PCLK2;
 736              		.loc 1 206 3 is_stmt 1 view .LVU229
 206:Core/Src/main.c ****   PeriphClkInitStruct.Usart1ClockSelection = RCC_USART1CLKSOURCE_PCLK2;
 737              		.loc 1 206 44 is_stmt 0 view .LVU230
 738 007e 42F20103 		movw	r3, #8193
 739 0082 0193     		str	r3, [sp, #4]
 207:Core/Src/main.c ****   PeriphClkInitStruct.SmpsClockSelection = RCC_SMPSCLKSOURCE_HSI;
 740              		.loc 1 207 3 is_stmt 1 view .LVU231
 207:Core/Src/main.c ****   PeriphClkInitStruct.SmpsClockSelection = RCC_SMPSCLKSOURCE_HSI;
 741              		.loc 1 207 44 is_stmt 0 view .LVU232
 742 0084 0023     		movs	r3, #0
 743 0086 0793     		str	r3, [sp, #28]
 208:Core/Src/main.c ****   PeriphClkInitStruct.SmpsDivSelection = RCC_SMPSCLKDIV_RANGE0;
 744              		.loc 1 208 3 is_stmt 1 view .LVU233
 208:Core/Src/main.c ****   PeriphClkInitStruct.SmpsDivSelection = RCC_SMPSCLKDIV_RANGE0;
 745              		.loc 1 208 42 is_stmt 0 view .LVU234
 746 0088 1393     		str	r3, [sp, #76]
 209:Core/Src/main.c ****   if (HAL_RCCEx_PeriphCLKConfig(&PeriphClkInitStruct) != HAL_OK)
 747              		.loc 1 209 3 is_stmt 1 view .LVU235
 209:Core/Src/main.c ****   if (HAL_RCCEx_PeriphCLKConfig(&PeriphClkInitStruct) != HAL_OK)
ARM GAS  /tmp/ccsJv4yF.s 			page 36


 748              		.loc 1 209 40 is_stmt 0 view .LVU236
 749 008a 1493     		str	r3, [sp, #80]
 210:Core/Src/main.c ****   {
 750              		.loc 1 210 3 is_stmt 1 view .LVU237
 210:Core/Src/main.c ****   {
 751              		.loc 1 210 7 is_stmt 0 view .LVU238
 752 008c 01A8     		add	r0, sp, #4
 753 008e FFF7FEFF 		bl	HAL_RCCEx_PeriphCLKConfig
 754              	.LVL44:
 210:Core/Src/main.c ****   {
 755              		.loc 1 210 6 view .LVU239
 756 0092 28B9     		cbnz	r0, .L44
 217:Core/Src/main.c **** 
 757              		.loc 1 217 1 view .LVU240
 758 0094 2EB0     		add	sp, sp, #184
 759              	.LCFI9:
 760              		.cfi_remember_state
 761              		.cfi_def_cfa_offset 8
 762              		@ sp needed
 763 0096 10BD     		pop	{r4, pc}
 764              	.L42:
 765              	.LCFI10:
 766              		.cfi_restore_state
 186:Core/Src/main.c ****   }
 767              		.loc 1 186 5 is_stmt 1 view .LVU241
 768 0098 FFF7FEFF 		bl	Error_Handler
 769              	.LVL45:
 770              	.L43:
 202:Core/Src/main.c ****   }
 771              		.loc 1 202 5 view .LVU242
 772 009c FFF7FEFF 		bl	Error_Handler
 773              	.LVL46:
 774              	.L44:
 212:Core/Src/main.c ****   }
 775              		.loc 1 212 5 view .LVU243
 776 00a0 FFF7FEFF 		bl	Error_Handler
 777              	.LVL47:
 778              	.L46:
 779              		.align	2
 780              	.L45:
 781 00a4 00040058 		.word	1476396032
 782              		.cfi_endproc
 783              	.LFE954:
 785              		.section	.text.main,"ax",%progbits
 786              		.align	1
 787              		.global	main
 788              		.syntax unified
 789              		.thumb
 790              		.thumb_func
 791              		.fpu fpv4-sp-d16
 793              	main:
 794              	.LFB953:
  84:Core/Src/main.c ****   
 795              		.loc 1 84 1 view -0
 796              		.cfi_startproc
 797              		@ Volatile: function does not return.
 798              		@ args = 0, pretend = 0, frame = 0
ARM GAS  /tmp/ccsJv4yF.s 			page 37


 799              		@ frame_needed = 0, uses_anonymous_args = 0
 800 0000 08B5     		push	{r3, lr}
 801              	.LCFI11:
 802              		.cfi_def_cfa_offset 8
 803              		.cfi_offset 3, -8
 804              		.cfi_offset 14, -4
  93:Core/Src/main.c **** 
 805              		.loc 1 93 3 view .LVU245
 806 0002 FFF7FEFF 		bl	HAL_Init
 807              	.LVL48:
 100:Core/Src/main.c **** 
 808              		.loc 1 100 3 view .LVU246
 809 0006 FFF7FEFF 		bl	SystemClock_Config
 810              	.LVL49:
 107:Core/Src/main.c ****   MX_USART1_UART_Init();
 811              		.loc 1 107 3 view .LVU247
 812 000a FFF7FEFF 		bl	MX_GPIO_Init
 813              	.LVL50:
 108:Core/Src/main.c ****   /* USER CODE BEGIN 2 */
 814              		.loc 1 108 3 view .LVU248
 815 000e FFF7FEFF 		bl	MX_USART1_UART_Init
 816              	.LVL51:
 110:Core/Src/main.c **** 
 817              		.loc 1 110 3 view .LVU249
 818 0012 0748     		ldr	r0, .L50
 819 0014 FFF7FEFF 		bl	RetargetInit
 820              	.LVL52:
 115:Core/Src/main.c **** 
 821              		.loc 1 115 3 view .LVU250
 822 0018 FFF7FEFF 		bl	osKernelInitialize
 823              	.LVL53:
 135:Core/Src/main.c **** 
 824              		.loc 1 135 3 view .LVU251
 135:Core/Src/main.c **** 
 825              		.loc 1 135 23 is_stmt 0 view .LVU252
 826 001c 054A     		ldr	r2, .L50+4
 827 001e 0021     		movs	r1, #0
 828 0020 0548     		ldr	r0, .L50+8
 829 0022 FFF7FEFF 		bl	osThreadNew
 830              	.LVL54:
 135:Core/Src/main.c **** 
 831              		.loc 1 135 21 view .LVU253
 832 0026 054B     		ldr	r3, .L50+12
 833 0028 1860     		str	r0, [r3]
 146:Core/Src/main.c **** 
 834              		.loc 1 146 3 is_stmt 1 view .LVU254
 835 002a FFF7FEFF 		bl	osKernelStart
 836              	.LVL55:
 837              	.L48:
 151:Core/Src/main.c ****   {
 838              		.loc 1 151 3 discriminator 1 view .LVU255
 157:Core/Src/main.c ****   /* USER CODE END 3 */
 839              		.loc 1 157 3 discriminator 1 view .LVU256
 840 002e FEE7     		b	.L48
 841              	.L51:
 842              		.align	2
 843              	.L50:
ARM GAS  /tmp/ccsJv4yF.s 			page 38


 844 0030 00000000 		.word	huart1
 845 0034 00000000 		.word	.LANCHOR0
 846 0038 00000000 		.word	StartDefaultTask
 847 003c 00000000 		.word	defaultTaskHandle
 848              		.cfi_endproc
 849              	.LFE953:
 851              		.global	defaultTask_attributes
 852              		.comm	defaultTaskHandle,4,4
 853              		.comm	huart1,144,4
 854              		.section	.rodata.StartDefaultTask.str1.4,"aMS",%progbits,1
 855              		.align	2
 856              	.LC0:
 857 0000 00       		.ascii	"\000"
 858 0001 000000   		.space	3
 859              	.LC1:
 860 0004 0A00     		.ascii	"\012\000"
 861 0006 0000     		.space	2
 862              	.LC2:
 863 0008 62727568 		.ascii	"bruh\000"
 863      00
 864 000d 000000   		.space	3
 865              	.LC3:
 866 0010 25303278 		.ascii	"%02x\000"
 866      00
 867 0015 000000   		.space	3
 868              	.LC4:
 869 0018 25303278 		.ascii	"%02x%s\000"
 869      257300
 870              		.section	.rodata.defaultTask_attributes,"a"
 871              		.align	2
 872              		.set	.LANCHOR0,. + 0
 875              	defaultTask_attributes:
 876 0000 00000000 		.word	.LC5
 877 0004 00000000 		.space	16
 877      00000000 
 877      00000000 
 877      00000000 
 878 0014 00020000 		.word	512
 879 0018 18000000 		.word	24
 880 001c 00000000 		.space	8
 880      00000000 
 881              		.section	.rodata.str1.4,"aMS",%progbits,1
 882              		.align	2
 883              	.LC5:
 884 0000 64656661 		.ascii	"defaultTask\000"
 884      756C7454 
 884      61736B00 
 885              		.text
 886              	.Letext0:
 887              		.file 4 "/usr/lib/gcc/arm-none-eabi/8.3.1/include/stdint.h"
 888              		.file 5 "Drivers/CMSIS/Include/core_cm4.h"
 889              		.file 6 "Drivers/CMSIS/Device/ST/STM32WBxx/Include/system_stm32wbxx.h"
 890              		.file 7 "Drivers/CMSIS/Device/ST/STM32WBxx/Include/stm32wb55xx.h"
 891              		.file 8 "Drivers/STM32WBxx_HAL_Driver/Inc/stm32wbxx_hal_def.h"
 892              		.file 9 "Drivers/STM32WBxx_HAL_Driver/Inc/stm32wbxx_hal_dma.h"
 893              		.file 10 "Drivers/STM32WBxx_HAL_Driver/Inc/stm32wbxx_hal_flash.h"
 894              		.file 11 "Drivers/STM32WBxx_HAL_Driver/Inc/stm32wbxx_hal_gpio.h"
ARM GAS  /tmp/ccsJv4yF.s 			page 39


 895              		.file 12 "Drivers/STM32WBxx_HAL_Driver/Inc/stm32wbxx_hal_rcc.h"
 896              		.file 13 "Drivers/STM32WBxx_HAL_Driver/Inc/stm32wbxx_hal_rcc_ex.h"
 897              		.file 14 "Drivers/STM32WBxx_HAL_Driver/Inc/stm32wbxx_hal_tim.h"
 898              		.file 15 "Drivers/STM32WBxx_HAL_Driver/Inc/stm32wbxx_hal_uart.h"
 899              		.file 16 "Drivers/STM32WBxx_HAL_Driver/Inc/stm32wbxx_hal.h"
 900              		.file 17 "Middlewares/Third_Party/FreeRTOS/Source/CMSIS_RTOS_V2/cmsis_os2.h"
 901              		.file 18 "/usr/lib/gcc/arm-none-eabi/8.3.1/include/stddef.h"
 902              		.file 19 "/usr/include/newlib/sys/_types.h"
 903              		.file 20 "/usr/include/newlib/sys/reent.h"
 904              		.file 21 "/usr/include/newlib/sys/lock.h"
 905              		.file 22 "/usr/include/newlib/time.h"
 906              		.file 23 "/usr/include/newlib/stdlib.h"
 907              		.file 24 "Core/Inc/structures.h"
 908              		.file 25 "Core/Inc/secp256k1.h"
 909              		.file 26 "/usr/include/newlib/stdio.h"
 910              		.file 27 "Core/Inc/sha256.h"
 911              		.file 28 "Drivers/STM32WBxx_HAL_Driver/Inc/stm32wbxx_hal_uart_ex.h"
 912              		.file 29 "<built-in>"
 913              		.file 30 "Core/Inc/retarget.h"
ARM GAS  /tmp/ccsJv4yF.s 			page 40

