ARM GAS  /tmp/cczZhyqe.s 			page 1


   1              		.cpu cortex-m4
   2              		.eabi_attribute 27, 1
   3              		.eabi_attribute 28, 1
   4              		.eabi_attribute 20, 1
   5              		.eabi_attribute 21, 1
   6              		.eabi_attribute 23, 3
   7              		.eabi_attribute 24, 1
   8              		.eabi_attribute 25, 1
   9              		.eabi_attribute 26, 1
  10              		.eabi_attribute 30, 1
  11              		.eabi_attribute 34, 1
  12              		.eabi_attribute 18, 4
  13              		.file	"stm32wbxx_hal_pwr.c"
  14              		.text
  15              	.Ltext0:
  16              		.cfi_sections	.debug_frame
  17              		.section	.text.HAL_PWR_DeInit,"ax",%progbits
  18              		.align	1
  19              		.global	HAL_PWR_DeInit
  20              		.arch armv7e-m
  21              		.syntax unified
  22              		.thumb
  23              		.thumb_func
  24              		.fpu fpv4-sp-d16
  26              	HAL_PWR_DeInit:
  27              	.LFB943:
  28              		.file 1 "Drivers/STM32WBxx_HAL_Driver/Src/stm32wbxx_hal_pwr.c"
   1:Drivers/STM32WBxx_HAL_Driver/Src/stm32wbxx_hal_pwr.c **** /**
   2:Drivers/STM32WBxx_HAL_Driver/Src/stm32wbxx_hal_pwr.c ****   ******************************************************************************
   3:Drivers/STM32WBxx_HAL_Driver/Src/stm32wbxx_hal_pwr.c ****   * @file    stm32wbxx_hal_pwr.c
   4:Drivers/STM32WBxx_HAL_Driver/Src/stm32wbxx_hal_pwr.c ****   * @author  MCD Application Team
   5:Drivers/STM32WBxx_HAL_Driver/Src/stm32wbxx_hal_pwr.c ****   * @brief   PWR HAL module driver.
   6:Drivers/STM32WBxx_HAL_Driver/Src/stm32wbxx_hal_pwr.c ****   *          This file provides firmware functions to manage the following
   7:Drivers/STM32WBxx_HAL_Driver/Src/stm32wbxx_hal_pwr.c ****   *          functionalities of the Power Controller (PWR) peripheral:
   8:Drivers/STM32WBxx_HAL_Driver/Src/stm32wbxx_hal_pwr.c ****   *           + Initialization/de-initialization functions
   9:Drivers/STM32WBxx_HAL_Driver/Src/stm32wbxx_hal_pwr.c ****   *           + Peripheral Control functions
  10:Drivers/STM32WBxx_HAL_Driver/Src/stm32wbxx_hal_pwr.c ****   *
  11:Drivers/STM32WBxx_HAL_Driver/Src/stm32wbxx_hal_pwr.c ****   ******************************************************************************
  12:Drivers/STM32WBxx_HAL_Driver/Src/stm32wbxx_hal_pwr.c ****   * @attention
  13:Drivers/STM32WBxx_HAL_Driver/Src/stm32wbxx_hal_pwr.c ****   *
  14:Drivers/STM32WBxx_HAL_Driver/Src/stm32wbxx_hal_pwr.c ****   * <h2><center>&copy; Copyright (c) 2019 STMicroelectronics. 
  15:Drivers/STM32WBxx_HAL_Driver/Src/stm32wbxx_hal_pwr.c ****   * All rights reserved.</center></h2>
  16:Drivers/STM32WBxx_HAL_Driver/Src/stm32wbxx_hal_pwr.c ****   *
  17:Drivers/STM32WBxx_HAL_Driver/Src/stm32wbxx_hal_pwr.c ****   * This software component is licensed by ST under BSD 3-Clause license,
  18:Drivers/STM32WBxx_HAL_Driver/Src/stm32wbxx_hal_pwr.c ****   * the "License"; You may not use this file except in compliance with the 
  19:Drivers/STM32WBxx_HAL_Driver/Src/stm32wbxx_hal_pwr.c ****   * License. You may obtain a copy of the License at:
  20:Drivers/STM32WBxx_HAL_Driver/Src/stm32wbxx_hal_pwr.c ****   *                        opensource.org/licenses/BSD-3-Clause
  21:Drivers/STM32WBxx_HAL_Driver/Src/stm32wbxx_hal_pwr.c ****   *
  22:Drivers/STM32WBxx_HAL_Driver/Src/stm32wbxx_hal_pwr.c ****   ******************************************************************************
  23:Drivers/STM32WBxx_HAL_Driver/Src/stm32wbxx_hal_pwr.c ****   */
  24:Drivers/STM32WBxx_HAL_Driver/Src/stm32wbxx_hal_pwr.c **** 
  25:Drivers/STM32WBxx_HAL_Driver/Src/stm32wbxx_hal_pwr.c **** /* Includes ------------------------------------------------------------------*/
  26:Drivers/STM32WBxx_HAL_Driver/Src/stm32wbxx_hal_pwr.c **** #include "stm32wbxx_hal.h"
  27:Drivers/STM32WBxx_HAL_Driver/Src/stm32wbxx_hal_pwr.c **** 
  28:Drivers/STM32WBxx_HAL_Driver/Src/stm32wbxx_hal_pwr.c **** /** @addtogroup STM32WBxx_HAL_Driver
  29:Drivers/STM32WBxx_HAL_Driver/Src/stm32wbxx_hal_pwr.c ****   * @{
  30:Drivers/STM32WBxx_HAL_Driver/Src/stm32wbxx_hal_pwr.c ****   */
ARM GAS  /tmp/cczZhyqe.s 			page 2


  31:Drivers/STM32WBxx_HAL_Driver/Src/stm32wbxx_hal_pwr.c **** 
  32:Drivers/STM32WBxx_HAL_Driver/Src/stm32wbxx_hal_pwr.c **** /** @addtogroup PWR
  33:Drivers/STM32WBxx_HAL_Driver/Src/stm32wbxx_hal_pwr.c ****   * @{
  34:Drivers/STM32WBxx_HAL_Driver/Src/stm32wbxx_hal_pwr.c ****   */
  35:Drivers/STM32WBxx_HAL_Driver/Src/stm32wbxx_hal_pwr.c **** 
  36:Drivers/STM32WBxx_HAL_Driver/Src/stm32wbxx_hal_pwr.c **** #ifdef HAL_PWR_MODULE_ENABLED
  37:Drivers/STM32WBxx_HAL_Driver/Src/stm32wbxx_hal_pwr.c **** 
  38:Drivers/STM32WBxx_HAL_Driver/Src/stm32wbxx_hal_pwr.c **** /* Private typedef -----------------------------------------------------------*/
  39:Drivers/STM32WBxx_HAL_Driver/Src/stm32wbxx_hal_pwr.c **** /* Private define ------------------------------------------------------------*/ 
  40:Drivers/STM32WBxx_HAL_Driver/Src/stm32wbxx_hal_pwr.c **** /* Private macro -------------------------------------------------------------*/
  41:Drivers/STM32WBxx_HAL_Driver/Src/stm32wbxx_hal_pwr.c **** /* Private variables ---------------------------------------------------------*/
  42:Drivers/STM32WBxx_HAL_Driver/Src/stm32wbxx_hal_pwr.c **** /* Private constants ---------------------------------------------------------*/
  43:Drivers/STM32WBxx_HAL_Driver/Src/stm32wbxx_hal_pwr.c **** /** @addtogroup PWR_Private_Defines
  44:Drivers/STM32WBxx_HAL_Driver/Src/stm32wbxx_hal_pwr.c ****   * @{
  45:Drivers/STM32WBxx_HAL_Driver/Src/stm32wbxx_hal_pwr.c ****   */
  46:Drivers/STM32WBxx_HAL_Driver/Src/stm32wbxx_hal_pwr.c **** 
  47:Drivers/STM32WBxx_HAL_Driver/Src/stm32wbxx_hal_pwr.c **** /** @defgroup PWR_Register_Reset_Values  PWR Register Reset Values
  48:Drivers/STM32WBxx_HAL_Driver/Src/stm32wbxx_hal_pwr.c ****   * @{
  49:Drivers/STM32WBxx_HAL_Driver/Src/stm32wbxx_hal_pwr.c ****   */
  50:Drivers/STM32WBxx_HAL_Driver/Src/stm32wbxx_hal_pwr.c **** /* Definitions of PWR registers reset value */
  51:Drivers/STM32WBxx_HAL_Driver/Src/stm32wbxx_hal_pwr.c **** #define PWR_CR1_RESET_VALUE   (0x00000200U)
  52:Drivers/STM32WBxx_HAL_Driver/Src/stm32wbxx_hal_pwr.c **** #define PWR_CR2_RESET_VALUE   (0x00000000U)
  53:Drivers/STM32WBxx_HAL_Driver/Src/stm32wbxx_hal_pwr.c **** #define PWR_CR3_RESET_VALUE   (0x00008000U)
  54:Drivers/STM32WBxx_HAL_Driver/Src/stm32wbxx_hal_pwr.c **** #define PWR_CR4_RESET_VALUE   (0x00000000U)
  55:Drivers/STM32WBxx_HAL_Driver/Src/stm32wbxx_hal_pwr.c **** #define PWR_CR5_RESET_VALUE   (0x00004204U)
  56:Drivers/STM32WBxx_HAL_Driver/Src/stm32wbxx_hal_pwr.c **** #define PWR_PUCRA_RESET_VALUE (0x00000000U)
  57:Drivers/STM32WBxx_HAL_Driver/Src/stm32wbxx_hal_pwr.c **** #define PWR_PDCRA_RESET_VALUE (0x00000000U)
  58:Drivers/STM32WBxx_HAL_Driver/Src/stm32wbxx_hal_pwr.c **** #define PWR_PUCRB_RESET_VALUE (0x00000000U)
  59:Drivers/STM32WBxx_HAL_Driver/Src/stm32wbxx_hal_pwr.c **** #define PWR_PDCRB_RESET_VALUE (0x00000000U)
  60:Drivers/STM32WBxx_HAL_Driver/Src/stm32wbxx_hal_pwr.c **** #define PWR_PUCRC_RESET_VALUE (0x00000000U)
  61:Drivers/STM32WBxx_HAL_Driver/Src/stm32wbxx_hal_pwr.c **** #define PWR_PDCRC_RESET_VALUE (0x00000000U)
  62:Drivers/STM32WBxx_HAL_Driver/Src/stm32wbxx_hal_pwr.c **** #define PWR_PUCRD_RESET_VALUE (0x00000000U)
  63:Drivers/STM32WBxx_HAL_Driver/Src/stm32wbxx_hal_pwr.c **** #define PWR_PDCRD_RESET_VALUE (0x00000000U)
  64:Drivers/STM32WBxx_HAL_Driver/Src/stm32wbxx_hal_pwr.c **** #define PWR_PUCRE_RESET_VALUE (0x00000000U)
  65:Drivers/STM32WBxx_HAL_Driver/Src/stm32wbxx_hal_pwr.c **** #define PWR_PDCRE_RESET_VALUE (0x00000000U)
  66:Drivers/STM32WBxx_HAL_Driver/Src/stm32wbxx_hal_pwr.c **** #define PWR_PUCRH_RESET_VALUE (0x00000000U)
  67:Drivers/STM32WBxx_HAL_Driver/Src/stm32wbxx_hal_pwr.c **** #define PWR_PDCRH_RESET_VALUE (0x00000000U)
  68:Drivers/STM32WBxx_HAL_Driver/Src/stm32wbxx_hal_pwr.c **** #define PWR_C2CR1_RESET_VALUE (0x00000000U)
  69:Drivers/STM32WBxx_HAL_Driver/Src/stm32wbxx_hal_pwr.c **** #define PWR_C2CR3_RESET_VALUE (0x00008000U)
  70:Drivers/STM32WBxx_HAL_Driver/Src/stm32wbxx_hal_pwr.c **** /**
  71:Drivers/STM32WBxx_HAL_Driver/Src/stm32wbxx_hal_pwr.c ****   * @}
  72:Drivers/STM32WBxx_HAL_Driver/Src/stm32wbxx_hal_pwr.c ****   */
  73:Drivers/STM32WBxx_HAL_Driver/Src/stm32wbxx_hal_pwr.c **** 
  74:Drivers/STM32WBxx_HAL_Driver/Src/stm32wbxx_hal_pwr.c ****  /**
  75:Drivers/STM32WBxx_HAL_Driver/Src/stm32wbxx_hal_pwr.c ****   * @}
  76:Drivers/STM32WBxx_HAL_Driver/Src/stm32wbxx_hal_pwr.c ****   */
  77:Drivers/STM32WBxx_HAL_Driver/Src/stm32wbxx_hal_pwr.c **** 
  78:Drivers/STM32WBxx_HAL_Driver/Src/stm32wbxx_hal_pwr.c **** /* Private function prototypes -----------------------------------------------*/
  79:Drivers/STM32WBxx_HAL_Driver/Src/stm32wbxx_hal_pwr.c **** /* Exported functions --------------------------------------------------------*/
  80:Drivers/STM32WBxx_HAL_Driver/Src/stm32wbxx_hal_pwr.c **** /** @addtogroup PWR_Exported_Functions  PWR Exported Functions
  81:Drivers/STM32WBxx_HAL_Driver/Src/stm32wbxx_hal_pwr.c ****   * @{
  82:Drivers/STM32WBxx_HAL_Driver/Src/stm32wbxx_hal_pwr.c ****   */
  83:Drivers/STM32WBxx_HAL_Driver/Src/stm32wbxx_hal_pwr.c **** 
  84:Drivers/STM32WBxx_HAL_Driver/Src/stm32wbxx_hal_pwr.c **** /** @addtogroup PWR_Exported_Functions_Group1  Initialization and de-initialization functions
  85:Drivers/STM32WBxx_HAL_Driver/Src/stm32wbxx_hal_pwr.c ****   * @brief  Initialization and de-initialization functions
  86:Drivers/STM32WBxx_HAL_Driver/Src/stm32wbxx_hal_pwr.c ****   *
  87:Drivers/STM32WBxx_HAL_Driver/Src/stm32wbxx_hal_pwr.c **** @verbatim
ARM GAS  /tmp/cczZhyqe.s 			page 3


  88:Drivers/STM32WBxx_HAL_Driver/Src/stm32wbxx_hal_pwr.c ****  ===============================================================================
  89:Drivers/STM32WBxx_HAL_Driver/Src/stm32wbxx_hal_pwr.c ****               ##### Initialization and de-initialization functions #####
  90:Drivers/STM32WBxx_HAL_Driver/Src/stm32wbxx_hal_pwr.c ****  ===============================================================================
  91:Drivers/STM32WBxx_HAL_Driver/Src/stm32wbxx_hal_pwr.c ****     [..]
  92:Drivers/STM32WBxx_HAL_Driver/Src/stm32wbxx_hal_pwr.c **** 
  93:Drivers/STM32WBxx_HAL_Driver/Src/stm32wbxx_hal_pwr.c **** @endverbatim
  94:Drivers/STM32WBxx_HAL_Driver/Src/stm32wbxx_hal_pwr.c ****   * @{
  95:Drivers/STM32WBxx_HAL_Driver/Src/stm32wbxx_hal_pwr.c ****   */
  96:Drivers/STM32WBxx_HAL_Driver/Src/stm32wbxx_hal_pwr.c **** 
  97:Drivers/STM32WBxx_HAL_Driver/Src/stm32wbxx_hal_pwr.c **** /**
  98:Drivers/STM32WBxx_HAL_Driver/Src/stm32wbxx_hal_pwr.c ****   * @brief  Deinitialize the HAL PWR peripheral registers to their default reset values.
  99:Drivers/STM32WBxx_HAL_Driver/Src/stm32wbxx_hal_pwr.c ****   * @retval None
 100:Drivers/STM32WBxx_HAL_Driver/Src/stm32wbxx_hal_pwr.c ****   */
 101:Drivers/STM32WBxx_HAL_Driver/Src/stm32wbxx_hal_pwr.c **** void HAL_PWR_DeInit(void)
 102:Drivers/STM32WBxx_HAL_Driver/Src/stm32wbxx_hal_pwr.c **** {
  29              		.loc 1 102 1 view -0
  30              		.cfi_startproc
  31              		@ args = 0, pretend = 0, frame = 0
  32              		@ frame_needed = 0, uses_anonymous_args = 0
  33              		@ link register save eliminated.
 103:Drivers/STM32WBxx_HAL_Driver/Src/stm32wbxx_hal_pwr.c ****   /* Apply reset values to all PWR registers */
 104:Drivers/STM32WBxx_HAL_Driver/Src/stm32wbxx_hal_pwr.c ****   /* Note: Update of each register required since PWR global reset is not     */
 105:Drivers/STM32WBxx_HAL_Driver/Src/stm32wbxx_hal_pwr.c ****   /*       available at RCC level on this STM32 serie.                        */
 106:Drivers/STM32WBxx_HAL_Driver/Src/stm32wbxx_hal_pwr.c ****   LL_PWR_WriteReg(CR1, PWR_CR1_RESET_VALUE);
  34              		.loc 1 106 3 view .LVU1
  35 0000 114B     		ldr	r3, .L2
  36 0002 4FF40072 		mov	r2, #512
  37 0006 1A60     		str	r2, [r3]
 107:Drivers/STM32WBxx_HAL_Driver/Src/stm32wbxx_hal_pwr.c ****   LL_PWR_WriteReg(CR2, PWR_CR2_RESET_VALUE);
  38              		.loc 1 107 3 view .LVU2
  39 0008 0022     		movs	r2, #0
  40 000a 5A60     		str	r2, [r3, #4]
 108:Drivers/STM32WBxx_HAL_Driver/Src/stm32wbxx_hal_pwr.c ****   LL_PWR_WriteReg(CR3, PWR_CR3_RESET_VALUE);
  41              		.loc 1 108 3 view .LVU3
  42 000c 4FF40041 		mov	r1, #32768
  43 0010 9960     		str	r1, [r3, #8]
 109:Drivers/STM32WBxx_HAL_Driver/Src/stm32wbxx_hal_pwr.c ****   LL_PWR_WriteReg(CR4, PWR_CR4_RESET_VALUE);
  44              		.loc 1 109 3 view .LVU4
  45 0012 DA60     		str	r2, [r3, #12]
 110:Drivers/STM32WBxx_HAL_Driver/Src/stm32wbxx_hal_pwr.c ****   LL_PWR_WriteReg(CR5, PWR_CR5_RESET_VALUE);
  46              		.loc 1 110 3 view .LVU5
  47 0014 44F20420 		movw	r0, #16900
  48 0018 D861     		str	r0, [r3, #28]
 111:Drivers/STM32WBxx_HAL_Driver/Src/stm32wbxx_hal_pwr.c ****   LL_PWR_WriteReg(PUCRA, PWR_PUCRA_RESET_VALUE);
  49              		.loc 1 111 3 view .LVU6
  50 001a 1A62     		str	r2, [r3, #32]
 112:Drivers/STM32WBxx_HAL_Driver/Src/stm32wbxx_hal_pwr.c ****   LL_PWR_WriteReg(PDCRA, PWR_PDCRA_RESET_VALUE);
  51              		.loc 1 112 3 view .LVU7
  52 001c 5A62     		str	r2, [r3, #36]
 113:Drivers/STM32WBxx_HAL_Driver/Src/stm32wbxx_hal_pwr.c ****   LL_PWR_WriteReg(PUCRB, PWR_PUCRB_RESET_VALUE);
  53              		.loc 1 113 3 view .LVU8
  54 001e 9A62     		str	r2, [r3, #40]
 114:Drivers/STM32WBxx_HAL_Driver/Src/stm32wbxx_hal_pwr.c ****   LL_PWR_WriteReg(PDCRB, PWR_PDCRB_RESET_VALUE);
  55              		.loc 1 114 3 view .LVU9
  56 0020 DA62     		str	r2, [r3, #44]
 115:Drivers/STM32WBxx_HAL_Driver/Src/stm32wbxx_hal_pwr.c ****   LL_PWR_WriteReg(PUCRC, PWR_PUCRC_RESET_VALUE);
  57              		.loc 1 115 3 view .LVU10
ARM GAS  /tmp/cczZhyqe.s 			page 4


  58 0022 1A63     		str	r2, [r3, #48]
 116:Drivers/STM32WBxx_HAL_Driver/Src/stm32wbxx_hal_pwr.c ****   LL_PWR_WriteReg(PDCRC, PWR_PDCRC_RESET_VALUE);
  59              		.loc 1 116 3 view .LVU11
  60 0024 5A63     		str	r2, [r3, #52]
 117:Drivers/STM32WBxx_HAL_Driver/Src/stm32wbxx_hal_pwr.c **** #if defined(GPIOD)
 118:Drivers/STM32WBxx_HAL_Driver/Src/stm32wbxx_hal_pwr.c ****   LL_PWR_WriteReg(PUCRD, PWR_PUCRD_RESET_VALUE);
  61              		.loc 1 118 3 view .LVU12
  62 0026 9A63     		str	r2, [r3, #56]
 119:Drivers/STM32WBxx_HAL_Driver/Src/stm32wbxx_hal_pwr.c ****   LL_PWR_WriteReg(PDCRD, PWR_PDCRD_RESET_VALUE);
  63              		.loc 1 119 3 view .LVU13
  64 0028 DA63     		str	r2, [r3, #60]
 120:Drivers/STM32WBxx_HAL_Driver/Src/stm32wbxx_hal_pwr.c **** #endif
 121:Drivers/STM32WBxx_HAL_Driver/Src/stm32wbxx_hal_pwr.c ****   LL_PWR_WriteReg(PUCRE, PWR_PUCRE_RESET_VALUE);
  65              		.loc 1 121 3 view .LVU14
  66 002a 1A64     		str	r2, [r3, #64]
 122:Drivers/STM32WBxx_HAL_Driver/Src/stm32wbxx_hal_pwr.c ****   LL_PWR_WriteReg(PDCRE, PWR_PDCRE_RESET_VALUE);
  67              		.loc 1 122 3 view .LVU15
  68 002c 5A64     		str	r2, [r3, #68]
 123:Drivers/STM32WBxx_HAL_Driver/Src/stm32wbxx_hal_pwr.c ****   LL_PWR_WriteReg(PUCRH, PWR_PUCRH_RESET_VALUE);
  69              		.loc 1 123 3 view .LVU16
  70 002e 9A65     		str	r2, [r3, #88]
 124:Drivers/STM32WBxx_HAL_Driver/Src/stm32wbxx_hal_pwr.c ****   LL_PWR_WriteReg(PDCRH, PWR_PDCRH_RESET_VALUE);
  71              		.loc 1 124 3 view .LVU17
  72 0030 DA65     		str	r2, [r3, #92]
 125:Drivers/STM32WBxx_HAL_Driver/Src/stm32wbxx_hal_pwr.c ****   LL_PWR_WriteReg(C2CR1, PWR_C2CR1_RESET_VALUE);
  73              		.loc 1 125 3 view .LVU18
  74 0032 C3F88020 		str	r2, [r3, #128]
 126:Drivers/STM32WBxx_HAL_Driver/Src/stm32wbxx_hal_pwr.c ****   LL_PWR_WriteReg(C2CR3, PWR_C2CR3_RESET_VALUE);
  75              		.loc 1 126 3 view .LVU19
  76 0036 C3F88410 		str	r1, [r3, #132]
 127:Drivers/STM32WBxx_HAL_Driver/Src/stm32wbxx_hal_pwr.c ****   
 128:Drivers/STM32WBxx_HAL_Driver/Src/stm32wbxx_hal_pwr.c ****   /* Clear all flags */
 129:Drivers/STM32WBxx_HAL_Driver/Src/stm32wbxx_hal_pwr.c ****   LL_PWR_WriteReg(SCR,
  77              		.loc 1 129 3 view .LVU20
  78 003a 47F69F72 		movw	r2, #32671
  79 003e 9A61     		str	r2, [r3, #24]
 130:Drivers/STM32WBxx_HAL_Driver/Src/stm32wbxx_hal_pwr.c ****                     LL_PWR_SCR_CC2HF
 131:Drivers/STM32WBxx_HAL_Driver/Src/stm32wbxx_hal_pwr.c ****                   | LL_PWR_SCR_CBLEAF
 132:Drivers/STM32WBxx_HAL_Driver/Src/stm32wbxx_hal_pwr.c ****                   | LL_PWR_SCR_CCRPEF
 133:Drivers/STM32WBxx_HAL_Driver/Src/stm32wbxx_hal_pwr.c **** #if defined(PWR_CR3_E802A)
 134:Drivers/STM32WBxx_HAL_Driver/Src/stm32wbxx_hal_pwr.c ****                   | LL_PWR_SCR_C802AF
 135:Drivers/STM32WBxx_HAL_Driver/Src/stm32wbxx_hal_pwr.c ****                   | LL_PWR_SCR_C802WUF
 136:Drivers/STM32WBxx_HAL_Driver/Src/stm32wbxx_hal_pwr.c **** #endif
 137:Drivers/STM32WBxx_HAL_Driver/Src/stm32wbxx_hal_pwr.c ****                   | LL_PWR_SCR_CBLEWUF
 138:Drivers/STM32WBxx_HAL_Driver/Src/stm32wbxx_hal_pwr.c **** #if defined(PWR_CR5_SMPSEN)
 139:Drivers/STM32WBxx_HAL_Driver/Src/stm32wbxx_hal_pwr.c ****                   | LL_PWR_SCR_CBORHF
 140:Drivers/STM32WBxx_HAL_Driver/Src/stm32wbxx_hal_pwr.c ****                   | LL_PWR_SCR_CSMPSFBF
 141:Drivers/STM32WBxx_HAL_Driver/Src/stm32wbxx_hal_pwr.c **** #endif
 142:Drivers/STM32WBxx_HAL_Driver/Src/stm32wbxx_hal_pwr.c ****                   | LL_PWR_SCR_CWUF
 143:Drivers/STM32WBxx_HAL_Driver/Src/stm32wbxx_hal_pwr.c ****                  );
 144:Drivers/STM32WBxx_HAL_Driver/Src/stm32wbxx_hal_pwr.c ****   
 145:Drivers/STM32WBxx_HAL_Driver/Src/stm32wbxx_hal_pwr.c ****   LL_PWR_WriteReg(EXTSCR,
  80              		.loc 1 145 3 view .LVU21
  81 0040 0722     		movs	r2, #7
  82 0042 C3F88820 		str	r2, [r3, #136]
 146:Drivers/STM32WBxx_HAL_Driver/Src/stm32wbxx_hal_pwr.c ****                     LL_PWR_EXTSCR_CCRPF
 147:Drivers/STM32WBxx_HAL_Driver/Src/stm32wbxx_hal_pwr.c ****                   | LL_PWR_EXTSCR_C2CSSF
ARM GAS  /tmp/cczZhyqe.s 			page 5


 148:Drivers/STM32WBxx_HAL_Driver/Src/stm32wbxx_hal_pwr.c ****                   | LL_PWR_EXTSCR_C1CSSF
 149:Drivers/STM32WBxx_HAL_Driver/Src/stm32wbxx_hal_pwr.c ****                  );
 150:Drivers/STM32WBxx_HAL_Driver/Src/stm32wbxx_hal_pwr.c **** }
  83              		.loc 1 150 1 is_stmt 0 view .LVU22
  84 0046 7047     		bx	lr
  85              	.L3:
  86              		.align	2
  87              	.L2:
  88 0048 00040058 		.word	1476396032
  89              		.cfi_endproc
  90              	.LFE943:
  92              		.section	.text.HAL_PWR_EnableBkUpAccess,"ax",%progbits
  93              		.align	1
  94              		.global	HAL_PWR_EnableBkUpAccess
  95              		.syntax unified
  96              		.thumb
  97              		.thumb_func
  98              		.fpu fpv4-sp-d16
 100              	HAL_PWR_EnableBkUpAccess:
 101              	.LFB944:
 151:Drivers/STM32WBxx_HAL_Driver/Src/stm32wbxx_hal_pwr.c **** 
 152:Drivers/STM32WBxx_HAL_Driver/Src/stm32wbxx_hal_pwr.c **** 
 153:Drivers/STM32WBxx_HAL_Driver/Src/stm32wbxx_hal_pwr.c **** /**
 154:Drivers/STM32WBxx_HAL_Driver/Src/stm32wbxx_hal_pwr.c ****   * @brief  Enable access to the backup domain 
 155:Drivers/STM32WBxx_HAL_Driver/Src/stm32wbxx_hal_pwr.c ****   *         (RTC registers, RTC backup data registers).
 156:Drivers/STM32WBxx_HAL_Driver/Src/stm32wbxx_hal_pwr.c ****   * @note   After reset, the backup domain is protected against 
 157:Drivers/STM32WBxx_HAL_Driver/Src/stm32wbxx_hal_pwr.c ****   *         possible unwanted write accesses.
 158:Drivers/STM32WBxx_HAL_Driver/Src/stm32wbxx_hal_pwr.c ****   * @note   RTCSEL that sets the RTC clock source selection is in the RTC back-up domain.
 159:Drivers/STM32WBxx_HAL_Driver/Src/stm32wbxx_hal_pwr.c ****   *         In order to set or modify the RTC clock, the backup domain access must be
 160:Drivers/STM32WBxx_HAL_Driver/Src/stm32wbxx_hal_pwr.c ****   *         disabled. 
 161:Drivers/STM32WBxx_HAL_Driver/Src/stm32wbxx_hal_pwr.c ****   * @note   LSEON bit that switches on and off the LSE crystal belongs as well to the
 162:Drivers/STM32WBxx_HAL_Driver/Src/stm32wbxx_hal_pwr.c ****   *         back-up domain.
 163:Drivers/STM32WBxx_HAL_Driver/Src/stm32wbxx_hal_pwr.c ****   * @retval None
 164:Drivers/STM32WBxx_HAL_Driver/Src/stm32wbxx_hal_pwr.c ****   */
 165:Drivers/STM32WBxx_HAL_Driver/Src/stm32wbxx_hal_pwr.c **** void HAL_PWR_EnableBkUpAccess(void)
 166:Drivers/STM32WBxx_HAL_Driver/Src/stm32wbxx_hal_pwr.c **** {
 102              		.loc 1 166 1 is_stmt 1 view -0
 103              		.cfi_startproc
 104              		@ args = 0, pretend = 0, frame = 0
 105              		@ frame_needed = 0, uses_anonymous_args = 0
 106              		@ link register save eliminated.
 167:Drivers/STM32WBxx_HAL_Driver/Src/stm32wbxx_hal_pwr.c ****   SET_BIT(PWR->CR1, PWR_CR1_DBP);
 107              		.loc 1 167 3 view .LVU24
 108 0000 024A     		ldr	r2, .L5
 109 0002 1368     		ldr	r3, [r2]
 110 0004 43F48073 		orr	r3, r3, #256
 111 0008 1360     		str	r3, [r2]
 168:Drivers/STM32WBxx_HAL_Driver/Src/stm32wbxx_hal_pwr.c **** }
 112              		.loc 1 168 1 is_stmt 0 view .LVU25
 113 000a 7047     		bx	lr
 114              	.L6:
 115              		.align	2
 116              	.L5:
 117 000c 00040058 		.word	1476396032
 118              		.cfi_endproc
 119              	.LFE944:
 121              		.section	.text.HAL_PWR_DisableBkUpAccess,"ax",%progbits
ARM GAS  /tmp/cczZhyqe.s 			page 6


 122              		.align	1
 123              		.global	HAL_PWR_DisableBkUpAccess
 124              		.syntax unified
 125              		.thumb
 126              		.thumb_func
 127              		.fpu fpv4-sp-d16
 129              	HAL_PWR_DisableBkUpAccess:
 130              	.LFB945:
 169:Drivers/STM32WBxx_HAL_Driver/Src/stm32wbxx_hal_pwr.c **** 
 170:Drivers/STM32WBxx_HAL_Driver/Src/stm32wbxx_hal_pwr.c **** /**
 171:Drivers/STM32WBxx_HAL_Driver/Src/stm32wbxx_hal_pwr.c ****   * @brief  Disable access to the backup domain
 172:Drivers/STM32WBxx_HAL_Driver/Src/stm32wbxx_hal_pwr.c ****   *         (RTC registers, RTC backup data registers).
 173:Drivers/STM32WBxx_HAL_Driver/Src/stm32wbxx_hal_pwr.c ****   * @retval None
 174:Drivers/STM32WBxx_HAL_Driver/Src/stm32wbxx_hal_pwr.c ****   */
 175:Drivers/STM32WBxx_HAL_Driver/Src/stm32wbxx_hal_pwr.c **** void HAL_PWR_DisableBkUpAccess(void)
 176:Drivers/STM32WBxx_HAL_Driver/Src/stm32wbxx_hal_pwr.c **** {
 131              		.loc 1 176 1 is_stmt 1 view -0
 132              		.cfi_startproc
 133              		@ args = 0, pretend = 0, frame = 0
 134              		@ frame_needed = 0, uses_anonymous_args = 0
 135              		@ link register save eliminated.
 177:Drivers/STM32WBxx_HAL_Driver/Src/stm32wbxx_hal_pwr.c ****   CLEAR_BIT(PWR->CR1, PWR_CR1_DBP);
 136              		.loc 1 177 3 view .LVU27
 137 0000 024A     		ldr	r2, .L8
 138 0002 1368     		ldr	r3, [r2]
 139 0004 23F48073 		bic	r3, r3, #256
 140 0008 1360     		str	r3, [r2]
 178:Drivers/STM32WBxx_HAL_Driver/Src/stm32wbxx_hal_pwr.c **** }
 141              		.loc 1 178 1 is_stmt 0 view .LVU28
 142 000a 7047     		bx	lr
 143              	.L9:
 144              		.align	2
 145              	.L8:
 146 000c 00040058 		.word	1476396032
 147              		.cfi_endproc
 148              	.LFE945:
 150              		.section	.text.HAL_PWR_ConfigPVD,"ax",%progbits
 151              		.align	1
 152              		.global	HAL_PWR_ConfigPVD
 153              		.syntax unified
 154              		.thumb
 155              		.thumb_func
 156              		.fpu fpv4-sp-d16
 158              	HAL_PWR_ConfigPVD:
 159              	.LVL0:
 160              	.LFB946:
 179:Drivers/STM32WBxx_HAL_Driver/Src/stm32wbxx_hal_pwr.c **** 
 180:Drivers/STM32WBxx_HAL_Driver/Src/stm32wbxx_hal_pwr.c **** /**
 181:Drivers/STM32WBxx_HAL_Driver/Src/stm32wbxx_hal_pwr.c ****   * @}
 182:Drivers/STM32WBxx_HAL_Driver/Src/stm32wbxx_hal_pwr.c ****   */
 183:Drivers/STM32WBxx_HAL_Driver/Src/stm32wbxx_hal_pwr.c **** 
 184:Drivers/STM32WBxx_HAL_Driver/Src/stm32wbxx_hal_pwr.c **** 
 185:Drivers/STM32WBxx_HAL_Driver/Src/stm32wbxx_hal_pwr.c **** /** @addtogroup PWR_Exported_Functions_Group2  Peripheral Control functions
 186:Drivers/STM32WBxx_HAL_Driver/Src/stm32wbxx_hal_pwr.c ****   *  @brief Low Power modes configuration functions
 187:Drivers/STM32WBxx_HAL_Driver/Src/stm32wbxx_hal_pwr.c ****   *
 188:Drivers/STM32WBxx_HAL_Driver/Src/stm32wbxx_hal_pwr.c **** @verbatim
 189:Drivers/STM32WBxx_HAL_Driver/Src/stm32wbxx_hal_pwr.c **** 
ARM GAS  /tmp/cczZhyqe.s 			page 7


 190:Drivers/STM32WBxx_HAL_Driver/Src/stm32wbxx_hal_pwr.c ****  ===============================================================================
 191:Drivers/STM32WBxx_HAL_Driver/Src/stm32wbxx_hal_pwr.c ****                  ##### Peripheral Control functions #####
 192:Drivers/STM32WBxx_HAL_Driver/Src/stm32wbxx_hal_pwr.c ****  ===============================================================================
 193:Drivers/STM32WBxx_HAL_Driver/Src/stm32wbxx_hal_pwr.c **** 
 194:Drivers/STM32WBxx_HAL_Driver/Src/stm32wbxx_hal_pwr.c ****     [..]
 195:Drivers/STM32WBxx_HAL_Driver/Src/stm32wbxx_hal_pwr.c ****      *** PVD configuration ***
 196:Drivers/STM32WBxx_HAL_Driver/Src/stm32wbxx_hal_pwr.c ****     =========================
 197:Drivers/STM32WBxx_HAL_Driver/Src/stm32wbxx_hal_pwr.c ****     [..]
 198:Drivers/STM32WBxx_HAL_Driver/Src/stm32wbxx_hal_pwr.c ****       (+) The PVD is used to monitor the VDD power supply by comparing it to a
 199:Drivers/STM32WBxx_HAL_Driver/Src/stm32wbxx_hal_pwr.c ****           threshold selected by the PVD Level (PLS[2:0] bits in PWR_CR2 register).
 200:Drivers/STM32WBxx_HAL_Driver/Src/stm32wbxx_hal_pwr.c ****       (+) PVDO flag is available to indicate if VDD/VDDA is higher or lower
 201:Drivers/STM32WBxx_HAL_Driver/Src/stm32wbxx_hal_pwr.c ****           than the PVD threshold. This event is internally connected to the EXTI
 202:Drivers/STM32WBxx_HAL_Driver/Src/stm32wbxx_hal_pwr.c ****           line16 and can generate an interrupt if enabled. This is done through
 203:Drivers/STM32WBxx_HAL_Driver/Src/stm32wbxx_hal_pwr.c ****           __HAL_PVD_EXTI_ENABLE_IT() macro.
 204:Drivers/STM32WBxx_HAL_Driver/Src/stm32wbxx_hal_pwr.c ****       (+) The PVD is stopped in Standby mode.
 205:Drivers/STM32WBxx_HAL_Driver/Src/stm32wbxx_hal_pwr.c **** 
 206:Drivers/STM32WBxx_HAL_Driver/Src/stm32wbxx_hal_pwr.c ****     *** WakeUp pin configuration ***
 207:Drivers/STM32WBxx_HAL_Driver/Src/stm32wbxx_hal_pwr.c ****     ================================
 208:Drivers/STM32WBxx_HAL_Driver/Src/stm32wbxx_hal_pwr.c ****     [..]
 209:Drivers/STM32WBxx_HAL_Driver/Src/stm32wbxx_hal_pwr.c ****       (+) WakeUp pins are used to wakeup the system from Standby mode or Shutdown mode. 
 210:Drivers/STM32WBxx_HAL_Driver/Src/stm32wbxx_hal_pwr.c ****           The polarity of these pins can be set to configure event detection on high 
 211:Drivers/STM32WBxx_HAL_Driver/Src/stm32wbxx_hal_pwr.c ****           level (rising edge) or low level (falling edge).
 212:Drivers/STM32WBxx_HAL_Driver/Src/stm32wbxx_hal_pwr.c **** 
 213:Drivers/STM32WBxx_HAL_Driver/Src/stm32wbxx_hal_pwr.c ****     *** Low Power modes configuration ***
 214:Drivers/STM32WBxx_HAL_Driver/Src/stm32wbxx_hal_pwr.c ****     =====================================
 215:Drivers/STM32WBxx_HAL_Driver/Src/stm32wbxx_hal_pwr.c ****     [..]
 216:Drivers/STM32WBxx_HAL_Driver/Src/stm32wbxx_hal_pwr.c ****       The devices feature 8 low-power modes:
 217:Drivers/STM32WBxx_HAL_Driver/Src/stm32wbxx_hal_pwr.c **** 
 218:Drivers/STM32WBxx_HAL_Driver/Src/stm32wbxx_hal_pwr.c ****       (+) Low-power Run mode: core and peripherals are running, main regulator off, low power regul
 219:Drivers/STM32WBxx_HAL_Driver/Src/stm32wbxx_hal_pwr.c **** 
 220:Drivers/STM32WBxx_HAL_Driver/Src/stm32wbxx_hal_pwr.c ****       (+) Sleep mode: Cortex-M4 core stopped, peripherals kept running, main and low power regulato
 221:Drivers/STM32WBxx_HAL_Driver/Src/stm32wbxx_hal_pwr.c ****       (+) Low-power Sleep mode: Cortex-M4 core stopped, peripherals kept running, main regulator of
 222:Drivers/STM32WBxx_HAL_Driver/Src/stm32wbxx_hal_pwr.c **** 
 223:Drivers/STM32WBxx_HAL_Driver/Src/stm32wbxx_hal_pwr.c ****       (+) Stop 0 mode: all clocks are stopped except LSI and LSE, main and low power regulators on.
 224:Drivers/STM32WBxx_HAL_Driver/Src/stm32wbxx_hal_pwr.c ****       (+) Stop 1 mode: all clocks are stopped except LSI and LSE, main regulator off, low power reg
 225:Drivers/STM32WBxx_HAL_Driver/Src/stm32wbxx_hal_pwr.c ****       (+) Stop 2 mode: all clocks are stopped except LSI and LSE, main regulator off, low power reg
 226:Drivers/STM32WBxx_HAL_Driver/Src/stm32wbxx_hal_pwr.c **** 
 227:Drivers/STM32WBxx_HAL_Driver/Src/stm32wbxx_hal_pwr.c ****       (+) Standby mode with SRAM2a: all clocks are stopped except LSI and LSE, SRAM2a content prese
 228:Drivers/STM32WBxx_HAL_Driver/Src/stm32wbxx_hal_pwr.c ****           Note: On devices STM32WB15xx, STM32WB10xx, retention is extended to SRAM1, SRAM2a, SRAM2b
 229:Drivers/STM32WBxx_HAL_Driver/Src/stm32wbxx_hal_pwr.c ****       (+) Standby mode without SRAM2a: all clocks are stopped except LSI and LSE, main and low powe
 230:Drivers/STM32WBxx_HAL_Driver/Src/stm32wbxx_hal_pwr.c **** 
 231:Drivers/STM32WBxx_HAL_Driver/Src/stm32wbxx_hal_pwr.c ****       (+) Shutdown mode: all clocks are stopped except LSE, main and low power regulators off.
 232:Drivers/STM32WBxx_HAL_Driver/Src/stm32wbxx_hal_pwr.c **** 
 233:Drivers/STM32WBxx_HAL_Driver/Src/stm32wbxx_hal_pwr.c **** 
 234:Drivers/STM32WBxx_HAL_Driver/Src/stm32wbxx_hal_pwr.c ****    *** Low-power run mode ***
 235:Drivers/STM32WBxx_HAL_Driver/Src/stm32wbxx_hal_pwr.c ****    ==========================
 236:Drivers/STM32WBxx_HAL_Driver/Src/stm32wbxx_hal_pwr.c ****     [..]
 237:Drivers/STM32WBxx_HAL_Driver/Src/stm32wbxx_hal_pwr.c ****       (+) Entry: (from main run mode)
 238:Drivers/STM32WBxx_HAL_Driver/Src/stm32wbxx_hal_pwr.c ****           (++) set LPR bit with HAL_PWREx_EnableLowPowerRunMode() API after having decreased the sy
 239:Drivers/STM32WBxx_HAL_Driver/Src/stm32wbxx_hal_pwr.c ****       (+) Exit:
 240:Drivers/STM32WBxx_HAL_Driver/Src/stm32wbxx_hal_pwr.c ****           (++) clear LPR bit then wait for REGLP bit to be reset with HAL_PWREx_DisableLowPowerRunM
 241:Drivers/STM32WBxx_HAL_Driver/Src/stm32wbxx_hal_pwr.c ****                then can the system clock frequency be increased above 2 MHz.
 242:Drivers/STM32WBxx_HAL_Driver/Src/stm32wbxx_hal_pwr.c **** 
 243:Drivers/STM32WBxx_HAL_Driver/Src/stm32wbxx_hal_pwr.c ****    *** Sleep mode / Low-power sleep mode ***
 244:Drivers/STM32WBxx_HAL_Driver/Src/stm32wbxx_hal_pwr.c ****    =========================================
 245:Drivers/STM32WBxx_HAL_Driver/Src/stm32wbxx_hal_pwr.c ****     [..]
 246:Drivers/STM32WBxx_HAL_Driver/Src/stm32wbxx_hal_pwr.c ****       (+) Entry:
ARM GAS  /tmp/cczZhyqe.s 			page 8


 247:Drivers/STM32WBxx_HAL_Driver/Src/stm32wbxx_hal_pwr.c ****           The Sleep mode / Low-power Sleep mode is entered thru HAL_PWR_EnterSLEEPMode() API
 248:Drivers/STM32WBxx_HAL_Driver/Src/stm32wbxx_hal_pwr.c ****           in specifying whether or not the regulator is forced to low-power mode and if exit is int
 249:Drivers/STM32WBxx_HAL_Driver/Src/stm32wbxx_hal_pwr.c ****           (++) PWR_MAINREGULATOR_ON: Sleep mode (regulator in main mode).
 250:Drivers/STM32WBxx_HAL_Driver/Src/stm32wbxx_hal_pwr.c ****           (++) PWR_LOWPOWERREGULATOR_ON: Low-power sleep (regulator in low power mode).
 251:Drivers/STM32WBxx_HAL_Driver/Src/stm32wbxx_hal_pwr.c ****           In the latter case, the system clock frequency must have been decreased below 2 MHz befor
 252:Drivers/STM32WBxx_HAL_Driver/Src/stm32wbxx_hal_pwr.c ****           (++) PWR_SLEEPENTRY_WFI: enter SLEEP mode with WFI instruction
 253:Drivers/STM32WBxx_HAL_Driver/Src/stm32wbxx_hal_pwr.c ****           (++) PWR_SLEEPENTRY_WFE: enter SLEEP mode with WFE instruction
 254:Drivers/STM32WBxx_HAL_Driver/Src/stm32wbxx_hal_pwr.c **** 
 255:Drivers/STM32WBxx_HAL_Driver/Src/stm32wbxx_hal_pwr.c ****       (+) WFI Exit:
 256:Drivers/STM32WBxx_HAL_Driver/Src/stm32wbxx_hal_pwr.c ****         (++) Any peripheral interrupt acknowledged by the nested vectored interrupt
 257:Drivers/STM32WBxx_HAL_Driver/Src/stm32wbxx_hal_pwr.c ****              controller (NVIC) or any wake-up event.
 258:Drivers/STM32WBxx_HAL_Driver/Src/stm32wbxx_hal_pwr.c **** 
 259:Drivers/STM32WBxx_HAL_Driver/Src/stm32wbxx_hal_pwr.c ****       (+) WFE Exit:
 260:Drivers/STM32WBxx_HAL_Driver/Src/stm32wbxx_hal_pwr.c ****         (++) Any wake-up event such as an EXTI line configured in event mode.
 261:Drivers/STM32WBxx_HAL_Driver/Src/stm32wbxx_hal_pwr.c **** 
 262:Drivers/STM32WBxx_HAL_Driver/Src/stm32wbxx_hal_pwr.c ****     [..]  When exiting the Low-power sleep mode by issuing an interrupt or a wakeup event, 
 263:Drivers/STM32WBxx_HAL_Driver/Src/stm32wbxx_hal_pwr.c ****           the MCU is in Low-power Run mode. 
 264:Drivers/STM32WBxx_HAL_Driver/Src/stm32wbxx_hal_pwr.c **** 
 265:Drivers/STM32WBxx_HAL_Driver/Src/stm32wbxx_hal_pwr.c ****    *** Stop 0, Stop 1 and Stop 2 modes ***
 266:Drivers/STM32WBxx_HAL_Driver/Src/stm32wbxx_hal_pwr.c ****    ===============================
 267:Drivers/STM32WBxx_HAL_Driver/Src/stm32wbxx_hal_pwr.c ****     [..]
 268:Drivers/STM32WBxx_HAL_Driver/Src/stm32wbxx_hal_pwr.c ****       (+) Entry:                                                 
 269:Drivers/STM32WBxx_HAL_Driver/Src/stm32wbxx_hal_pwr.c ****           The Stop 0, Stop 1 or Stop 2 modes are entered thru the following API's:
 270:Drivers/STM32WBxx_HAL_Driver/Src/stm32wbxx_hal_pwr.c ****           (++) HAL_PWREx_EnterSTOP0Mode() for mode 0, HAL_PWREx_EnterSTOP1Mode() for mode 1, HAL_PW
 271:Drivers/STM32WBxx_HAL_Driver/Src/stm32wbxx_hal_pwr.c ****                or for porting reasons HAL_PWR_EnterSTOPMode().
 272:Drivers/STM32WBxx_HAL_Driver/Src/stm32wbxx_hal_pwr.c ****                Note: Low power Stop2 mode is not available on devices STM32WB15xx, STM32WB10xx.
 273:Drivers/STM32WBxx_HAL_Driver/Src/stm32wbxx_hal_pwr.c **** 
 274:Drivers/STM32WBxx_HAL_Driver/Src/stm32wbxx_hal_pwr.c ****       (+) Regulator setting (applicable to HAL_PWR_EnterSTOPMode() only):
 275:Drivers/STM32WBxx_HAL_Driver/Src/stm32wbxx_hal_pwr.c ****           (++) PWR_MAINREGULATOR_ON: Regulator in main mode (STOP0 mode)
 276:Drivers/STM32WBxx_HAL_Driver/Src/stm32wbxx_hal_pwr.c ****           (++) PWR_LOWPOWERREGULATOR_ON: Regulator in low-power mode (STOP1 mode)
 277:Drivers/STM32WBxx_HAL_Driver/Src/stm32wbxx_hal_pwr.c ****       (+) Exit (interrupt or event-triggered, specified when entering STOP mode):
 278:Drivers/STM32WBxx_HAL_Driver/Src/stm32wbxx_hal_pwr.c ****           (++) PWR_STOPENTRY_WFI: enter Stop mode with WFI instruction
 279:Drivers/STM32WBxx_HAL_Driver/Src/stm32wbxx_hal_pwr.c ****           (++) PWR_STOPENTRY_WFE: enter Stop mode with WFE instruction
 280:Drivers/STM32WBxx_HAL_Driver/Src/stm32wbxx_hal_pwr.c ****       (+) WFI Exit:
 281:Drivers/STM32WBxx_HAL_Driver/Src/stm32wbxx_hal_pwr.c ****           (++) Any EXTI Line (Internal or External) configured in Interrupt mode.
 282:Drivers/STM32WBxx_HAL_Driver/Src/stm32wbxx_hal_pwr.c ****           (++) Some specific communication peripherals (USART, LPUART, I2C) interrupts 
 283:Drivers/STM32WBxx_HAL_Driver/Src/stm32wbxx_hal_pwr.c ****                when programmed in wakeup mode. 
 284:Drivers/STM32WBxx_HAL_Driver/Src/stm32wbxx_hal_pwr.c ****       (+) WFE Exit:
 285:Drivers/STM32WBxx_HAL_Driver/Src/stm32wbxx_hal_pwr.c ****           (++) Any EXTI Line (Internal or External) configured in Event mode.
 286:Drivers/STM32WBxx_HAL_Driver/Src/stm32wbxx_hal_pwr.c ****        
 287:Drivers/STM32WBxx_HAL_Driver/Src/stm32wbxx_hal_pwr.c ****        [..]                      
 288:Drivers/STM32WBxx_HAL_Driver/Src/stm32wbxx_hal_pwr.c ****           When exiting Stop 0 and Stop 1 modes, the MCU is either in Run mode or in Low-power Run m
 289:Drivers/STM32WBxx_HAL_Driver/Src/stm32wbxx_hal_pwr.c ****           depending on the LPR bit setting. 
 290:Drivers/STM32WBxx_HAL_Driver/Src/stm32wbxx_hal_pwr.c ****           When exiting Stop 2 mode, the MCU is in Run mode. 
 291:Drivers/STM32WBxx_HAL_Driver/Src/stm32wbxx_hal_pwr.c **** 
 292:Drivers/STM32WBxx_HAL_Driver/Src/stm32wbxx_hal_pwr.c ****    *** Standby mode ***
 293:Drivers/STM32WBxx_HAL_Driver/Src/stm32wbxx_hal_pwr.c ****    ====================
 294:Drivers/STM32WBxx_HAL_Driver/Src/stm32wbxx_hal_pwr.c ****     [..] The Standby mode offers two options: 
 295:Drivers/STM32WBxx_HAL_Driver/Src/stm32wbxx_hal_pwr.c ****       (+) option a) all clocks off except LSI and LSE, RRS bit set (keeps voltage regulator in low 
 296:Drivers/STM32WBxx_HAL_Driver/Src/stm32wbxx_hal_pwr.c ****           SRAM and registers contents are lost except for the SRAM2 content, the RTC registers, RTC
 297:Drivers/STM32WBxx_HAL_Driver/Src/stm32wbxx_hal_pwr.c ****           and Standby circuitry.      
 298:Drivers/STM32WBxx_HAL_Driver/Src/stm32wbxx_hal_pwr.c ****       (+) option b) all clocks off except LSI and LSE, RRS bit cleared (voltage regulator then disa
 299:Drivers/STM32WBxx_HAL_Driver/Src/stm32wbxx_hal_pwr.c ****           SRAM and register contents are lost except for the RTC registers, RTC backup registers 
 300:Drivers/STM32WBxx_HAL_Driver/Src/stm32wbxx_hal_pwr.c ****           and Standby circuitry.
 301:Drivers/STM32WBxx_HAL_Driver/Src/stm32wbxx_hal_pwr.c **** 
 302:Drivers/STM32WBxx_HAL_Driver/Src/stm32wbxx_hal_pwr.c ****       (++) Entry:
 303:Drivers/STM32WBxx_HAL_Driver/Src/stm32wbxx_hal_pwr.c ****           (+++) The Standby mode is entered thru HAL_PWR_EnterSTANDBYMode() API. 
ARM GAS  /tmp/cczZhyqe.s 			page 9


 304:Drivers/STM32WBxx_HAL_Driver/Src/stm32wbxx_hal_pwr.c ****                 SRAM1 and register contents are lost except for registers in the Backup domain and 
 305:Drivers/STM32WBxx_HAL_Driver/Src/stm32wbxx_hal_pwr.c ****                 Standby circuitry. SRAM2 content can be preserved if the bit RRS is set in PWR_CR3 
 306:Drivers/STM32WBxx_HAL_Driver/Src/stm32wbxx_hal_pwr.c ****                 To enable this feature, the user can resort to HAL_PWREx_EnableBKRAMContentRetentio
 307:Drivers/STM32WBxx_HAL_Driver/Src/stm32wbxx_hal_pwr.c ****                 to set RRS bit.
 308:Drivers/STM32WBxx_HAL_Driver/Src/stm32wbxx_hal_pwr.c ****       (++) Exit:
 309:Drivers/STM32WBxx_HAL_Driver/Src/stm32wbxx_hal_pwr.c ****           (+++) WKUP pin rising edge, RTC alarm or wakeup, tamper event, time-stamp event, 
 310:Drivers/STM32WBxx_HAL_Driver/Src/stm32wbxx_hal_pwr.c ****                 external reset in NRST pin, IWDG reset.
 311:Drivers/STM32WBxx_HAL_Driver/Src/stm32wbxx_hal_pwr.c ****     [..] After waking up from Standby mode, program execution restarts in the same way as after a R
 312:Drivers/STM32WBxx_HAL_Driver/Src/stm32wbxx_hal_pwr.c ****           
 313:Drivers/STM32WBxx_HAL_Driver/Src/stm32wbxx_hal_pwr.c **** 
 314:Drivers/STM32WBxx_HAL_Driver/Src/stm32wbxx_hal_pwr.c ****     *** Shutdown mode ***
 315:Drivers/STM32WBxx_HAL_Driver/Src/stm32wbxx_hal_pwr.c ****    ======================
 316:Drivers/STM32WBxx_HAL_Driver/Src/stm32wbxx_hal_pwr.c ****     [..]
 317:Drivers/STM32WBxx_HAL_Driver/Src/stm32wbxx_hal_pwr.c ****       In Shutdown mode, 
 318:Drivers/STM32WBxx_HAL_Driver/Src/stm32wbxx_hal_pwr.c ****         voltage regulator is disabled, all clocks are off except LSE, RRS bit is cleared.
 319:Drivers/STM32WBxx_HAL_Driver/Src/stm32wbxx_hal_pwr.c ****         SRAM and registers contents are lost except for backup domain registers.
 320:Drivers/STM32WBxx_HAL_Driver/Src/stm32wbxx_hal_pwr.c ****       (+) Entry:
 321:Drivers/STM32WBxx_HAL_Driver/Src/stm32wbxx_hal_pwr.c ****           The Shutdown mode is entered thru HAL_PWREx_EnterSHUTDOWNMode() API.
 322:Drivers/STM32WBxx_HAL_Driver/Src/stm32wbxx_hal_pwr.c ****       (+) Exit:
 323:Drivers/STM32WBxx_HAL_Driver/Src/stm32wbxx_hal_pwr.c ****           (++) WKUP pin rising edge, RTC alarm or wakeup, tamper event, time-stamp event, 
 324:Drivers/STM32WBxx_HAL_Driver/Src/stm32wbxx_hal_pwr.c ****                external reset in NRST pin.
 325:Drivers/STM32WBxx_HAL_Driver/Src/stm32wbxx_hal_pwr.c ****     [..] After waking up from Shutdown mode, program execution restarts in the same way as after a 
 326:Drivers/STM32WBxx_HAL_Driver/Src/stm32wbxx_hal_pwr.c **** 
 327:Drivers/STM32WBxx_HAL_Driver/Src/stm32wbxx_hal_pwr.c **** 
 328:Drivers/STM32WBxx_HAL_Driver/Src/stm32wbxx_hal_pwr.c ****    *** Auto-wakeup (AWU) from low-power mode ***
 329:Drivers/STM32WBxx_HAL_Driver/Src/stm32wbxx_hal_pwr.c ****    =============================================
 330:Drivers/STM32WBxx_HAL_Driver/Src/stm32wbxx_hal_pwr.c ****     [..]
 331:Drivers/STM32WBxx_HAL_Driver/Src/stm32wbxx_hal_pwr.c ****       The MCU can be woken up from low-power mode by an RTC Alarm event, an RTC
 332:Drivers/STM32WBxx_HAL_Driver/Src/stm32wbxx_hal_pwr.c ****       Wakeup event, a tamper event or a time-stamp event, without depending on
 333:Drivers/STM32WBxx_HAL_Driver/Src/stm32wbxx_hal_pwr.c ****       an external interrupt (Auto-wakeup mode).
 334:Drivers/STM32WBxx_HAL_Driver/Src/stm32wbxx_hal_pwr.c **** 
 335:Drivers/STM32WBxx_HAL_Driver/Src/stm32wbxx_hal_pwr.c ****       (+) RTC auto-wakeup (AWU) from the Stop, Standby and Shutdown modes
 336:Drivers/STM32WBxx_HAL_Driver/Src/stm32wbxx_hal_pwr.c ****   
 337:Drivers/STM32WBxx_HAL_Driver/Src/stm32wbxx_hal_pwr.c **** 
 338:Drivers/STM32WBxx_HAL_Driver/Src/stm32wbxx_hal_pwr.c ****         (++) To wake up from the Stop mode with an RTC alarm event, it is necessary to
 339:Drivers/STM32WBxx_HAL_Driver/Src/stm32wbxx_hal_pwr.c ****              configure the RTC to generate the RTC alarm using the HAL_RTC_SetAlarm_IT() function.
 340:Drivers/STM32WBxx_HAL_Driver/Src/stm32wbxx_hal_pwr.c **** 
 341:Drivers/STM32WBxx_HAL_Driver/Src/stm32wbxx_hal_pwr.c ****         (++) To wake up from the Stop mode with an RTC Tamper or time stamp event, it
 342:Drivers/STM32WBxx_HAL_Driver/Src/stm32wbxx_hal_pwr.c ****              is necessary to configure the RTC to detect the tamper or time stamp event using the
 343:Drivers/STM32WBxx_HAL_Driver/Src/stm32wbxx_hal_pwr.c ****              HAL_RTCEx_SetTimeStamp_IT() or HAL_RTCEx_SetTamper_IT() functions.
 344:Drivers/STM32WBxx_HAL_Driver/Src/stm32wbxx_hal_pwr.c **** 
 345:Drivers/STM32WBxx_HAL_Driver/Src/stm32wbxx_hal_pwr.c ****         (++) To wake up from the Stop mode with an RTC WakeUp event, it is necessary to
 346:Drivers/STM32WBxx_HAL_Driver/Src/stm32wbxx_hal_pwr.c ****               configure the RTC to generate the RTC WakeUp event using the HAL_RTCEx_SetWakeUpTimer
 347:Drivers/STM32WBxx_HAL_Driver/Src/stm32wbxx_hal_pwr.c **** 
 348:Drivers/STM32WBxx_HAL_Driver/Src/stm32wbxx_hal_pwr.c **** @endverbatim
 349:Drivers/STM32WBxx_HAL_Driver/Src/stm32wbxx_hal_pwr.c ****   * @{
 350:Drivers/STM32WBxx_HAL_Driver/Src/stm32wbxx_hal_pwr.c ****   */
 351:Drivers/STM32WBxx_HAL_Driver/Src/stm32wbxx_hal_pwr.c **** 
 352:Drivers/STM32WBxx_HAL_Driver/Src/stm32wbxx_hal_pwr.c **** /**
 353:Drivers/STM32WBxx_HAL_Driver/Src/stm32wbxx_hal_pwr.c ****   * @brief  Configure the voltage threshold detected by the Power Voltage Detector (PVD).
 354:Drivers/STM32WBxx_HAL_Driver/Src/stm32wbxx_hal_pwr.c ****   * @param sConfigPVD pointer to a PWR_PVDTypeDef structure that contains the PVD 
 355:Drivers/STM32WBxx_HAL_Driver/Src/stm32wbxx_hal_pwr.c ****   *         configuration information.
 356:Drivers/STM32WBxx_HAL_Driver/Src/stm32wbxx_hal_pwr.c ****   * @note   Refer to the electrical characteristics of your device datasheet for
 357:Drivers/STM32WBxx_HAL_Driver/Src/stm32wbxx_hal_pwr.c ****   *         more details about the voltage thresholds corresponding to each
 358:Drivers/STM32WBxx_HAL_Driver/Src/stm32wbxx_hal_pwr.c ****   *         detection level.
 359:Drivers/STM32WBxx_HAL_Driver/Src/stm32wbxx_hal_pwr.c ****   * @note   If "sConfigPVD->Mode" is set to PVD_MODE_IT,
 360:Drivers/STM32WBxx_HAL_Driver/Src/stm32wbxx_hal_pwr.c ****   *         wake-up target is set by default to wake-up target CPU1.
ARM GAS  /tmp/cczZhyqe.s 			page 10


 361:Drivers/STM32WBxx_HAL_Driver/Src/stm32wbxx_hal_pwr.c ****   *         To select wake-up target to CPU2, additional configuration must be
 362:Drivers/STM32WBxx_HAL_Driver/Src/stm32wbxx_hal_pwr.c ****   *         performed using macro "__HAL_PWR_PVD_EXTIC2_ENABLE_IT()"
 363:Drivers/STM32WBxx_HAL_Driver/Src/stm32wbxx_hal_pwr.c ****   *         (and optionally, to select CPU2 only (not both CPU1 and CPU2):
 364:Drivers/STM32WBxx_HAL_Driver/Src/stm32wbxx_hal_pwr.c ****   *         "__HAL_PWR_PVD_EXTI_DISABLE_IT()").
 365:Drivers/STM32WBxx_HAL_Driver/Src/stm32wbxx_hal_pwr.c ****   * @retval None
 366:Drivers/STM32WBxx_HAL_Driver/Src/stm32wbxx_hal_pwr.c ****   */
 367:Drivers/STM32WBxx_HAL_Driver/Src/stm32wbxx_hal_pwr.c **** HAL_StatusTypeDef HAL_PWR_ConfigPVD(PWR_PVDTypeDef *sConfigPVD)
 368:Drivers/STM32WBxx_HAL_Driver/Src/stm32wbxx_hal_pwr.c **** {
 161              		.loc 1 368 1 is_stmt 1 view -0
 162              		.cfi_startproc
 163              		@ args = 0, pretend = 0, frame = 0
 164              		@ frame_needed = 0, uses_anonymous_args = 0
 165              		@ link register save eliminated.
 369:Drivers/STM32WBxx_HAL_Driver/Src/stm32wbxx_hal_pwr.c ****   /* Check the parameters */
 370:Drivers/STM32WBxx_HAL_Driver/Src/stm32wbxx_hal_pwr.c ****   assert_param(IS_PWR_PVD_LEVEL(sConfigPVD->PVDLevel));
 166              		.loc 1 370 3 view .LVU30
 371:Drivers/STM32WBxx_HAL_Driver/Src/stm32wbxx_hal_pwr.c ****   assert_param(IS_PWR_PVD_MODE(sConfigPVD->Mode));
 167              		.loc 1 371 3 view .LVU31
 372:Drivers/STM32WBxx_HAL_Driver/Src/stm32wbxx_hal_pwr.c **** 
 373:Drivers/STM32WBxx_HAL_Driver/Src/stm32wbxx_hal_pwr.c ****   /* Set PLS bits according to PVDLevel value */
 374:Drivers/STM32WBxx_HAL_Driver/Src/stm32wbxx_hal_pwr.c ****   MODIFY_REG(PWR->CR2, PWR_CR2_PLS, sConfigPVD->PVDLevel);
 168              		.loc 1 374 3 view .LVU32
 169 0000 1D4A     		ldr	r2, .L14
 170 0002 5368     		ldr	r3, [r2, #4]
 171 0004 23F00E03 		bic	r3, r3, #14
 172 0008 0168     		ldr	r1, [r0]
 173 000a 0B43     		orrs	r3, r3, r1
 174 000c 5360     		str	r3, [r2, #4]
 375:Drivers/STM32WBxx_HAL_Driver/Src/stm32wbxx_hal_pwr.c ****   
 376:Drivers/STM32WBxx_HAL_Driver/Src/stm32wbxx_hal_pwr.c ****   /* Clear any previous config. Keep it clear if no event or IT mode is selected */
 377:Drivers/STM32WBxx_HAL_Driver/Src/stm32wbxx_hal_pwr.c ****   
 378:Drivers/STM32WBxx_HAL_Driver/Src/stm32wbxx_hal_pwr.c ****   /* Note: On STM32WB serie, power PVD event is not available on AIEC lines   */
 379:Drivers/STM32WBxx_HAL_Driver/Src/stm32wbxx_hal_pwr.c ****   /*       (only interruption is available through AIEC line 16).             */
 380:Drivers/STM32WBxx_HAL_Driver/Src/stm32wbxx_hal_pwr.c ****   __HAL_PWR_PVD_EXTI_DISABLE_IT();      /*CPU1*/
 175              		.loc 1 380 3 view .LVU33
 176              	.LVL1:
 177              	.LBB16:
 178              	.LBI16:
 179              		.file 2 "Drivers/STM32WBxx_HAL_Driver/Inc/stm32wbxx_ll_exti.h"
   1:Drivers/STM32WBxx_HAL_Driver/Inc/stm32wbxx_ll_exti.h **** /**
   2:Drivers/STM32WBxx_HAL_Driver/Inc/stm32wbxx_ll_exti.h ****   ******************************************************************************
   3:Drivers/STM32WBxx_HAL_Driver/Inc/stm32wbxx_ll_exti.h ****   * @file    stm32wbxx_ll_exti.h
   4:Drivers/STM32WBxx_HAL_Driver/Inc/stm32wbxx_ll_exti.h ****   * @author  MCD Application Team
   5:Drivers/STM32WBxx_HAL_Driver/Inc/stm32wbxx_ll_exti.h ****   * @brief   Header file of EXTI LL module.
   6:Drivers/STM32WBxx_HAL_Driver/Inc/stm32wbxx_ll_exti.h ****   ******************************************************************************
   7:Drivers/STM32WBxx_HAL_Driver/Inc/stm32wbxx_ll_exti.h ****   * @attention
   8:Drivers/STM32WBxx_HAL_Driver/Inc/stm32wbxx_ll_exti.h ****   *
   9:Drivers/STM32WBxx_HAL_Driver/Inc/stm32wbxx_ll_exti.h ****   * <h2><center>&copy; Copyright (c) 2019 STMicroelectronics. 
  10:Drivers/STM32WBxx_HAL_Driver/Inc/stm32wbxx_ll_exti.h ****   * All rights reserved.</center></h2>
  11:Drivers/STM32WBxx_HAL_Driver/Inc/stm32wbxx_ll_exti.h ****   *
  12:Drivers/STM32WBxx_HAL_Driver/Inc/stm32wbxx_ll_exti.h ****   * This software component is licensed by ST under BSD 3-Clause license,
  13:Drivers/STM32WBxx_HAL_Driver/Inc/stm32wbxx_ll_exti.h ****   * the "License"; You may not use this file except in compliance with the 
  14:Drivers/STM32WBxx_HAL_Driver/Inc/stm32wbxx_ll_exti.h ****   * License. You may obtain a copy of the License at:
  15:Drivers/STM32WBxx_HAL_Driver/Inc/stm32wbxx_ll_exti.h ****   *                        opensource.org/licenses/BSD-3-Clause
  16:Drivers/STM32WBxx_HAL_Driver/Inc/stm32wbxx_ll_exti.h ****   *
  17:Drivers/STM32WBxx_HAL_Driver/Inc/stm32wbxx_ll_exti.h ****   ******************************************************************************
  18:Drivers/STM32WBxx_HAL_Driver/Inc/stm32wbxx_ll_exti.h ****   */
ARM GAS  /tmp/cczZhyqe.s 			page 11


  19:Drivers/STM32WBxx_HAL_Driver/Inc/stm32wbxx_ll_exti.h **** 
  20:Drivers/STM32WBxx_HAL_Driver/Inc/stm32wbxx_ll_exti.h **** /* Define to prevent recursive inclusion -------------------------------------*/
  21:Drivers/STM32WBxx_HAL_Driver/Inc/stm32wbxx_ll_exti.h **** #ifndef STM32WBxx_LL_EXTI_H
  22:Drivers/STM32WBxx_HAL_Driver/Inc/stm32wbxx_ll_exti.h **** #define STM32WBxx_LL_EXTI_H
  23:Drivers/STM32WBxx_HAL_Driver/Inc/stm32wbxx_ll_exti.h **** 
  24:Drivers/STM32WBxx_HAL_Driver/Inc/stm32wbxx_ll_exti.h **** #ifdef __cplusplus
  25:Drivers/STM32WBxx_HAL_Driver/Inc/stm32wbxx_ll_exti.h **** extern "C" {
  26:Drivers/STM32WBxx_HAL_Driver/Inc/stm32wbxx_ll_exti.h **** #endif
  27:Drivers/STM32WBxx_HAL_Driver/Inc/stm32wbxx_ll_exti.h **** 
  28:Drivers/STM32WBxx_HAL_Driver/Inc/stm32wbxx_ll_exti.h **** /* Includes ------------------------------------------------------------------*/
  29:Drivers/STM32WBxx_HAL_Driver/Inc/stm32wbxx_ll_exti.h **** #include "stm32wbxx.h"
  30:Drivers/STM32WBxx_HAL_Driver/Inc/stm32wbxx_ll_exti.h **** 
  31:Drivers/STM32WBxx_HAL_Driver/Inc/stm32wbxx_ll_exti.h **** /** @addtogroup STM32WBxx_LL_Driver
  32:Drivers/STM32WBxx_HAL_Driver/Inc/stm32wbxx_ll_exti.h ****   * @{
  33:Drivers/STM32WBxx_HAL_Driver/Inc/stm32wbxx_ll_exti.h ****   */
  34:Drivers/STM32WBxx_HAL_Driver/Inc/stm32wbxx_ll_exti.h **** 
  35:Drivers/STM32WBxx_HAL_Driver/Inc/stm32wbxx_ll_exti.h **** #if defined (EXTI)
  36:Drivers/STM32WBxx_HAL_Driver/Inc/stm32wbxx_ll_exti.h **** 
  37:Drivers/STM32WBxx_HAL_Driver/Inc/stm32wbxx_ll_exti.h **** /** @defgroup EXTI_LL EXTI
  38:Drivers/STM32WBxx_HAL_Driver/Inc/stm32wbxx_ll_exti.h ****   * @{
  39:Drivers/STM32WBxx_HAL_Driver/Inc/stm32wbxx_ll_exti.h ****   */
  40:Drivers/STM32WBxx_HAL_Driver/Inc/stm32wbxx_ll_exti.h **** 
  41:Drivers/STM32WBxx_HAL_Driver/Inc/stm32wbxx_ll_exti.h **** /* Private types -------------------------------------------------------------*/
  42:Drivers/STM32WBxx_HAL_Driver/Inc/stm32wbxx_ll_exti.h **** /* Private variables ---------------------------------------------------------*/
  43:Drivers/STM32WBxx_HAL_Driver/Inc/stm32wbxx_ll_exti.h **** /* Private constants ---------------------------------------------------------*/
  44:Drivers/STM32WBxx_HAL_Driver/Inc/stm32wbxx_ll_exti.h **** /* Private Macros ------------------------------------------------------------*/
  45:Drivers/STM32WBxx_HAL_Driver/Inc/stm32wbxx_ll_exti.h **** #if defined(USE_FULL_LL_DRIVER)
  46:Drivers/STM32WBxx_HAL_Driver/Inc/stm32wbxx_ll_exti.h **** /** @defgroup EXTI_LL_Private_Macros EXTI Private Macros
  47:Drivers/STM32WBxx_HAL_Driver/Inc/stm32wbxx_ll_exti.h ****   * @{
  48:Drivers/STM32WBxx_HAL_Driver/Inc/stm32wbxx_ll_exti.h ****   */
  49:Drivers/STM32WBxx_HAL_Driver/Inc/stm32wbxx_ll_exti.h **** /**
  50:Drivers/STM32WBxx_HAL_Driver/Inc/stm32wbxx_ll_exti.h ****   * @}
  51:Drivers/STM32WBxx_HAL_Driver/Inc/stm32wbxx_ll_exti.h ****   */
  52:Drivers/STM32WBxx_HAL_Driver/Inc/stm32wbxx_ll_exti.h **** #endif /*USE_FULL_LL_DRIVER*/
  53:Drivers/STM32WBxx_HAL_Driver/Inc/stm32wbxx_ll_exti.h **** /* Exported types ------------------------------------------------------------*/
  54:Drivers/STM32WBxx_HAL_Driver/Inc/stm32wbxx_ll_exti.h **** #if defined(USE_FULL_LL_DRIVER)
  55:Drivers/STM32WBxx_HAL_Driver/Inc/stm32wbxx_ll_exti.h **** /** @defgroup EXTI_LL_ES_INIT EXTI Exported Init structure
  56:Drivers/STM32WBxx_HAL_Driver/Inc/stm32wbxx_ll_exti.h ****   * @{
  57:Drivers/STM32WBxx_HAL_Driver/Inc/stm32wbxx_ll_exti.h ****   */
  58:Drivers/STM32WBxx_HAL_Driver/Inc/stm32wbxx_ll_exti.h **** typedef struct
  59:Drivers/STM32WBxx_HAL_Driver/Inc/stm32wbxx_ll_exti.h **** {
  60:Drivers/STM32WBxx_HAL_Driver/Inc/stm32wbxx_ll_exti.h **** 
  61:Drivers/STM32WBxx_HAL_Driver/Inc/stm32wbxx_ll_exti.h ****   uint32_t Line_0_31;           /*!< Specifies the EXTI lines to be enabled or disabled for Lines i
  62:Drivers/STM32WBxx_HAL_Driver/Inc/stm32wbxx_ll_exti.h ****                                      This parameter can be any combination of @ref EXTI_LL_EC_LINE 
  63:Drivers/STM32WBxx_HAL_Driver/Inc/stm32wbxx_ll_exti.h **** 
  64:Drivers/STM32WBxx_HAL_Driver/Inc/stm32wbxx_ll_exti.h ****   uint32_t Line_32_63;          /*!< Specifies the EXTI lines to be enabled or disabled for Lines i
  65:Drivers/STM32WBxx_HAL_Driver/Inc/stm32wbxx_ll_exti.h ****                                      This parameter can be any combination of @ref EXTI_LL_EC_LINE 
  66:Drivers/STM32WBxx_HAL_Driver/Inc/stm32wbxx_ll_exti.h **** 
  67:Drivers/STM32WBxx_HAL_Driver/Inc/stm32wbxx_ll_exti.h ****   FunctionalState LineCommand;  /*!< Specifies the new state of the selected EXTI lines.
  68:Drivers/STM32WBxx_HAL_Driver/Inc/stm32wbxx_ll_exti.h ****                                      This parameter can be set either to ENABLE or DISABLE */
  69:Drivers/STM32WBxx_HAL_Driver/Inc/stm32wbxx_ll_exti.h **** 
  70:Drivers/STM32WBxx_HAL_Driver/Inc/stm32wbxx_ll_exti.h ****   uint8_t Mode;                 /*!< Specifies the mode for the EXTI lines.
  71:Drivers/STM32WBxx_HAL_Driver/Inc/stm32wbxx_ll_exti.h ****                                      This parameter can be a value of @ref EXTI_LL_EC_MODE. */
  72:Drivers/STM32WBxx_HAL_Driver/Inc/stm32wbxx_ll_exti.h **** 
  73:Drivers/STM32WBxx_HAL_Driver/Inc/stm32wbxx_ll_exti.h ****   uint8_t Trigger;              /*!< Specifies the trigger signal active edge for the EXTI lines.
  74:Drivers/STM32WBxx_HAL_Driver/Inc/stm32wbxx_ll_exti.h ****                                      This parameter can be a value of @ref EXTI_LL_EC_TRIGGER. */
  75:Drivers/STM32WBxx_HAL_Driver/Inc/stm32wbxx_ll_exti.h **** } LL_EXTI_InitTypeDef;
ARM GAS  /tmp/cczZhyqe.s 			page 12


  76:Drivers/STM32WBxx_HAL_Driver/Inc/stm32wbxx_ll_exti.h **** 
  77:Drivers/STM32WBxx_HAL_Driver/Inc/stm32wbxx_ll_exti.h **** /**
  78:Drivers/STM32WBxx_HAL_Driver/Inc/stm32wbxx_ll_exti.h ****   * @}
  79:Drivers/STM32WBxx_HAL_Driver/Inc/stm32wbxx_ll_exti.h ****   */
  80:Drivers/STM32WBxx_HAL_Driver/Inc/stm32wbxx_ll_exti.h **** #endif /*USE_FULL_LL_DRIVER*/
  81:Drivers/STM32WBxx_HAL_Driver/Inc/stm32wbxx_ll_exti.h **** 
  82:Drivers/STM32WBxx_HAL_Driver/Inc/stm32wbxx_ll_exti.h **** /* Exported constants --------------------------------------------------------*/
  83:Drivers/STM32WBxx_HAL_Driver/Inc/stm32wbxx_ll_exti.h **** /** @defgroup EXTI_LL_Exported_Constants EXTI Exported Constants
  84:Drivers/STM32WBxx_HAL_Driver/Inc/stm32wbxx_ll_exti.h ****   * @{
  85:Drivers/STM32WBxx_HAL_Driver/Inc/stm32wbxx_ll_exti.h ****   */
  86:Drivers/STM32WBxx_HAL_Driver/Inc/stm32wbxx_ll_exti.h **** 
  87:Drivers/STM32WBxx_HAL_Driver/Inc/stm32wbxx_ll_exti.h **** /** @defgroup EXTI_LL_EC_LINE LINE
  88:Drivers/STM32WBxx_HAL_Driver/Inc/stm32wbxx_ll_exti.h ****   * @{
  89:Drivers/STM32WBxx_HAL_Driver/Inc/stm32wbxx_ll_exti.h ****   */
  90:Drivers/STM32WBxx_HAL_Driver/Inc/stm32wbxx_ll_exti.h **** #define LL_EXTI_LINE_0                 EXTI_IMR1_IM0           /*!< Extended line 0 */
  91:Drivers/STM32WBxx_HAL_Driver/Inc/stm32wbxx_ll_exti.h **** #define LL_EXTI_LINE_1                 EXTI_IMR1_IM1           /*!< Extended line 1 */
  92:Drivers/STM32WBxx_HAL_Driver/Inc/stm32wbxx_ll_exti.h **** #define LL_EXTI_LINE_2                 EXTI_IMR1_IM2           /*!< Extended line 2 */
  93:Drivers/STM32WBxx_HAL_Driver/Inc/stm32wbxx_ll_exti.h **** #define LL_EXTI_LINE_3                 EXTI_IMR1_IM3           /*!< Extended line 3 */
  94:Drivers/STM32WBxx_HAL_Driver/Inc/stm32wbxx_ll_exti.h **** #define LL_EXTI_LINE_4                 EXTI_IMR1_IM4           /*!< Extended line 4 */
  95:Drivers/STM32WBxx_HAL_Driver/Inc/stm32wbxx_ll_exti.h **** #define LL_EXTI_LINE_5                 EXTI_IMR1_IM5           /*!< Extended line 5 */
  96:Drivers/STM32WBxx_HAL_Driver/Inc/stm32wbxx_ll_exti.h **** #define LL_EXTI_LINE_6                 EXTI_IMR1_IM6           /*!< Extended line 6 */
  97:Drivers/STM32WBxx_HAL_Driver/Inc/stm32wbxx_ll_exti.h **** #define LL_EXTI_LINE_7                 EXTI_IMR1_IM7           /*!< Extended line 7 */
  98:Drivers/STM32WBxx_HAL_Driver/Inc/stm32wbxx_ll_exti.h **** #define LL_EXTI_LINE_8                 EXTI_IMR1_IM8           /*!< Extended line 8 */
  99:Drivers/STM32WBxx_HAL_Driver/Inc/stm32wbxx_ll_exti.h **** #define LL_EXTI_LINE_9                 EXTI_IMR1_IM9           /*!< Extended line 9 */
 100:Drivers/STM32WBxx_HAL_Driver/Inc/stm32wbxx_ll_exti.h **** #define LL_EXTI_LINE_10                EXTI_IMR1_IM10          /*!< Extended line 10 */
 101:Drivers/STM32WBxx_HAL_Driver/Inc/stm32wbxx_ll_exti.h **** #define LL_EXTI_LINE_11                EXTI_IMR1_IM11          /*!< Extended line 11 */
 102:Drivers/STM32WBxx_HAL_Driver/Inc/stm32wbxx_ll_exti.h **** #define LL_EXTI_LINE_12                EXTI_IMR1_IM12          /*!< Extended line 12 */
 103:Drivers/STM32WBxx_HAL_Driver/Inc/stm32wbxx_ll_exti.h **** #define LL_EXTI_LINE_13                EXTI_IMR1_IM13          /*!< Extended line 13 */
 104:Drivers/STM32WBxx_HAL_Driver/Inc/stm32wbxx_ll_exti.h **** #define LL_EXTI_LINE_14                EXTI_IMR1_IM14          /*!< Extended line 14 */
 105:Drivers/STM32WBxx_HAL_Driver/Inc/stm32wbxx_ll_exti.h **** #define LL_EXTI_LINE_15                EXTI_IMR1_IM15          /*!< Extended line 15 */
 106:Drivers/STM32WBxx_HAL_Driver/Inc/stm32wbxx_ll_exti.h **** #define LL_EXTI_LINE_16                EXTI_IMR1_IM16          /*!< Extended line 16 */
 107:Drivers/STM32WBxx_HAL_Driver/Inc/stm32wbxx_ll_exti.h **** #define LL_EXTI_LINE_17                EXTI_IMR1_IM17          /*!< Extended line 17 */
 108:Drivers/STM32WBxx_HAL_Driver/Inc/stm32wbxx_ll_exti.h **** #define LL_EXTI_LINE_18                EXTI_IMR1_IM18          /*!< Extended line 18 */
 109:Drivers/STM32WBxx_HAL_Driver/Inc/stm32wbxx_ll_exti.h **** #define LL_EXTI_LINE_19                EXTI_IMR1_IM19          /*!< Extended line 19 */
 110:Drivers/STM32WBxx_HAL_Driver/Inc/stm32wbxx_ll_exti.h **** #if defined (STM32WB55xx) || defined (STM32WB5Mxx) || defined (STM32WB35xx) || defined (STM32WB15xx
 111:Drivers/STM32WBxx_HAL_Driver/Inc/stm32wbxx_ll_exti.h **** #define LL_EXTI_LINE_20                EXTI_IMR1_IM20          /*!< Extended line 20 */
 112:Drivers/STM32WBxx_HAL_Driver/Inc/stm32wbxx_ll_exti.h **** #endif
 113:Drivers/STM32WBxx_HAL_Driver/Inc/stm32wbxx_ll_exti.h **** #if defined (STM32WB55xx) || defined (STM32WB5Mxx) || defined (STM32WB35xx)
 114:Drivers/STM32WBxx_HAL_Driver/Inc/stm32wbxx_ll_exti.h **** #define LL_EXTI_LINE_21                EXTI_IMR1_IM21          /*!< Extended line 21 */
 115:Drivers/STM32WBxx_HAL_Driver/Inc/stm32wbxx_ll_exti.h **** #endif
 116:Drivers/STM32WBxx_HAL_Driver/Inc/stm32wbxx_ll_exti.h **** #define LL_EXTI_LINE_22                EXTI_IMR1_IM22          /*!< Extended line 22 */
 117:Drivers/STM32WBxx_HAL_Driver/Inc/stm32wbxx_ll_exti.h **** #if defined (STM32WB55xx) || defined (STM32WB5Mxx) || defined (STM32WB35xx)
 118:Drivers/STM32WBxx_HAL_Driver/Inc/stm32wbxx_ll_exti.h **** #define LL_EXTI_LINE_23                EXTI_IMR1_IM23          /*!< Extended line 23 */
 119:Drivers/STM32WBxx_HAL_Driver/Inc/stm32wbxx_ll_exti.h **** #endif
 120:Drivers/STM32WBxx_HAL_Driver/Inc/stm32wbxx_ll_exti.h **** #define LL_EXTI_LINE_24                EXTI_IMR1_IM24          /*!< Extended line 24 */
 121:Drivers/STM32WBxx_HAL_Driver/Inc/stm32wbxx_ll_exti.h **** #if defined (STM32WB55xx) || defined (STM32WB5Mxx) || defined (STM32WB35xx) || defined (STM32WB15xx
 122:Drivers/STM32WBxx_HAL_Driver/Inc/stm32wbxx_ll_exti.h **** #define LL_EXTI_LINE_25                EXTI_IMR1_IM25          /*!< Extended line 25 */
 123:Drivers/STM32WBxx_HAL_Driver/Inc/stm32wbxx_ll_exti.h **** #endif
 124:Drivers/STM32WBxx_HAL_Driver/Inc/stm32wbxx_ll_exti.h **** #if defined (STM32WB55xx) || defined (STM32WB5Mxx) || defined (STM32WB35xx)
 125:Drivers/STM32WBxx_HAL_Driver/Inc/stm32wbxx_ll_exti.h **** #define LL_EXTI_LINE_28                EXTI_IMR1_IM28          /*!< Extended line 28 */
 126:Drivers/STM32WBxx_HAL_Driver/Inc/stm32wbxx_ll_exti.h **** #endif
 127:Drivers/STM32WBxx_HAL_Driver/Inc/stm32wbxx_ll_exti.h **** #define LL_EXTI_LINE_29                EXTI_IMR1_IM29          /*!< Extended line 29 */
 128:Drivers/STM32WBxx_HAL_Driver/Inc/stm32wbxx_ll_exti.h **** #define LL_EXTI_LINE_30                EXTI_IMR1_IM30          /*!< Extended line 30 */
 129:Drivers/STM32WBxx_HAL_Driver/Inc/stm32wbxx_ll_exti.h **** #if defined (STM32WB55xx) || defined (STM32WB5Mxx) || defined (STM32WB35xx) || defined (STM32WB15xx
 130:Drivers/STM32WBxx_HAL_Driver/Inc/stm32wbxx_ll_exti.h **** #define LL_EXTI_LINE_31                EXTI_IMR1_IM31          /*!< Extended line 31 */
 131:Drivers/STM32WBxx_HAL_Driver/Inc/stm32wbxx_ll_exti.h **** #endif
 132:Drivers/STM32WBxx_HAL_Driver/Inc/stm32wbxx_ll_exti.h **** 
ARM GAS  /tmp/cczZhyqe.s 			page 13


 133:Drivers/STM32WBxx_HAL_Driver/Inc/stm32wbxx_ll_exti.h **** #if defined (STM32WB55xx) || defined (STM32WB5Mxx) || defined (STM32WB35xx)
 134:Drivers/STM32WBxx_HAL_Driver/Inc/stm32wbxx_ll_exti.h **** #define LL_EXTI_LINE_ALL_0_31          (LL_EXTI_LINE_0 | LL_EXTI_LINE_1 | LL_EXTI_LINE_2 | \
 135:Drivers/STM32WBxx_HAL_Driver/Inc/stm32wbxx_ll_exti.h ****                                         LL_EXTI_LINE_3 | LL_EXTI_LINE_4 | LL_EXTI_LINE_5 | \
 136:Drivers/STM32WBxx_HAL_Driver/Inc/stm32wbxx_ll_exti.h ****                                         LL_EXTI_LINE_6 | LL_EXTI_LINE_7 | LL_EXTI_LINE_8 | \
 137:Drivers/STM32WBxx_HAL_Driver/Inc/stm32wbxx_ll_exti.h ****                                         LL_EXTI_LINE_9 | LL_EXTI_LINE_10 | LL_EXTI_LINE_11 | \
 138:Drivers/STM32WBxx_HAL_Driver/Inc/stm32wbxx_ll_exti.h ****                                         LL_EXTI_LINE_12 | LL_EXTI_LINE_13 | LL_EXTI_LINE_14 | \
 139:Drivers/STM32WBxx_HAL_Driver/Inc/stm32wbxx_ll_exti.h ****                                         LL_EXTI_LINE_15 | LL_EXTI_LINE_16 | LL_EXTI_LINE_17 | \
 140:Drivers/STM32WBxx_HAL_Driver/Inc/stm32wbxx_ll_exti.h ****                                         LL_EXTI_LINE_18 | LL_EXTI_LINE_19 | LL_EXTI_LINE_20 | \
 141:Drivers/STM32WBxx_HAL_Driver/Inc/stm32wbxx_ll_exti.h ****                                         LL_EXTI_LINE_21 | LL_EXTI_LINE_22 | LL_EXTI_LINE_23 | \
 142:Drivers/STM32WBxx_HAL_Driver/Inc/stm32wbxx_ll_exti.h ****                                         LL_EXTI_LINE_24 | LL_EXTI_LINE_25 | LL_EXTI_LINE_28 | \
 143:Drivers/STM32WBxx_HAL_Driver/Inc/stm32wbxx_ll_exti.h ****                                         LL_EXTI_LINE_29 | LL_EXTI_LINE_30 | LL_EXTI_LINE_31) /*!< A
 144:Drivers/STM32WBxx_HAL_Driver/Inc/stm32wbxx_ll_exti.h **** #elif defined (STM32WB15xx)
 145:Drivers/STM32WBxx_HAL_Driver/Inc/stm32wbxx_ll_exti.h **** #define LL_EXTI_LINE_ALL_0_31          (LL_EXTI_LINE_0 | LL_EXTI_LINE_1 | LL_EXTI_LINE_2 | \
 146:Drivers/STM32WBxx_HAL_Driver/Inc/stm32wbxx_ll_exti.h ****                                         LL_EXTI_LINE_3 | LL_EXTI_LINE_4 | LL_EXTI_LINE_5 | \
 147:Drivers/STM32WBxx_HAL_Driver/Inc/stm32wbxx_ll_exti.h ****                                         LL_EXTI_LINE_6 | LL_EXTI_LINE_7 | LL_EXTI_LINE_8 | \
 148:Drivers/STM32WBxx_HAL_Driver/Inc/stm32wbxx_ll_exti.h ****                                         LL_EXTI_LINE_9 | LL_EXTI_LINE_10 | LL_EXTI_LINE_11 | \
 149:Drivers/STM32WBxx_HAL_Driver/Inc/stm32wbxx_ll_exti.h ****                                         LL_EXTI_LINE_12 | LL_EXTI_LINE_13 | LL_EXTI_LINE_14 | \
 150:Drivers/STM32WBxx_HAL_Driver/Inc/stm32wbxx_ll_exti.h ****                                         LL_EXTI_LINE_15 | LL_EXTI_LINE_16 | LL_EXTI_LINE_17 | \
 151:Drivers/STM32WBxx_HAL_Driver/Inc/stm32wbxx_ll_exti.h ****                                         LL_EXTI_LINE_18 | LL_EXTI_LINE_19 | LL_EXTI_LINE_20 | \
 152:Drivers/STM32WBxx_HAL_Driver/Inc/stm32wbxx_ll_exti.h ****                                         LL_EXTI_LINE_22 | LL_EXTI_LINE_24 | LL_EXTI_LINE_25 | \
 153:Drivers/STM32WBxx_HAL_Driver/Inc/stm32wbxx_ll_exti.h ****                                         LL_EXTI_LINE_29 | LL_EXTI_LINE_30 | LL_EXTI_LINE_31) /*!< A
 154:Drivers/STM32WBxx_HAL_Driver/Inc/stm32wbxx_ll_exti.h **** #else
 155:Drivers/STM32WBxx_HAL_Driver/Inc/stm32wbxx_ll_exti.h **** #define LL_EXTI_LINE_ALL_0_31          (LL_EXTI_LINE_0 | LL_EXTI_LINE_1 | LL_EXTI_LINE_2 | \
 156:Drivers/STM32WBxx_HAL_Driver/Inc/stm32wbxx_ll_exti.h ****                                         LL_EXTI_LINE_3 | LL_EXTI_LINE_4 | LL_EXTI_LINE_5 | \
 157:Drivers/STM32WBxx_HAL_Driver/Inc/stm32wbxx_ll_exti.h ****                                         LL_EXTI_LINE_6 | LL_EXTI_LINE_7 | LL_EXTI_LINE_8 | \
 158:Drivers/STM32WBxx_HAL_Driver/Inc/stm32wbxx_ll_exti.h ****                                         LL_EXTI_LINE_9 | LL_EXTI_LINE_10 | LL_EXTI_LINE_11 | \
 159:Drivers/STM32WBxx_HAL_Driver/Inc/stm32wbxx_ll_exti.h ****                                         LL_EXTI_LINE_12 | LL_EXTI_LINE_13 | LL_EXTI_LINE_14 | \
 160:Drivers/STM32WBxx_HAL_Driver/Inc/stm32wbxx_ll_exti.h ****                                         LL_EXTI_LINE_15 | LL_EXTI_LINE_16 | LL_EXTI_LINE_17 | \
 161:Drivers/STM32WBxx_HAL_Driver/Inc/stm32wbxx_ll_exti.h ****                                         LL_EXTI_LINE_18 | LL_EXTI_LINE_19 | LL_EXTI_LINE_22 | \
 162:Drivers/STM32WBxx_HAL_Driver/Inc/stm32wbxx_ll_exti.h ****                                         LL_EXTI_LINE_24 | LL_EXTI_LINE_29 | LL_EXTI_LINE_30) /*!< A
 163:Drivers/STM32WBxx_HAL_Driver/Inc/stm32wbxx_ll_exti.h **** #endif
 164:Drivers/STM32WBxx_HAL_Driver/Inc/stm32wbxx_ll_exti.h **** 
 165:Drivers/STM32WBxx_HAL_Driver/Inc/stm32wbxx_ll_exti.h **** #define LL_EXTI_LINE_33                EXTI_IMR2_IM33          /*!< Extended line 33 */
 166:Drivers/STM32WBxx_HAL_Driver/Inc/stm32wbxx_ll_exti.h **** #define LL_EXTI_LINE_36                EXTI_IMR2_IM36          /*!< Extended line 36 */
 167:Drivers/STM32WBxx_HAL_Driver/Inc/stm32wbxx_ll_exti.h **** #define LL_EXTI_LINE_37                EXTI_IMR2_IM37          /*!< Extended line 37 */
 168:Drivers/STM32WBxx_HAL_Driver/Inc/stm32wbxx_ll_exti.h **** #define LL_EXTI_LINE_38                EXTI_IMR2_IM38          /*!< Extended line 38 */
 169:Drivers/STM32WBxx_HAL_Driver/Inc/stm32wbxx_ll_exti.h **** #define LL_EXTI_LINE_39                EXTI_IMR2_IM39          /*!< Extended line 39 */
 170:Drivers/STM32WBxx_HAL_Driver/Inc/stm32wbxx_ll_exti.h **** #define LL_EXTI_LINE_40                EXTI_IMR2_IM40          /*!< Extended line 40 */
 171:Drivers/STM32WBxx_HAL_Driver/Inc/stm32wbxx_ll_exti.h **** #define LL_EXTI_LINE_41                EXTI_IMR2_IM41          /*!< Extended line 41 */
 172:Drivers/STM32WBxx_HAL_Driver/Inc/stm32wbxx_ll_exti.h **** #define LL_EXTI_LINE_42                EXTI_IMR2_IM42          /*!< Extended line 42 */
 173:Drivers/STM32WBxx_HAL_Driver/Inc/stm32wbxx_ll_exti.h **** #if defined (STM32WB55xx) || defined (STM32WB5Mxx)
 174:Drivers/STM32WBxx_HAL_Driver/Inc/stm32wbxx_ll_exti.h **** #define LL_EXTI_LINE_43                EXTI_IMR2_IM43          /*!< Extended line 43 */
 175:Drivers/STM32WBxx_HAL_Driver/Inc/stm32wbxx_ll_exti.h **** #endif
 176:Drivers/STM32WBxx_HAL_Driver/Inc/stm32wbxx_ll_exti.h **** #define LL_EXTI_LINE_44                EXTI_IMR2_IM44          /*!< Extended line 44 */
 177:Drivers/STM32WBxx_HAL_Driver/Inc/stm32wbxx_ll_exti.h **** #define LL_EXTI_LINE_45                EXTI_IMR2_IM45          /*!< Extended line 45 */
 178:Drivers/STM32WBxx_HAL_Driver/Inc/stm32wbxx_ll_exti.h **** #if defined (STM32WB55xx) || defined (STM32WB5Mxx) || defined (STM32WB50xx) || defined (STM32WB35xx
 179:Drivers/STM32WBxx_HAL_Driver/Inc/stm32wbxx_ll_exti.h **** #define LL_EXTI_LINE_46                EXTI_IMR2_IM46          /*!< Extended line 46 */
 180:Drivers/STM32WBxx_HAL_Driver/Inc/stm32wbxx_ll_exti.h **** #endif
 181:Drivers/STM32WBxx_HAL_Driver/Inc/stm32wbxx_ll_exti.h **** #define LL_EXTI_LINE_48                EXTI_IMR2_IM48          /*!< Extended line 48 */
 182:Drivers/STM32WBxx_HAL_Driver/Inc/stm32wbxx_ll_exti.h **** 
 183:Drivers/STM32WBxx_HAL_Driver/Inc/stm32wbxx_ll_exti.h **** #if defined (STM32WB55xx) || defined (STM32WB5Mxx)
 184:Drivers/STM32WBxx_HAL_Driver/Inc/stm32wbxx_ll_exti.h **** #define LL_EXTI_LINE_ALL_32_63         (LL_EXTI_LINE_33 | LL_EXTI_LINE_36 | LL_EXTI_LINE_37 | \
 185:Drivers/STM32WBxx_HAL_Driver/Inc/stm32wbxx_ll_exti.h ****                                         LL_EXTI_LINE_38 | LL_EXTI_LINE_39 | LL_EXTI_LINE_40 | \
 186:Drivers/STM32WBxx_HAL_Driver/Inc/stm32wbxx_ll_exti.h ****                                         LL_EXTI_LINE_41 | LL_EXTI_LINE_42 | LL_EXTI_LINE_43 | \
 187:Drivers/STM32WBxx_HAL_Driver/Inc/stm32wbxx_ll_exti.h ****                                         LL_EXTI_LINE_44 | LL_EXTI_LINE_45 | LL_EXTI_LINE_46 | \
 188:Drivers/STM32WBxx_HAL_Driver/Inc/stm32wbxx_ll_exti.h ****                                         LL_EXTI_LINE_48)                    /*!< All Extended line 
 189:Drivers/STM32WBxx_HAL_Driver/Inc/stm32wbxx_ll_exti.h **** #elif defined (STM32WB50xx) || defined (STM32WB35xx) || defined (STM32WB30xx)
ARM GAS  /tmp/cczZhyqe.s 			page 14


 190:Drivers/STM32WBxx_HAL_Driver/Inc/stm32wbxx_ll_exti.h **** #define LL_EXTI_LINE_ALL_32_63         (LL_EXTI_LINE_33 | LL_EXTI_LINE_36 | LL_EXTI_LINE_37 | \
 191:Drivers/STM32WBxx_HAL_Driver/Inc/stm32wbxx_ll_exti.h ****                                         LL_EXTI_LINE_38 | LL_EXTI_LINE_39 | LL_EXTI_LINE_40 | \
 192:Drivers/STM32WBxx_HAL_Driver/Inc/stm32wbxx_ll_exti.h ****                                         LL_EXTI_LINE_41 | LL_EXTI_LINE_42 | LL_EXTI_LINE_44 | \
 193:Drivers/STM32WBxx_HAL_Driver/Inc/stm32wbxx_ll_exti.h ****                                         LL_EXTI_LINE_45 | LL_EXTI_LINE_46 | LL_EXTI_LINE_48)  /*!< 
 194:Drivers/STM32WBxx_HAL_Driver/Inc/stm32wbxx_ll_exti.h **** #else
 195:Drivers/STM32WBxx_HAL_Driver/Inc/stm32wbxx_ll_exti.h **** #define LL_EXTI_LINE_ALL_32_63         (LL_EXTI_LINE_33 | LL_EXTI_LINE_36 | LL_EXTI_LINE_37 | \
 196:Drivers/STM32WBxx_HAL_Driver/Inc/stm32wbxx_ll_exti.h ****                                         LL_EXTI_LINE_38 | LL_EXTI_LINE_39 | LL_EXTI_LINE_40 | \
 197:Drivers/STM32WBxx_HAL_Driver/Inc/stm32wbxx_ll_exti.h ****                                         LL_EXTI_LINE_41 | LL_EXTI_LINE_42 | LL_EXTI_LINE_44 | \
 198:Drivers/STM32WBxx_HAL_Driver/Inc/stm32wbxx_ll_exti.h ****                                         LL_EXTI_LINE_45 | LL_EXTI_LINE_48)  /*!< All Extended line 
 199:Drivers/STM32WBxx_HAL_Driver/Inc/stm32wbxx_ll_exti.h **** #endif
 200:Drivers/STM32WBxx_HAL_Driver/Inc/stm32wbxx_ll_exti.h **** 
 201:Drivers/STM32WBxx_HAL_Driver/Inc/stm32wbxx_ll_exti.h **** 
 202:Drivers/STM32WBxx_HAL_Driver/Inc/stm32wbxx_ll_exti.h **** #define LL_EXTI_LINE_ALL               (0xFFFFFFFFU)  /*!< All Extended line */
 203:Drivers/STM32WBxx_HAL_Driver/Inc/stm32wbxx_ll_exti.h **** 
 204:Drivers/STM32WBxx_HAL_Driver/Inc/stm32wbxx_ll_exti.h **** #if defined(USE_FULL_LL_DRIVER)
 205:Drivers/STM32WBxx_HAL_Driver/Inc/stm32wbxx_ll_exti.h **** #define LL_EXTI_LINE_NONE              (0x00000000U)  /*!< None Extended line */
 206:Drivers/STM32WBxx_HAL_Driver/Inc/stm32wbxx_ll_exti.h **** #endif /*USE_FULL_LL_DRIVER*/
 207:Drivers/STM32WBxx_HAL_Driver/Inc/stm32wbxx_ll_exti.h **** 
 208:Drivers/STM32WBxx_HAL_Driver/Inc/stm32wbxx_ll_exti.h **** /**
 209:Drivers/STM32WBxx_HAL_Driver/Inc/stm32wbxx_ll_exti.h ****   * @}
 210:Drivers/STM32WBxx_HAL_Driver/Inc/stm32wbxx_ll_exti.h ****   */
 211:Drivers/STM32WBxx_HAL_Driver/Inc/stm32wbxx_ll_exti.h **** #if defined(USE_FULL_LL_DRIVER)
 212:Drivers/STM32WBxx_HAL_Driver/Inc/stm32wbxx_ll_exti.h **** 
 213:Drivers/STM32WBxx_HAL_Driver/Inc/stm32wbxx_ll_exti.h **** /** @defgroup EXTI_LL_EC_MODE Mode
 214:Drivers/STM32WBxx_HAL_Driver/Inc/stm32wbxx_ll_exti.h ****   * @{
 215:Drivers/STM32WBxx_HAL_Driver/Inc/stm32wbxx_ll_exti.h ****   */
 216:Drivers/STM32WBxx_HAL_Driver/Inc/stm32wbxx_ll_exti.h **** #define LL_EXTI_MODE_IT                 ((uint8_t)0x00U) /*!< Interrupt Mode */
 217:Drivers/STM32WBxx_HAL_Driver/Inc/stm32wbxx_ll_exti.h **** #define LL_EXTI_MODE_EVENT              ((uint8_t)0x01U) /*!< Event Mode */
 218:Drivers/STM32WBxx_HAL_Driver/Inc/stm32wbxx_ll_exti.h **** #define LL_EXTI_MODE_IT_EVENT           ((uint8_t)0x02U) /*!< Interrupt & Event Mode */
 219:Drivers/STM32WBxx_HAL_Driver/Inc/stm32wbxx_ll_exti.h **** /**
 220:Drivers/STM32WBxx_HAL_Driver/Inc/stm32wbxx_ll_exti.h ****   * @}
 221:Drivers/STM32WBxx_HAL_Driver/Inc/stm32wbxx_ll_exti.h ****   */
 222:Drivers/STM32WBxx_HAL_Driver/Inc/stm32wbxx_ll_exti.h **** 
 223:Drivers/STM32WBxx_HAL_Driver/Inc/stm32wbxx_ll_exti.h **** /** @defgroup EXTI_LL_EC_TRIGGER Edge Trigger
 224:Drivers/STM32WBxx_HAL_Driver/Inc/stm32wbxx_ll_exti.h ****   * @{
 225:Drivers/STM32WBxx_HAL_Driver/Inc/stm32wbxx_ll_exti.h ****   */
 226:Drivers/STM32WBxx_HAL_Driver/Inc/stm32wbxx_ll_exti.h **** #define LL_EXTI_TRIGGER_NONE            ((uint8_t)0x00U) /*!< No Trigger Mode */
 227:Drivers/STM32WBxx_HAL_Driver/Inc/stm32wbxx_ll_exti.h **** #define LL_EXTI_TRIGGER_RISING          ((uint8_t)0x01U) /*!< Trigger Rising Mode */
 228:Drivers/STM32WBxx_HAL_Driver/Inc/stm32wbxx_ll_exti.h **** #define LL_EXTI_TRIGGER_FALLING         ((uint8_t)0x02U) /*!< Trigger Falling Mode */
 229:Drivers/STM32WBxx_HAL_Driver/Inc/stm32wbxx_ll_exti.h **** #define LL_EXTI_TRIGGER_RISING_FALLING  ((uint8_t)0x03U) /*!< Trigger Rising & Falling Mode */
 230:Drivers/STM32WBxx_HAL_Driver/Inc/stm32wbxx_ll_exti.h **** 
 231:Drivers/STM32WBxx_HAL_Driver/Inc/stm32wbxx_ll_exti.h **** /**
 232:Drivers/STM32WBxx_HAL_Driver/Inc/stm32wbxx_ll_exti.h ****   * @}
 233:Drivers/STM32WBxx_HAL_Driver/Inc/stm32wbxx_ll_exti.h ****   */
 234:Drivers/STM32WBxx_HAL_Driver/Inc/stm32wbxx_ll_exti.h **** 
 235:Drivers/STM32WBxx_HAL_Driver/Inc/stm32wbxx_ll_exti.h **** 
 236:Drivers/STM32WBxx_HAL_Driver/Inc/stm32wbxx_ll_exti.h **** #endif /*USE_FULL_LL_DRIVER*/
 237:Drivers/STM32WBxx_HAL_Driver/Inc/stm32wbxx_ll_exti.h **** 
 238:Drivers/STM32WBxx_HAL_Driver/Inc/stm32wbxx_ll_exti.h **** 
 239:Drivers/STM32WBxx_HAL_Driver/Inc/stm32wbxx_ll_exti.h **** /**
 240:Drivers/STM32WBxx_HAL_Driver/Inc/stm32wbxx_ll_exti.h ****   * @}
 241:Drivers/STM32WBxx_HAL_Driver/Inc/stm32wbxx_ll_exti.h ****   */
 242:Drivers/STM32WBxx_HAL_Driver/Inc/stm32wbxx_ll_exti.h **** 
 243:Drivers/STM32WBxx_HAL_Driver/Inc/stm32wbxx_ll_exti.h **** /* Exported macro ------------------------------------------------------------*/
 244:Drivers/STM32WBxx_HAL_Driver/Inc/stm32wbxx_ll_exti.h **** /** @defgroup EXTI_LL_Exported_Macros EXTI Exported Macros
 245:Drivers/STM32WBxx_HAL_Driver/Inc/stm32wbxx_ll_exti.h ****   * @{
 246:Drivers/STM32WBxx_HAL_Driver/Inc/stm32wbxx_ll_exti.h ****   */
ARM GAS  /tmp/cczZhyqe.s 			page 15


 247:Drivers/STM32WBxx_HAL_Driver/Inc/stm32wbxx_ll_exti.h **** 
 248:Drivers/STM32WBxx_HAL_Driver/Inc/stm32wbxx_ll_exti.h **** /** @defgroup EXTI_LL_EM_WRITE_READ Common Write and read registers Macros
 249:Drivers/STM32WBxx_HAL_Driver/Inc/stm32wbxx_ll_exti.h ****   * @{
 250:Drivers/STM32WBxx_HAL_Driver/Inc/stm32wbxx_ll_exti.h ****   */
 251:Drivers/STM32WBxx_HAL_Driver/Inc/stm32wbxx_ll_exti.h **** 
 252:Drivers/STM32WBxx_HAL_Driver/Inc/stm32wbxx_ll_exti.h **** /**
 253:Drivers/STM32WBxx_HAL_Driver/Inc/stm32wbxx_ll_exti.h ****   * @brief  Write a value in EXTI register
 254:Drivers/STM32WBxx_HAL_Driver/Inc/stm32wbxx_ll_exti.h ****   * @param  __REG__ Register to be written
 255:Drivers/STM32WBxx_HAL_Driver/Inc/stm32wbxx_ll_exti.h ****   * @param  __VALUE__ Value to be written in the register
 256:Drivers/STM32WBxx_HAL_Driver/Inc/stm32wbxx_ll_exti.h ****   * @retval None
 257:Drivers/STM32WBxx_HAL_Driver/Inc/stm32wbxx_ll_exti.h ****   */
 258:Drivers/STM32WBxx_HAL_Driver/Inc/stm32wbxx_ll_exti.h **** #define LL_EXTI_WriteReg(__REG__, __VALUE__) WRITE_REG(EXTI->__REG__, (__VALUE__))
 259:Drivers/STM32WBxx_HAL_Driver/Inc/stm32wbxx_ll_exti.h **** 
 260:Drivers/STM32WBxx_HAL_Driver/Inc/stm32wbxx_ll_exti.h **** /**
 261:Drivers/STM32WBxx_HAL_Driver/Inc/stm32wbxx_ll_exti.h ****   * @brief  Read a value in EXTI register
 262:Drivers/STM32WBxx_HAL_Driver/Inc/stm32wbxx_ll_exti.h ****   * @param  __REG__ Register to be read
 263:Drivers/STM32WBxx_HAL_Driver/Inc/stm32wbxx_ll_exti.h ****   * @retval Register value
 264:Drivers/STM32WBxx_HAL_Driver/Inc/stm32wbxx_ll_exti.h ****   */
 265:Drivers/STM32WBxx_HAL_Driver/Inc/stm32wbxx_ll_exti.h **** #define LL_EXTI_ReadReg(__REG__) READ_REG(EXTI->__REG__)
 266:Drivers/STM32WBxx_HAL_Driver/Inc/stm32wbxx_ll_exti.h **** /**
 267:Drivers/STM32WBxx_HAL_Driver/Inc/stm32wbxx_ll_exti.h ****   * @}
 268:Drivers/STM32WBxx_HAL_Driver/Inc/stm32wbxx_ll_exti.h ****   */
 269:Drivers/STM32WBxx_HAL_Driver/Inc/stm32wbxx_ll_exti.h **** 
 270:Drivers/STM32WBxx_HAL_Driver/Inc/stm32wbxx_ll_exti.h **** 
 271:Drivers/STM32WBxx_HAL_Driver/Inc/stm32wbxx_ll_exti.h **** /**
 272:Drivers/STM32WBxx_HAL_Driver/Inc/stm32wbxx_ll_exti.h ****   * @}
 273:Drivers/STM32WBxx_HAL_Driver/Inc/stm32wbxx_ll_exti.h ****   */
 274:Drivers/STM32WBxx_HAL_Driver/Inc/stm32wbxx_ll_exti.h **** 
 275:Drivers/STM32WBxx_HAL_Driver/Inc/stm32wbxx_ll_exti.h **** 
 276:Drivers/STM32WBxx_HAL_Driver/Inc/stm32wbxx_ll_exti.h **** 
 277:Drivers/STM32WBxx_HAL_Driver/Inc/stm32wbxx_ll_exti.h **** /* Exported functions --------------------------------------------------------*/
 278:Drivers/STM32WBxx_HAL_Driver/Inc/stm32wbxx_ll_exti.h **** /** @defgroup EXTI_LL_Exported_Functions EXTI Exported Functions
 279:Drivers/STM32WBxx_HAL_Driver/Inc/stm32wbxx_ll_exti.h ****  * @{
 280:Drivers/STM32WBxx_HAL_Driver/Inc/stm32wbxx_ll_exti.h ****  */
 281:Drivers/STM32WBxx_HAL_Driver/Inc/stm32wbxx_ll_exti.h **** /** @defgroup EXTI_LL_EF_IT_Management IT_Management
 282:Drivers/STM32WBxx_HAL_Driver/Inc/stm32wbxx_ll_exti.h ****   * @{
 283:Drivers/STM32WBxx_HAL_Driver/Inc/stm32wbxx_ll_exti.h ****   */
 284:Drivers/STM32WBxx_HAL_Driver/Inc/stm32wbxx_ll_exti.h **** 
 285:Drivers/STM32WBxx_HAL_Driver/Inc/stm32wbxx_ll_exti.h **** /**
 286:Drivers/STM32WBxx_HAL_Driver/Inc/stm32wbxx_ll_exti.h ****   * @brief  Enable ExtiLine Interrupt request for Lines in range 0 to 31
 287:Drivers/STM32WBxx_HAL_Driver/Inc/stm32wbxx_ll_exti.h ****   * @rmtoll IMR1         IMx           LL_EXTI_EnableIT_0_31
 288:Drivers/STM32WBxx_HAL_Driver/Inc/stm32wbxx_ll_exti.h ****   * @param  ExtiLine This parameter can be a combination of the following values:
 289:Drivers/STM32WBxx_HAL_Driver/Inc/stm32wbxx_ll_exti.h ****   *         @arg @ref LL_EXTI_LINE_0
 290:Drivers/STM32WBxx_HAL_Driver/Inc/stm32wbxx_ll_exti.h ****   *         @arg @ref LL_EXTI_LINE_1
 291:Drivers/STM32WBxx_HAL_Driver/Inc/stm32wbxx_ll_exti.h ****   *         @arg @ref LL_EXTI_LINE_2
 292:Drivers/STM32WBxx_HAL_Driver/Inc/stm32wbxx_ll_exti.h ****   *         @arg @ref LL_EXTI_LINE_3
 293:Drivers/STM32WBxx_HAL_Driver/Inc/stm32wbxx_ll_exti.h ****   *         @arg @ref LL_EXTI_LINE_4
 294:Drivers/STM32WBxx_HAL_Driver/Inc/stm32wbxx_ll_exti.h ****   *         @arg @ref LL_EXTI_LINE_5
 295:Drivers/STM32WBxx_HAL_Driver/Inc/stm32wbxx_ll_exti.h ****   *         @arg @ref LL_EXTI_LINE_6
 296:Drivers/STM32WBxx_HAL_Driver/Inc/stm32wbxx_ll_exti.h ****   *         @arg @ref LL_EXTI_LINE_7
 297:Drivers/STM32WBxx_HAL_Driver/Inc/stm32wbxx_ll_exti.h ****   *         @arg @ref LL_EXTI_LINE_8
 298:Drivers/STM32WBxx_HAL_Driver/Inc/stm32wbxx_ll_exti.h ****   *         @arg @ref LL_EXTI_LINE_9
 299:Drivers/STM32WBxx_HAL_Driver/Inc/stm32wbxx_ll_exti.h ****   *         @arg @ref LL_EXTI_LINE_10
 300:Drivers/STM32WBxx_HAL_Driver/Inc/stm32wbxx_ll_exti.h ****   *         @arg @ref LL_EXTI_LINE_11
 301:Drivers/STM32WBxx_HAL_Driver/Inc/stm32wbxx_ll_exti.h ****   *         @arg @ref LL_EXTI_LINE_12
 302:Drivers/STM32WBxx_HAL_Driver/Inc/stm32wbxx_ll_exti.h ****   *         @arg @ref LL_EXTI_LINE_13
 303:Drivers/STM32WBxx_HAL_Driver/Inc/stm32wbxx_ll_exti.h ****   *         @arg @ref LL_EXTI_LINE_14
ARM GAS  /tmp/cczZhyqe.s 			page 16


 304:Drivers/STM32WBxx_HAL_Driver/Inc/stm32wbxx_ll_exti.h ****   *         @arg @ref LL_EXTI_LINE_15
 305:Drivers/STM32WBxx_HAL_Driver/Inc/stm32wbxx_ll_exti.h ****   *         @arg @ref LL_EXTI_LINE_16
 306:Drivers/STM32WBxx_HAL_Driver/Inc/stm32wbxx_ll_exti.h ****   *         @arg @ref LL_EXTI_LINE_17
 307:Drivers/STM32WBxx_HAL_Driver/Inc/stm32wbxx_ll_exti.h ****   *         @arg @ref LL_EXTI_LINE_18
 308:Drivers/STM32WBxx_HAL_Driver/Inc/stm32wbxx_ll_exti.h ****   *         @arg @ref LL_EXTI_LINE_19
 309:Drivers/STM32WBxx_HAL_Driver/Inc/stm32wbxx_ll_exti.h ****   *         @arg @ref LL_EXTI_LINE_20 (*)
 310:Drivers/STM32WBxx_HAL_Driver/Inc/stm32wbxx_ll_exti.h ****   *         @arg @ref LL_EXTI_LINE_21 (*)
 311:Drivers/STM32WBxx_HAL_Driver/Inc/stm32wbxx_ll_exti.h ****   *         @arg @ref LL_EXTI_LINE_22
 312:Drivers/STM32WBxx_HAL_Driver/Inc/stm32wbxx_ll_exti.h ****   *         @arg @ref LL_EXTI_LINE_23 (*)
 313:Drivers/STM32WBxx_HAL_Driver/Inc/stm32wbxx_ll_exti.h ****   *         @arg @ref LL_EXTI_LINE_24
 314:Drivers/STM32WBxx_HAL_Driver/Inc/stm32wbxx_ll_exti.h ****   *         @arg @ref LL_EXTI_LINE_25 (*)
 315:Drivers/STM32WBxx_HAL_Driver/Inc/stm32wbxx_ll_exti.h ****   *         @arg @ref LL_EXTI_LINE_28 (*)
 316:Drivers/STM32WBxx_HAL_Driver/Inc/stm32wbxx_ll_exti.h ****   *         @arg @ref LL_EXTI_LINE_29
 317:Drivers/STM32WBxx_HAL_Driver/Inc/stm32wbxx_ll_exti.h ****   *         @arg @ref LL_EXTI_LINE_30
 318:Drivers/STM32WBxx_HAL_Driver/Inc/stm32wbxx_ll_exti.h ****   *         @arg @ref LL_EXTI_LINE_31 (*)
 319:Drivers/STM32WBxx_HAL_Driver/Inc/stm32wbxx_ll_exti.h ****   *         @arg @ref LL_EXTI_LINE_ALL_0_31
 320:Drivers/STM32WBxx_HAL_Driver/Inc/stm32wbxx_ll_exti.h ****   *         (*) value not defined in all devices
 321:Drivers/STM32WBxx_HAL_Driver/Inc/stm32wbxx_ll_exti.h ****   * @retval None
 322:Drivers/STM32WBxx_HAL_Driver/Inc/stm32wbxx_ll_exti.h ****   */
 323:Drivers/STM32WBxx_HAL_Driver/Inc/stm32wbxx_ll_exti.h **** __STATIC_INLINE void LL_EXTI_EnableIT_0_31(uint32_t ExtiLine)
 324:Drivers/STM32WBxx_HAL_Driver/Inc/stm32wbxx_ll_exti.h **** {
 325:Drivers/STM32WBxx_HAL_Driver/Inc/stm32wbxx_ll_exti.h ****   SET_BIT(EXTI->IMR1, ExtiLine);
 326:Drivers/STM32WBxx_HAL_Driver/Inc/stm32wbxx_ll_exti.h **** }
 327:Drivers/STM32WBxx_HAL_Driver/Inc/stm32wbxx_ll_exti.h **** 
 328:Drivers/STM32WBxx_HAL_Driver/Inc/stm32wbxx_ll_exti.h **** /**
 329:Drivers/STM32WBxx_HAL_Driver/Inc/stm32wbxx_ll_exti.h ****   * @brief  Enable ExtiLine Interrupt request for Lines in range 0 to 31 for cpu2
 330:Drivers/STM32WBxx_HAL_Driver/Inc/stm32wbxx_ll_exti.h ****   * @rmtoll C2IMR1         IMx           LL_C2_EXTI_EnableIT_0_31
 331:Drivers/STM32WBxx_HAL_Driver/Inc/stm32wbxx_ll_exti.h ****   * @param  ExtiLine This parameter can be a combination of the following values:
 332:Drivers/STM32WBxx_HAL_Driver/Inc/stm32wbxx_ll_exti.h ****   *         @arg @ref LL_EXTI_LINE_0
 333:Drivers/STM32WBxx_HAL_Driver/Inc/stm32wbxx_ll_exti.h ****   *         @arg @ref LL_EXTI_LINE_1
 334:Drivers/STM32WBxx_HAL_Driver/Inc/stm32wbxx_ll_exti.h ****   *         @arg @ref LL_EXTI_LINE_2
 335:Drivers/STM32WBxx_HAL_Driver/Inc/stm32wbxx_ll_exti.h ****   *         @arg @ref LL_EXTI_LINE_3
 336:Drivers/STM32WBxx_HAL_Driver/Inc/stm32wbxx_ll_exti.h ****   *         @arg @ref LL_EXTI_LINE_4
 337:Drivers/STM32WBxx_HAL_Driver/Inc/stm32wbxx_ll_exti.h ****   *         @arg @ref LL_EXTI_LINE_5
 338:Drivers/STM32WBxx_HAL_Driver/Inc/stm32wbxx_ll_exti.h ****   *         @arg @ref LL_EXTI_LINE_6
 339:Drivers/STM32WBxx_HAL_Driver/Inc/stm32wbxx_ll_exti.h ****   *         @arg @ref LL_EXTI_LINE_7
 340:Drivers/STM32WBxx_HAL_Driver/Inc/stm32wbxx_ll_exti.h ****   *         @arg @ref LL_EXTI_LINE_8
 341:Drivers/STM32WBxx_HAL_Driver/Inc/stm32wbxx_ll_exti.h ****   *         @arg @ref LL_EXTI_LINE_9
 342:Drivers/STM32WBxx_HAL_Driver/Inc/stm32wbxx_ll_exti.h ****   *         @arg @ref LL_EXTI_LINE_10
 343:Drivers/STM32WBxx_HAL_Driver/Inc/stm32wbxx_ll_exti.h ****   *         @arg @ref LL_EXTI_LINE_11
 344:Drivers/STM32WBxx_HAL_Driver/Inc/stm32wbxx_ll_exti.h ****   *         @arg @ref LL_EXTI_LINE_12
 345:Drivers/STM32WBxx_HAL_Driver/Inc/stm32wbxx_ll_exti.h ****   *         @arg @ref LL_EXTI_LINE_13
 346:Drivers/STM32WBxx_HAL_Driver/Inc/stm32wbxx_ll_exti.h ****   *         @arg @ref LL_EXTI_LINE_14
 347:Drivers/STM32WBxx_HAL_Driver/Inc/stm32wbxx_ll_exti.h ****   *         @arg @ref LL_EXTI_LINE_15
 348:Drivers/STM32WBxx_HAL_Driver/Inc/stm32wbxx_ll_exti.h ****   *         @arg @ref LL_EXTI_LINE_16
 349:Drivers/STM32WBxx_HAL_Driver/Inc/stm32wbxx_ll_exti.h ****   *         @arg @ref LL_EXTI_LINE_17
 350:Drivers/STM32WBxx_HAL_Driver/Inc/stm32wbxx_ll_exti.h ****   *         @arg @ref LL_EXTI_LINE_18
 351:Drivers/STM32WBxx_HAL_Driver/Inc/stm32wbxx_ll_exti.h ****   *         @arg @ref LL_EXTI_LINE_19
 352:Drivers/STM32WBxx_HAL_Driver/Inc/stm32wbxx_ll_exti.h ****   *         @arg @ref LL_EXTI_LINE_20 (*)
 353:Drivers/STM32WBxx_HAL_Driver/Inc/stm32wbxx_ll_exti.h ****   *         @arg @ref LL_EXTI_LINE_21 (*)
 354:Drivers/STM32WBxx_HAL_Driver/Inc/stm32wbxx_ll_exti.h ****   *         @arg @ref LL_EXTI_LINE_22
 355:Drivers/STM32WBxx_HAL_Driver/Inc/stm32wbxx_ll_exti.h ****   *         @arg @ref LL_EXTI_LINE_23 (*)
 356:Drivers/STM32WBxx_HAL_Driver/Inc/stm32wbxx_ll_exti.h ****   *         @arg @ref LL_EXTI_LINE_24
 357:Drivers/STM32WBxx_HAL_Driver/Inc/stm32wbxx_ll_exti.h ****   *         @arg @ref LL_EXTI_LINE_25 (*)
 358:Drivers/STM32WBxx_HAL_Driver/Inc/stm32wbxx_ll_exti.h ****   *         @arg @ref LL_EXTI_LINE_28 (*)
 359:Drivers/STM32WBxx_HAL_Driver/Inc/stm32wbxx_ll_exti.h ****   *         @arg @ref LL_EXTI_LINE_29
 360:Drivers/STM32WBxx_HAL_Driver/Inc/stm32wbxx_ll_exti.h ****   *         @arg @ref LL_EXTI_LINE_30
ARM GAS  /tmp/cczZhyqe.s 			page 17


 361:Drivers/STM32WBxx_HAL_Driver/Inc/stm32wbxx_ll_exti.h ****   *         @arg @ref LL_EXTI_LINE_31 (*)
 362:Drivers/STM32WBxx_HAL_Driver/Inc/stm32wbxx_ll_exti.h ****   *         @arg @ref LL_EXTI_LINE_ALL_0_31
 363:Drivers/STM32WBxx_HAL_Driver/Inc/stm32wbxx_ll_exti.h ****   *         (*) value not defined in all devices
 364:Drivers/STM32WBxx_HAL_Driver/Inc/stm32wbxx_ll_exti.h ****   * @retval None
 365:Drivers/STM32WBxx_HAL_Driver/Inc/stm32wbxx_ll_exti.h ****   */
 366:Drivers/STM32WBxx_HAL_Driver/Inc/stm32wbxx_ll_exti.h **** __STATIC_INLINE void LL_C2_EXTI_EnableIT_0_31(uint32_t ExtiLine)
 367:Drivers/STM32WBxx_HAL_Driver/Inc/stm32wbxx_ll_exti.h **** {
 368:Drivers/STM32WBxx_HAL_Driver/Inc/stm32wbxx_ll_exti.h ****   SET_BIT(EXTI->C2IMR1, ExtiLine);
 369:Drivers/STM32WBxx_HAL_Driver/Inc/stm32wbxx_ll_exti.h **** }
 370:Drivers/STM32WBxx_HAL_Driver/Inc/stm32wbxx_ll_exti.h **** 
 371:Drivers/STM32WBxx_HAL_Driver/Inc/stm32wbxx_ll_exti.h **** /**
 372:Drivers/STM32WBxx_HAL_Driver/Inc/stm32wbxx_ll_exti.h ****   * @brief  Enable ExtiLine Interrupt request for Lines in range 32 to 63
 373:Drivers/STM32WBxx_HAL_Driver/Inc/stm32wbxx_ll_exti.h ****   * @rmtoll IMR2         IMx           LL_EXTI_EnableIT_32_63
 374:Drivers/STM32WBxx_HAL_Driver/Inc/stm32wbxx_ll_exti.h ****   * @param  ExtiLine This parameter can be a combination of the following values:
 375:Drivers/STM32WBxx_HAL_Driver/Inc/stm32wbxx_ll_exti.h ****   *         @arg @ref LL_EXTI_LINE_33
 376:Drivers/STM32WBxx_HAL_Driver/Inc/stm32wbxx_ll_exti.h ****   *         @arg @ref LL_EXTI_LINE_36
 377:Drivers/STM32WBxx_HAL_Driver/Inc/stm32wbxx_ll_exti.h ****   *         @arg @ref LL_EXTI_LINE_37
 378:Drivers/STM32WBxx_HAL_Driver/Inc/stm32wbxx_ll_exti.h ****   *         @arg @ref LL_EXTI_LINE_38
 379:Drivers/STM32WBxx_HAL_Driver/Inc/stm32wbxx_ll_exti.h ****   *         @arg @ref LL_EXTI_LINE_39
 380:Drivers/STM32WBxx_HAL_Driver/Inc/stm32wbxx_ll_exti.h ****   *         @arg @ref LL_EXTI_LINE_40
 381:Drivers/STM32WBxx_HAL_Driver/Inc/stm32wbxx_ll_exti.h ****   *         @arg @ref LL_EXTI_LINE_41
 382:Drivers/STM32WBxx_HAL_Driver/Inc/stm32wbxx_ll_exti.h ****   *         @arg @ref LL_EXTI_LINE_42
 383:Drivers/STM32WBxx_HAL_Driver/Inc/stm32wbxx_ll_exti.h ****   *         @arg @ref LL_EXTI_LINE_43 (*)
 384:Drivers/STM32WBxx_HAL_Driver/Inc/stm32wbxx_ll_exti.h ****   *         @arg @ref LL_EXTI_LINE_44
 385:Drivers/STM32WBxx_HAL_Driver/Inc/stm32wbxx_ll_exti.h ****   *         @arg @ref LL_EXTI_LINE_45
 386:Drivers/STM32WBxx_HAL_Driver/Inc/stm32wbxx_ll_exti.h ****   *         @arg @ref LL_EXTI_LINE_46 (*)
 387:Drivers/STM32WBxx_HAL_Driver/Inc/stm32wbxx_ll_exti.h ****   *         @arg @ref LL_EXTI_LINE_48
 388:Drivers/STM32WBxx_HAL_Driver/Inc/stm32wbxx_ll_exti.h ****   *         @arg @ref LL_EXTI_LINE_ALL_32_63
 389:Drivers/STM32WBxx_HAL_Driver/Inc/stm32wbxx_ll_exti.h ****   *         (*) value not defined in all devices
 390:Drivers/STM32WBxx_HAL_Driver/Inc/stm32wbxx_ll_exti.h ****   * @retval None
 391:Drivers/STM32WBxx_HAL_Driver/Inc/stm32wbxx_ll_exti.h ****   */
 392:Drivers/STM32WBxx_HAL_Driver/Inc/stm32wbxx_ll_exti.h **** __STATIC_INLINE void LL_EXTI_EnableIT_32_63(uint32_t ExtiLine)
 393:Drivers/STM32WBxx_HAL_Driver/Inc/stm32wbxx_ll_exti.h **** {
 394:Drivers/STM32WBxx_HAL_Driver/Inc/stm32wbxx_ll_exti.h ****   SET_BIT(EXTI->IMR2, ExtiLine);
 395:Drivers/STM32WBxx_HAL_Driver/Inc/stm32wbxx_ll_exti.h **** }
 396:Drivers/STM32WBxx_HAL_Driver/Inc/stm32wbxx_ll_exti.h **** 
 397:Drivers/STM32WBxx_HAL_Driver/Inc/stm32wbxx_ll_exti.h **** /**
 398:Drivers/STM32WBxx_HAL_Driver/Inc/stm32wbxx_ll_exti.h ****   * @brief  Enable ExtiLine Interrupt request for Lines in range 32 to 63 for cpu2
 399:Drivers/STM32WBxx_HAL_Driver/Inc/stm32wbxx_ll_exti.h ****   * @rmtoll C2IMR2         IMx           LL_C2_EXTI_EnableIT_32_63
 400:Drivers/STM32WBxx_HAL_Driver/Inc/stm32wbxx_ll_exti.h ****   * @param  ExtiLine This parameter can be a combination of the following values:
 401:Drivers/STM32WBxx_HAL_Driver/Inc/stm32wbxx_ll_exti.h ****   *         @arg @ref LL_EXTI_LINE_33
 402:Drivers/STM32WBxx_HAL_Driver/Inc/stm32wbxx_ll_exti.h ****   *         @arg @ref LL_EXTI_LINE_36
 403:Drivers/STM32WBxx_HAL_Driver/Inc/stm32wbxx_ll_exti.h ****   *         @arg @ref LL_EXTI_LINE_37
 404:Drivers/STM32WBxx_HAL_Driver/Inc/stm32wbxx_ll_exti.h ****   *         @arg @ref LL_EXTI_LINE_38
 405:Drivers/STM32WBxx_HAL_Driver/Inc/stm32wbxx_ll_exti.h ****   *         @arg @ref LL_EXTI_LINE_39
 406:Drivers/STM32WBxx_HAL_Driver/Inc/stm32wbxx_ll_exti.h ****   *         @arg @ref LL_EXTI_LINE_40
 407:Drivers/STM32WBxx_HAL_Driver/Inc/stm32wbxx_ll_exti.h ****   *         @arg @ref LL_EXTI_LINE_41
 408:Drivers/STM32WBxx_HAL_Driver/Inc/stm32wbxx_ll_exti.h ****   *         @arg @ref LL_EXTI_LINE_42
 409:Drivers/STM32WBxx_HAL_Driver/Inc/stm32wbxx_ll_exti.h ****   *         @arg @ref LL_EXTI_LINE_43 (*)
 410:Drivers/STM32WBxx_HAL_Driver/Inc/stm32wbxx_ll_exti.h ****   *         @arg @ref LL_EXTI_LINE_44
 411:Drivers/STM32WBxx_HAL_Driver/Inc/stm32wbxx_ll_exti.h ****   *         @arg @ref LL_EXTI_LINE_45
 412:Drivers/STM32WBxx_HAL_Driver/Inc/stm32wbxx_ll_exti.h ****   *         @arg @ref LL_EXTI_LINE_46 (*)
 413:Drivers/STM32WBxx_HAL_Driver/Inc/stm32wbxx_ll_exti.h ****   *         @arg @ref LL_EXTI_LINE_48
 414:Drivers/STM32WBxx_HAL_Driver/Inc/stm32wbxx_ll_exti.h ****   *         @arg @ref LL_EXTI_LINE_ALL_32_63
 415:Drivers/STM32WBxx_HAL_Driver/Inc/stm32wbxx_ll_exti.h ****   *         (*) value not defined in all devices
 416:Drivers/STM32WBxx_HAL_Driver/Inc/stm32wbxx_ll_exti.h ****   * @retval None
 417:Drivers/STM32WBxx_HAL_Driver/Inc/stm32wbxx_ll_exti.h ****   */
ARM GAS  /tmp/cczZhyqe.s 			page 18


 418:Drivers/STM32WBxx_HAL_Driver/Inc/stm32wbxx_ll_exti.h **** __STATIC_INLINE void LL_C2_EXTI_EnableIT_32_63(uint32_t ExtiLine)
 419:Drivers/STM32WBxx_HAL_Driver/Inc/stm32wbxx_ll_exti.h **** {
 420:Drivers/STM32WBxx_HAL_Driver/Inc/stm32wbxx_ll_exti.h ****   SET_BIT(EXTI->C2IMR2, ExtiLine);
 421:Drivers/STM32WBxx_HAL_Driver/Inc/stm32wbxx_ll_exti.h **** }
 422:Drivers/STM32WBxx_HAL_Driver/Inc/stm32wbxx_ll_exti.h **** 
 423:Drivers/STM32WBxx_HAL_Driver/Inc/stm32wbxx_ll_exti.h **** /**
 424:Drivers/STM32WBxx_HAL_Driver/Inc/stm32wbxx_ll_exti.h ****   * @brief  Disable ExtiLine Interrupt request for Lines in range 0 to 31
 425:Drivers/STM32WBxx_HAL_Driver/Inc/stm32wbxx_ll_exti.h ****   * @rmtoll IMR1         IMx           LL_EXTI_DisableIT_0_31
 426:Drivers/STM32WBxx_HAL_Driver/Inc/stm32wbxx_ll_exti.h ****   * @param  ExtiLine This parameter can be a combination of the following values:
 427:Drivers/STM32WBxx_HAL_Driver/Inc/stm32wbxx_ll_exti.h ****   *         @arg @ref LL_EXTI_LINE_0
 428:Drivers/STM32WBxx_HAL_Driver/Inc/stm32wbxx_ll_exti.h ****   *         @arg @ref LL_EXTI_LINE_1
 429:Drivers/STM32WBxx_HAL_Driver/Inc/stm32wbxx_ll_exti.h ****   *         @arg @ref LL_EXTI_LINE_2
 430:Drivers/STM32WBxx_HAL_Driver/Inc/stm32wbxx_ll_exti.h ****   *         @arg @ref LL_EXTI_LINE_3
 431:Drivers/STM32WBxx_HAL_Driver/Inc/stm32wbxx_ll_exti.h ****   *         @arg @ref LL_EXTI_LINE_4
 432:Drivers/STM32WBxx_HAL_Driver/Inc/stm32wbxx_ll_exti.h ****   *         @arg @ref LL_EXTI_LINE_5
 433:Drivers/STM32WBxx_HAL_Driver/Inc/stm32wbxx_ll_exti.h ****   *         @arg @ref LL_EXTI_LINE_6
 434:Drivers/STM32WBxx_HAL_Driver/Inc/stm32wbxx_ll_exti.h ****   *         @arg @ref LL_EXTI_LINE_7
 435:Drivers/STM32WBxx_HAL_Driver/Inc/stm32wbxx_ll_exti.h ****   *         @arg @ref LL_EXTI_LINE_8
 436:Drivers/STM32WBxx_HAL_Driver/Inc/stm32wbxx_ll_exti.h ****   *         @arg @ref LL_EXTI_LINE_9
 437:Drivers/STM32WBxx_HAL_Driver/Inc/stm32wbxx_ll_exti.h ****   *         @arg @ref LL_EXTI_LINE_10
 438:Drivers/STM32WBxx_HAL_Driver/Inc/stm32wbxx_ll_exti.h ****   *         @arg @ref LL_EXTI_LINE_11
 439:Drivers/STM32WBxx_HAL_Driver/Inc/stm32wbxx_ll_exti.h ****   *         @arg @ref LL_EXTI_LINE_12
 440:Drivers/STM32WBxx_HAL_Driver/Inc/stm32wbxx_ll_exti.h ****   *         @arg @ref LL_EXTI_LINE_13
 441:Drivers/STM32WBxx_HAL_Driver/Inc/stm32wbxx_ll_exti.h ****   *         @arg @ref LL_EXTI_LINE_14
 442:Drivers/STM32WBxx_HAL_Driver/Inc/stm32wbxx_ll_exti.h ****   *         @arg @ref LL_EXTI_LINE_15
 443:Drivers/STM32WBxx_HAL_Driver/Inc/stm32wbxx_ll_exti.h ****   *         @arg @ref LL_EXTI_LINE_16
 444:Drivers/STM32WBxx_HAL_Driver/Inc/stm32wbxx_ll_exti.h ****   *         @arg @ref LL_EXTI_LINE_17
 445:Drivers/STM32WBxx_HAL_Driver/Inc/stm32wbxx_ll_exti.h ****   *         @arg @ref LL_EXTI_LINE_18
 446:Drivers/STM32WBxx_HAL_Driver/Inc/stm32wbxx_ll_exti.h ****   *         @arg @ref LL_EXTI_LINE_19
 447:Drivers/STM32WBxx_HAL_Driver/Inc/stm32wbxx_ll_exti.h ****   *         @arg @ref LL_EXTI_LINE_20 (*)
 448:Drivers/STM32WBxx_HAL_Driver/Inc/stm32wbxx_ll_exti.h ****   *         @arg @ref LL_EXTI_LINE_21 (*)
 449:Drivers/STM32WBxx_HAL_Driver/Inc/stm32wbxx_ll_exti.h ****   *         @arg @ref LL_EXTI_LINE_22
 450:Drivers/STM32WBxx_HAL_Driver/Inc/stm32wbxx_ll_exti.h ****   *         @arg @ref LL_EXTI_LINE_23 (*)
 451:Drivers/STM32WBxx_HAL_Driver/Inc/stm32wbxx_ll_exti.h ****   *         @arg @ref LL_EXTI_LINE_24
 452:Drivers/STM32WBxx_HAL_Driver/Inc/stm32wbxx_ll_exti.h ****   *         @arg @ref LL_EXTI_LINE_25 (*)
 453:Drivers/STM32WBxx_HAL_Driver/Inc/stm32wbxx_ll_exti.h ****   *         @arg @ref LL_EXTI_LINE_28 (*)
 454:Drivers/STM32WBxx_HAL_Driver/Inc/stm32wbxx_ll_exti.h ****   *         @arg @ref LL_EXTI_LINE_29
 455:Drivers/STM32WBxx_HAL_Driver/Inc/stm32wbxx_ll_exti.h ****   *         @arg @ref LL_EXTI_LINE_30
 456:Drivers/STM32WBxx_HAL_Driver/Inc/stm32wbxx_ll_exti.h ****   *         @arg @ref LL_EXTI_LINE_31 (*)
 457:Drivers/STM32WBxx_HAL_Driver/Inc/stm32wbxx_ll_exti.h ****   *         @arg @ref LL_EXTI_LINE_ALL_0_31
 458:Drivers/STM32WBxx_HAL_Driver/Inc/stm32wbxx_ll_exti.h ****   *         (*) value not defined in all devices
 459:Drivers/STM32WBxx_HAL_Driver/Inc/stm32wbxx_ll_exti.h ****   * @retval None
 460:Drivers/STM32WBxx_HAL_Driver/Inc/stm32wbxx_ll_exti.h ****   */
 461:Drivers/STM32WBxx_HAL_Driver/Inc/stm32wbxx_ll_exti.h **** __STATIC_INLINE void LL_EXTI_DisableIT_0_31(uint32_t ExtiLine)
 180              		.loc 2 461 22 view .LVU34
 181              	.LBB17:
 462:Drivers/STM32WBxx_HAL_Driver/Inc/stm32wbxx_ll_exti.h **** {
 463:Drivers/STM32WBxx_HAL_Driver/Inc/stm32wbxx_ll_exti.h ****   CLEAR_BIT(EXTI->IMR1, ExtiLine);
 182              		.loc 2 463 3 view .LVU35
 183 000e 1B4B     		ldr	r3, .L14+4
 184 0010 D3F88020 		ldr	r2, [r3, #128]
 185 0014 22F48032 		bic	r2, r2, #65536
 186 0018 C3F88020 		str	r2, [r3, #128]
 187              	.LVL2:
 188              		.loc 2 463 3 is_stmt 0 view .LVU36
 189              	.LBE17:
 190              	.LBE16:
ARM GAS  /tmp/cczZhyqe.s 			page 19


 381:Drivers/STM32WBxx_HAL_Driver/Src/stm32wbxx_hal_pwr.c ****   __HAL_PWR_PVD_EXTIC2_DISABLE_IT();    /*CPU2*/
 191              		.loc 1 381 3 is_stmt 1 view .LVU37
 192              	.LBB18:
 193              	.LBI18:
 464:Drivers/STM32WBxx_HAL_Driver/Inc/stm32wbxx_ll_exti.h **** }
 465:Drivers/STM32WBxx_HAL_Driver/Inc/stm32wbxx_ll_exti.h **** 
 466:Drivers/STM32WBxx_HAL_Driver/Inc/stm32wbxx_ll_exti.h **** /**
 467:Drivers/STM32WBxx_HAL_Driver/Inc/stm32wbxx_ll_exti.h ****   * @brief  Disable ExtiLine Interrupt request for Lines in range 0 to 31 for cpu2
 468:Drivers/STM32WBxx_HAL_Driver/Inc/stm32wbxx_ll_exti.h ****   * @rmtoll C2IMR1         IMx           LL_C2_EXTI_DisableIT_0_31
 469:Drivers/STM32WBxx_HAL_Driver/Inc/stm32wbxx_ll_exti.h ****   * @param  ExtiLine This parameter can be a combination of the following values:
 470:Drivers/STM32WBxx_HAL_Driver/Inc/stm32wbxx_ll_exti.h ****   *         @arg @ref LL_EXTI_LINE_0
 471:Drivers/STM32WBxx_HAL_Driver/Inc/stm32wbxx_ll_exti.h ****   *         @arg @ref LL_EXTI_LINE_1
 472:Drivers/STM32WBxx_HAL_Driver/Inc/stm32wbxx_ll_exti.h ****   *         @arg @ref LL_EXTI_LINE_2
 473:Drivers/STM32WBxx_HAL_Driver/Inc/stm32wbxx_ll_exti.h ****   *         @arg @ref LL_EXTI_LINE_3
 474:Drivers/STM32WBxx_HAL_Driver/Inc/stm32wbxx_ll_exti.h ****   *         @arg @ref LL_EXTI_LINE_4
 475:Drivers/STM32WBxx_HAL_Driver/Inc/stm32wbxx_ll_exti.h ****   *         @arg @ref LL_EXTI_LINE_5
 476:Drivers/STM32WBxx_HAL_Driver/Inc/stm32wbxx_ll_exti.h ****   *         @arg @ref LL_EXTI_LINE_6
 477:Drivers/STM32WBxx_HAL_Driver/Inc/stm32wbxx_ll_exti.h ****   *         @arg @ref LL_EXTI_LINE_7
 478:Drivers/STM32WBxx_HAL_Driver/Inc/stm32wbxx_ll_exti.h ****   *         @arg @ref LL_EXTI_LINE_8
 479:Drivers/STM32WBxx_HAL_Driver/Inc/stm32wbxx_ll_exti.h ****   *         @arg @ref LL_EXTI_LINE_9
 480:Drivers/STM32WBxx_HAL_Driver/Inc/stm32wbxx_ll_exti.h ****   *         @arg @ref LL_EXTI_LINE_10
 481:Drivers/STM32WBxx_HAL_Driver/Inc/stm32wbxx_ll_exti.h ****   *         @arg @ref LL_EXTI_LINE_11
 482:Drivers/STM32WBxx_HAL_Driver/Inc/stm32wbxx_ll_exti.h ****   *         @arg @ref LL_EXTI_LINE_12
 483:Drivers/STM32WBxx_HAL_Driver/Inc/stm32wbxx_ll_exti.h ****   *         @arg @ref LL_EXTI_LINE_13
 484:Drivers/STM32WBxx_HAL_Driver/Inc/stm32wbxx_ll_exti.h ****   *         @arg @ref LL_EXTI_LINE_14
 485:Drivers/STM32WBxx_HAL_Driver/Inc/stm32wbxx_ll_exti.h ****   *         @arg @ref LL_EXTI_LINE_15
 486:Drivers/STM32WBxx_HAL_Driver/Inc/stm32wbxx_ll_exti.h ****   *         @arg @ref LL_EXTI_LINE_16
 487:Drivers/STM32WBxx_HAL_Driver/Inc/stm32wbxx_ll_exti.h ****   *         @arg @ref LL_EXTI_LINE_17
 488:Drivers/STM32WBxx_HAL_Driver/Inc/stm32wbxx_ll_exti.h ****   *         @arg @ref LL_EXTI_LINE_18
 489:Drivers/STM32WBxx_HAL_Driver/Inc/stm32wbxx_ll_exti.h ****   *         @arg @ref LL_EXTI_LINE_19
 490:Drivers/STM32WBxx_HAL_Driver/Inc/stm32wbxx_ll_exti.h ****   *         @arg @ref LL_EXTI_LINE_20 (*)
 491:Drivers/STM32WBxx_HAL_Driver/Inc/stm32wbxx_ll_exti.h ****   *         @arg @ref LL_EXTI_LINE_21 (*)
 492:Drivers/STM32WBxx_HAL_Driver/Inc/stm32wbxx_ll_exti.h ****   *         @arg @ref LL_EXTI_LINE_22
 493:Drivers/STM32WBxx_HAL_Driver/Inc/stm32wbxx_ll_exti.h ****   *         @arg @ref LL_EXTI_LINE_23 (*)
 494:Drivers/STM32WBxx_HAL_Driver/Inc/stm32wbxx_ll_exti.h ****   *         @arg @ref LL_EXTI_LINE_24
 495:Drivers/STM32WBxx_HAL_Driver/Inc/stm32wbxx_ll_exti.h ****   *         @arg @ref LL_EXTI_LINE_25 (*)
 496:Drivers/STM32WBxx_HAL_Driver/Inc/stm32wbxx_ll_exti.h ****   *         @arg @ref LL_EXTI_LINE_28 (*)
 497:Drivers/STM32WBxx_HAL_Driver/Inc/stm32wbxx_ll_exti.h ****   *         @arg @ref LL_EXTI_LINE_29
 498:Drivers/STM32WBxx_HAL_Driver/Inc/stm32wbxx_ll_exti.h ****   *         @arg @ref LL_EXTI_LINE_30
 499:Drivers/STM32WBxx_HAL_Driver/Inc/stm32wbxx_ll_exti.h ****   *         @arg @ref LL_EXTI_LINE_31 (*)
 500:Drivers/STM32WBxx_HAL_Driver/Inc/stm32wbxx_ll_exti.h ****   *         @arg @ref LL_EXTI_LINE_ALL_0_31
 501:Drivers/STM32WBxx_HAL_Driver/Inc/stm32wbxx_ll_exti.h ****   *         (*) value not defined in all devices
 502:Drivers/STM32WBxx_HAL_Driver/Inc/stm32wbxx_ll_exti.h ****   * @retval None
 503:Drivers/STM32WBxx_HAL_Driver/Inc/stm32wbxx_ll_exti.h ****   */
 504:Drivers/STM32WBxx_HAL_Driver/Inc/stm32wbxx_ll_exti.h **** __STATIC_INLINE void LL_C2_EXTI_DisableIT_0_31(uint32_t ExtiLine)
 194              		.loc 2 504 22 view .LVU38
 195              	.LBB19:
 505:Drivers/STM32WBxx_HAL_Driver/Inc/stm32wbxx_ll_exti.h **** {
 506:Drivers/STM32WBxx_HAL_Driver/Inc/stm32wbxx_ll_exti.h ****   CLEAR_BIT(EXTI->C2IMR1, ExtiLine);
 196              		.loc 2 506 3 view .LVU39
 197 001c D3F8C020 		ldr	r2, [r3, #192]
 198 0020 22F48032 		bic	r2, r2, #65536
 199 0024 C3F8C020 		str	r2, [r3, #192]
 200              	.LVL3:
 201              		.loc 2 506 3 is_stmt 0 view .LVU40
 202              	.LBE19:
 203              	.LBE18:
ARM GAS  /tmp/cczZhyqe.s 			page 20


 382:Drivers/STM32WBxx_HAL_Driver/Src/stm32wbxx_hal_pwr.c ****     
 383:Drivers/STM32WBxx_HAL_Driver/Src/stm32wbxx_hal_pwr.c ****   __HAL_PWR_PVD_EXTI_DISABLE_RISING_EDGE();
 204              		.loc 1 383 3 is_stmt 1 view .LVU41
 205              	.LBB20:
 206              	.LBI20:
 507:Drivers/STM32WBxx_HAL_Driver/Inc/stm32wbxx_ll_exti.h **** }
 508:Drivers/STM32WBxx_HAL_Driver/Inc/stm32wbxx_ll_exti.h **** 
 509:Drivers/STM32WBxx_HAL_Driver/Inc/stm32wbxx_ll_exti.h **** /**
 510:Drivers/STM32WBxx_HAL_Driver/Inc/stm32wbxx_ll_exti.h ****   * @brief  Disable ExtiLine Interrupt request for Lines in range 32 to 63
 511:Drivers/STM32WBxx_HAL_Driver/Inc/stm32wbxx_ll_exti.h ****   * @rmtoll IMR2         IMx           LL_EXTI_DisableIT_32_63
 512:Drivers/STM32WBxx_HAL_Driver/Inc/stm32wbxx_ll_exti.h ****   * @param  ExtiLine This parameter can be a combination of the following values:
 513:Drivers/STM32WBxx_HAL_Driver/Inc/stm32wbxx_ll_exti.h ****   *         @arg @ref LL_EXTI_LINE_33
 514:Drivers/STM32WBxx_HAL_Driver/Inc/stm32wbxx_ll_exti.h ****   *         @arg @ref LL_EXTI_LINE_36
 515:Drivers/STM32WBxx_HAL_Driver/Inc/stm32wbxx_ll_exti.h ****   *         @arg @ref LL_EXTI_LINE_37
 516:Drivers/STM32WBxx_HAL_Driver/Inc/stm32wbxx_ll_exti.h ****   *         @arg @ref LL_EXTI_LINE_38
 517:Drivers/STM32WBxx_HAL_Driver/Inc/stm32wbxx_ll_exti.h ****   *         @arg @ref LL_EXTI_LINE_39
 518:Drivers/STM32WBxx_HAL_Driver/Inc/stm32wbxx_ll_exti.h ****   *         @arg @ref LL_EXTI_LINE_40
 519:Drivers/STM32WBxx_HAL_Driver/Inc/stm32wbxx_ll_exti.h ****   *         @arg @ref LL_EXTI_LINE_41
 520:Drivers/STM32WBxx_HAL_Driver/Inc/stm32wbxx_ll_exti.h ****   *         @arg @ref LL_EXTI_LINE_42
 521:Drivers/STM32WBxx_HAL_Driver/Inc/stm32wbxx_ll_exti.h ****   *         @arg @ref LL_EXTI_LINE_43 (*)
 522:Drivers/STM32WBxx_HAL_Driver/Inc/stm32wbxx_ll_exti.h ****   *         @arg @ref LL_EXTI_LINE_44
 523:Drivers/STM32WBxx_HAL_Driver/Inc/stm32wbxx_ll_exti.h ****   *         @arg @ref LL_EXTI_LINE_45
 524:Drivers/STM32WBxx_HAL_Driver/Inc/stm32wbxx_ll_exti.h ****   *         @arg @ref LL_EXTI_LINE_46 (*)
 525:Drivers/STM32WBxx_HAL_Driver/Inc/stm32wbxx_ll_exti.h ****   *         @arg @ref LL_EXTI_LINE_48
 526:Drivers/STM32WBxx_HAL_Driver/Inc/stm32wbxx_ll_exti.h ****   *         @arg @ref LL_EXTI_LINE_ALL_32_63
 527:Drivers/STM32WBxx_HAL_Driver/Inc/stm32wbxx_ll_exti.h ****   *         (*) value not defined in all devices
 528:Drivers/STM32WBxx_HAL_Driver/Inc/stm32wbxx_ll_exti.h ****   * @retval None
 529:Drivers/STM32WBxx_HAL_Driver/Inc/stm32wbxx_ll_exti.h ****   */
 530:Drivers/STM32WBxx_HAL_Driver/Inc/stm32wbxx_ll_exti.h **** __STATIC_INLINE void LL_EXTI_DisableIT_32_63(uint32_t ExtiLine)
 531:Drivers/STM32WBxx_HAL_Driver/Inc/stm32wbxx_ll_exti.h **** {
 532:Drivers/STM32WBxx_HAL_Driver/Inc/stm32wbxx_ll_exti.h ****   CLEAR_BIT(EXTI->IMR2, ExtiLine);
 533:Drivers/STM32WBxx_HAL_Driver/Inc/stm32wbxx_ll_exti.h **** }
 534:Drivers/STM32WBxx_HAL_Driver/Inc/stm32wbxx_ll_exti.h **** 
 535:Drivers/STM32WBxx_HAL_Driver/Inc/stm32wbxx_ll_exti.h **** /**
 536:Drivers/STM32WBxx_HAL_Driver/Inc/stm32wbxx_ll_exti.h ****   * @brief  Disable ExtiLine Interrupt request for Lines in range 32 to 63 for cpu2
 537:Drivers/STM32WBxx_HAL_Driver/Inc/stm32wbxx_ll_exti.h ****   * @rmtoll C2IMR2         IMx           LL_C2_EXTI_DisableIT_32_63
 538:Drivers/STM32WBxx_HAL_Driver/Inc/stm32wbxx_ll_exti.h ****   * @param  ExtiLine This parameter can be a combination of the following values:
 539:Drivers/STM32WBxx_HAL_Driver/Inc/stm32wbxx_ll_exti.h ****   *         @arg @ref LL_EXTI_LINE_33
 540:Drivers/STM32WBxx_HAL_Driver/Inc/stm32wbxx_ll_exti.h ****   *         @arg @ref LL_EXTI_LINE_36
 541:Drivers/STM32WBxx_HAL_Driver/Inc/stm32wbxx_ll_exti.h ****   *         @arg @ref LL_EXTI_LINE_37
 542:Drivers/STM32WBxx_HAL_Driver/Inc/stm32wbxx_ll_exti.h ****   *         @arg @ref LL_EXTI_LINE_38
 543:Drivers/STM32WBxx_HAL_Driver/Inc/stm32wbxx_ll_exti.h ****   *         @arg @ref LL_EXTI_LINE_39
 544:Drivers/STM32WBxx_HAL_Driver/Inc/stm32wbxx_ll_exti.h ****   *         @arg @ref LL_EXTI_LINE_40
 545:Drivers/STM32WBxx_HAL_Driver/Inc/stm32wbxx_ll_exti.h ****   *         @arg @ref LL_EXTI_LINE_41
 546:Drivers/STM32WBxx_HAL_Driver/Inc/stm32wbxx_ll_exti.h ****   *         @arg @ref LL_EXTI_LINE_42
 547:Drivers/STM32WBxx_HAL_Driver/Inc/stm32wbxx_ll_exti.h ****   *         @arg @ref LL_EXTI_LINE_43 (*)
 548:Drivers/STM32WBxx_HAL_Driver/Inc/stm32wbxx_ll_exti.h ****   *         @arg @ref LL_EXTI_LINE_44
 549:Drivers/STM32WBxx_HAL_Driver/Inc/stm32wbxx_ll_exti.h ****   *         @arg @ref LL_EXTI_LINE_45
 550:Drivers/STM32WBxx_HAL_Driver/Inc/stm32wbxx_ll_exti.h ****   *         @arg @ref LL_EXTI_LINE_46 (*)
 551:Drivers/STM32WBxx_HAL_Driver/Inc/stm32wbxx_ll_exti.h ****   *         @arg @ref LL_EXTI_LINE_48
 552:Drivers/STM32WBxx_HAL_Driver/Inc/stm32wbxx_ll_exti.h ****   *         @arg @ref LL_EXTI_LINE_ALL_32_63
 553:Drivers/STM32WBxx_HAL_Driver/Inc/stm32wbxx_ll_exti.h ****   *         (*) value not defined in all devices
 554:Drivers/STM32WBxx_HAL_Driver/Inc/stm32wbxx_ll_exti.h ****   * @retval None
 555:Drivers/STM32WBxx_HAL_Driver/Inc/stm32wbxx_ll_exti.h ****   */
 556:Drivers/STM32WBxx_HAL_Driver/Inc/stm32wbxx_ll_exti.h **** __STATIC_INLINE void LL_C2_EXTI_DisableIT_32_63(uint32_t ExtiLine)
 557:Drivers/STM32WBxx_HAL_Driver/Inc/stm32wbxx_ll_exti.h **** {
 558:Drivers/STM32WBxx_HAL_Driver/Inc/stm32wbxx_ll_exti.h ****   CLEAR_BIT(EXTI->C2IMR2, ExtiLine);
ARM GAS  /tmp/cczZhyqe.s 			page 21


 559:Drivers/STM32WBxx_HAL_Driver/Inc/stm32wbxx_ll_exti.h **** }
 560:Drivers/STM32WBxx_HAL_Driver/Inc/stm32wbxx_ll_exti.h **** 
 561:Drivers/STM32WBxx_HAL_Driver/Inc/stm32wbxx_ll_exti.h **** /**
 562:Drivers/STM32WBxx_HAL_Driver/Inc/stm32wbxx_ll_exti.h ****   * @brief  Indicate if ExtiLine Interrupt request is enabled for Lines in range 0 to 31
 563:Drivers/STM32WBxx_HAL_Driver/Inc/stm32wbxx_ll_exti.h ****   * @rmtoll IMR1         IMx           LL_EXTI_IsEnabledIT_0_31
 564:Drivers/STM32WBxx_HAL_Driver/Inc/stm32wbxx_ll_exti.h ****   * @param  ExtiLine This parameter can be a combination of the following values:
 565:Drivers/STM32WBxx_HAL_Driver/Inc/stm32wbxx_ll_exti.h ****   *         @arg @ref LL_EXTI_LINE_0
 566:Drivers/STM32WBxx_HAL_Driver/Inc/stm32wbxx_ll_exti.h ****   *         @arg @ref LL_EXTI_LINE_1
 567:Drivers/STM32WBxx_HAL_Driver/Inc/stm32wbxx_ll_exti.h ****   *         @arg @ref LL_EXTI_LINE_2
 568:Drivers/STM32WBxx_HAL_Driver/Inc/stm32wbxx_ll_exti.h ****   *         @arg @ref LL_EXTI_LINE_3
 569:Drivers/STM32WBxx_HAL_Driver/Inc/stm32wbxx_ll_exti.h ****   *         @arg @ref LL_EXTI_LINE_4
 570:Drivers/STM32WBxx_HAL_Driver/Inc/stm32wbxx_ll_exti.h ****   *         @arg @ref LL_EXTI_LINE_5
 571:Drivers/STM32WBxx_HAL_Driver/Inc/stm32wbxx_ll_exti.h ****   *         @arg @ref LL_EXTI_LINE_6
 572:Drivers/STM32WBxx_HAL_Driver/Inc/stm32wbxx_ll_exti.h ****   *         @arg @ref LL_EXTI_LINE_7
 573:Drivers/STM32WBxx_HAL_Driver/Inc/stm32wbxx_ll_exti.h ****   *         @arg @ref LL_EXTI_LINE_8
 574:Drivers/STM32WBxx_HAL_Driver/Inc/stm32wbxx_ll_exti.h ****   *         @arg @ref LL_EXTI_LINE_9
 575:Drivers/STM32WBxx_HAL_Driver/Inc/stm32wbxx_ll_exti.h ****   *         @arg @ref LL_EXTI_LINE_10
 576:Drivers/STM32WBxx_HAL_Driver/Inc/stm32wbxx_ll_exti.h ****   *         @arg @ref LL_EXTI_LINE_11
 577:Drivers/STM32WBxx_HAL_Driver/Inc/stm32wbxx_ll_exti.h ****   *         @arg @ref LL_EXTI_LINE_12
 578:Drivers/STM32WBxx_HAL_Driver/Inc/stm32wbxx_ll_exti.h ****   *         @arg @ref LL_EXTI_LINE_13
 579:Drivers/STM32WBxx_HAL_Driver/Inc/stm32wbxx_ll_exti.h ****   *         @arg @ref LL_EXTI_LINE_14
 580:Drivers/STM32WBxx_HAL_Driver/Inc/stm32wbxx_ll_exti.h ****   *         @arg @ref LL_EXTI_LINE_15
 581:Drivers/STM32WBxx_HAL_Driver/Inc/stm32wbxx_ll_exti.h ****   *         @arg @ref LL_EXTI_LINE_16
 582:Drivers/STM32WBxx_HAL_Driver/Inc/stm32wbxx_ll_exti.h ****   *         @arg @ref LL_EXTI_LINE_17
 583:Drivers/STM32WBxx_HAL_Driver/Inc/stm32wbxx_ll_exti.h ****   *         @arg @ref LL_EXTI_LINE_18
 584:Drivers/STM32WBxx_HAL_Driver/Inc/stm32wbxx_ll_exti.h ****   *         @arg @ref LL_EXTI_LINE_19
 585:Drivers/STM32WBxx_HAL_Driver/Inc/stm32wbxx_ll_exti.h ****   *         @arg @ref LL_EXTI_LINE_20 (*)
 586:Drivers/STM32WBxx_HAL_Driver/Inc/stm32wbxx_ll_exti.h ****   *         @arg @ref LL_EXTI_LINE_21 (*)
 587:Drivers/STM32WBxx_HAL_Driver/Inc/stm32wbxx_ll_exti.h ****   *         @arg @ref LL_EXTI_LINE_22
 588:Drivers/STM32WBxx_HAL_Driver/Inc/stm32wbxx_ll_exti.h ****   *         @arg @ref LL_EXTI_LINE_23 (*)
 589:Drivers/STM32WBxx_HAL_Driver/Inc/stm32wbxx_ll_exti.h ****   *         @arg @ref LL_EXTI_LINE_24
 590:Drivers/STM32WBxx_HAL_Driver/Inc/stm32wbxx_ll_exti.h ****   *         @arg @ref LL_EXTI_LINE_25 (*)
 591:Drivers/STM32WBxx_HAL_Driver/Inc/stm32wbxx_ll_exti.h ****   *         @arg @ref LL_EXTI_LINE_28 (*)
 592:Drivers/STM32WBxx_HAL_Driver/Inc/stm32wbxx_ll_exti.h ****   *         @arg @ref LL_EXTI_LINE_29
 593:Drivers/STM32WBxx_HAL_Driver/Inc/stm32wbxx_ll_exti.h ****   *         @arg @ref LL_EXTI_LINE_30
 594:Drivers/STM32WBxx_HAL_Driver/Inc/stm32wbxx_ll_exti.h ****   *         @arg @ref LL_EXTI_LINE_31 (*)
 595:Drivers/STM32WBxx_HAL_Driver/Inc/stm32wbxx_ll_exti.h ****   *         @arg @ref LL_EXTI_LINE_ALL_0_31
 596:Drivers/STM32WBxx_HAL_Driver/Inc/stm32wbxx_ll_exti.h ****   *         (*) value not defined in all devices
 597:Drivers/STM32WBxx_HAL_Driver/Inc/stm32wbxx_ll_exti.h ****   * @retval State of bit (1 or 0).
 598:Drivers/STM32WBxx_HAL_Driver/Inc/stm32wbxx_ll_exti.h ****   */
 599:Drivers/STM32WBxx_HAL_Driver/Inc/stm32wbxx_ll_exti.h **** __STATIC_INLINE uint32_t LL_EXTI_IsEnabledIT_0_31(uint32_t ExtiLine)
 600:Drivers/STM32WBxx_HAL_Driver/Inc/stm32wbxx_ll_exti.h **** {
 601:Drivers/STM32WBxx_HAL_Driver/Inc/stm32wbxx_ll_exti.h ****   return ((READ_BIT(EXTI->IMR1, ExtiLine) == (ExtiLine)) ? 1UL : 0UL);
 602:Drivers/STM32WBxx_HAL_Driver/Inc/stm32wbxx_ll_exti.h **** }
 603:Drivers/STM32WBxx_HAL_Driver/Inc/stm32wbxx_ll_exti.h **** 
 604:Drivers/STM32WBxx_HAL_Driver/Inc/stm32wbxx_ll_exti.h **** /**
 605:Drivers/STM32WBxx_HAL_Driver/Inc/stm32wbxx_ll_exti.h ****   * @brief  Indicate if ExtiLine Interrupt request is enabled for Lines in range 0 to 31 for cpu2
 606:Drivers/STM32WBxx_HAL_Driver/Inc/stm32wbxx_ll_exti.h ****   * @rmtoll C2IMR1         IMx           LL_C2_EXTI_IsEnabledIT_0_31
 607:Drivers/STM32WBxx_HAL_Driver/Inc/stm32wbxx_ll_exti.h ****   * @param  ExtiLine This parameter can be a combination of the following values:
 608:Drivers/STM32WBxx_HAL_Driver/Inc/stm32wbxx_ll_exti.h ****   *         @arg @ref LL_EXTI_LINE_0
 609:Drivers/STM32WBxx_HAL_Driver/Inc/stm32wbxx_ll_exti.h ****   *         @arg @ref LL_EXTI_LINE_1
 610:Drivers/STM32WBxx_HAL_Driver/Inc/stm32wbxx_ll_exti.h ****   *         @arg @ref LL_EXTI_LINE_2
 611:Drivers/STM32WBxx_HAL_Driver/Inc/stm32wbxx_ll_exti.h ****   *         @arg @ref LL_EXTI_LINE_3
 612:Drivers/STM32WBxx_HAL_Driver/Inc/stm32wbxx_ll_exti.h ****   *         @arg @ref LL_EXTI_LINE_4
 613:Drivers/STM32WBxx_HAL_Driver/Inc/stm32wbxx_ll_exti.h ****   *         @arg @ref LL_EXTI_LINE_5
 614:Drivers/STM32WBxx_HAL_Driver/Inc/stm32wbxx_ll_exti.h ****   *         @arg @ref LL_EXTI_LINE_6
 615:Drivers/STM32WBxx_HAL_Driver/Inc/stm32wbxx_ll_exti.h ****   *         @arg @ref LL_EXTI_LINE_7
ARM GAS  /tmp/cczZhyqe.s 			page 22


 616:Drivers/STM32WBxx_HAL_Driver/Inc/stm32wbxx_ll_exti.h ****   *         @arg @ref LL_EXTI_LINE_8
 617:Drivers/STM32WBxx_HAL_Driver/Inc/stm32wbxx_ll_exti.h ****   *         @arg @ref LL_EXTI_LINE_9
 618:Drivers/STM32WBxx_HAL_Driver/Inc/stm32wbxx_ll_exti.h ****   *         @arg @ref LL_EXTI_LINE_10
 619:Drivers/STM32WBxx_HAL_Driver/Inc/stm32wbxx_ll_exti.h ****   *         @arg @ref LL_EXTI_LINE_11
 620:Drivers/STM32WBxx_HAL_Driver/Inc/stm32wbxx_ll_exti.h ****   *         @arg @ref LL_EXTI_LINE_12
 621:Drivers/STM32WBxx_HAL_Driver/Inc/stm32wbxx_ll_exti.h ****   *         @arg @ref LL_EXTI_LINE_13
 622:Drivers/STM32WBxx_HAL_Driver/Inc/stm32wbxx_ll_exti.h ****   *         @arg @ref LL_EXTI_LINE_14
 623:Drivers/STM32WBxx_HAL_Driver/Inc/stm32wbxx_ll_exti.h ****   *         @arg @ref LL_EXTI_LINE_15
 624:Drivers/STM32WBxx_HAL_Driver/Inc/stm32wbxx_ll_exti.h ****   *         @arg @ref LL_EXTI_LINE_16
 625:Drivers/STM32WBxx_HAL_Driver/Inc/stm32wbxx_ll_exti.h ****   *         @arg @ref LL_EXTI_LINE_17
 626:Drivers/STM32WBxx_HAL_Driver/Inc/stm32wbxx_ll_exti.h ****   *         @arg @ref LL_EXTI_LINE_18
 627:Drivers/STM32WBxx_HAL_Driver/Inc/stm32wbxx_ll_exti.h ****   *         @arg @ref LL_EXTI_LINE_19
 628:Drivers/STM32WBxx_HAL_Driver/Inc/stm32wbxx_ll_exti.h ****   *         @arg @ref LL_EXTI_LINE_20 (*)
 629:Drivers/STM32WBxx_HAL_Driver/Inc/stm32wbxx_ll_exti.h ****   *         @arg @ref LL_EXTI_LINE_21 (*)
 630:Drivers/STM32WBxx_HAL_Driver/Inc/stm32wbxx_ll_exti.h ****   *         @arg @ref LL_EXTI_LINE_22
 631:Drivers/STM32WBxx_HAL_Driver/Inc/stm32wbxx_ll_exti.h ****   *         @arg @ref LL_EXTI_LINE_23 (*)
 632:Drivers/STM32WBxx_HAL_Driver/Inc/stm32wbxx_ll_exti.h ****   *         @arg @ref LL_EXTI_LINE_24
 633:Drivers/STM32WBxx_HAL_Driver/Inc/stm32wbxx_ll_exti.h ****   *         @arg @ref LL_EXTI_LINE_25 (*)
 634:Drivers/STM32WBxx_HAL_Driver/Inc/stm32wbxx_ll_exti.h ****   *         @arg @ref LL_EXTI_LINE_28 (*)
 635:Drivers/STM32WBxx_HAL_Driver/Inc/stm32wbxx_ll_exti.h ****   *         @arg @ref LL_EXTI_LINE_29
 636:Drivers/STM32WBxx_HAL_Driver/Inc/stm32wbxx_ll_exti.h ****   *         @arg @ref LL_EXTI_LINE_30
 637:Drivers/STM32WBxx_HAL_Driver/Inc/stm32wbxx_ll_exti.h ****   *         @arg @ref LL_EXTI_LINE_31 (*)
 638:Drivers/STM32WBxx_HAL_Driver/Inc/stm32wbxx_ll_exti.h ****   *         @arg @ref LL_EXTI_LINE_ALL_0_31
 639:Drivers/STM32WBxx_HAL_Driver/Inc/stm32wbxx_ll_exti.h ****   *         (*) value not defined in all devices
 640:Drivers/STM32WBxx_HAL_Driver/Inc/stm32wbxx_ll_exti.h ****   * @retval State of bit (1 or 0).
 641:Drivers/STM32WBxx_HAL_Driver/Inc/stm32wbxx_ll_exti.h ****   */
 642:Drivers/STM32WBxx_HAL_Driver/Inc/stm32wbxx_ll_exti.h **** __STATIC_INLINE uint32_t LL_C2_EXTI_IsEnabledIT_0_31(uint32_t ExtiLine)
 643:Drivers/STM32WBxx_HAL_Driver/Inc/stm32wbxx_ll_exti.h **** {
 644:Drivers/STM32WBxx_HAL_Driver/Inc/stm32wbxx_ll_exti.h ****   return ((READ_BIT(EXTI->C2IMR1, ExtiLine) == (ExtiLine)) ? 1UL : 0UL);
 645:Drivers/STM32WBxx_HAL_Driver/Inc/stm32wbxx_ll_exti.h **** }
 646:Drivers/STM32WBxx_HAL_Driver/Inc/stm32wbxx_ll_exti.h **** 
 647:Drivers/STM32WBxx_HAL_Driver/Inc/stm32wbxx_ll_exti.h **** /**
 648:Drivers/STM32WBxx_HAL_Driver/Inc/stm32wbxx_ll_exti.h ****   * @brief  Indicate if ExtiLine Interrupt request is enabled for Lines in range 32 to 63
 649:Drivers/STM32WBxx_HAL_Driver/Inc/stm32wbxx_ll_exti.h ****   * @rmtoll IMR2         IMx           LL_EXTI_IsEnabledIT_32_63
 650:Drivers/STM32WBxx_HAL_Driver/Inc/stm32wbxx_ll_exti.h ****   * @param  ExtiLine This parameter can be a combination of the following values:
 651:Drivers/STM32WBxx_HAL_Driver/Inc/stm32wbxx_ll_exti.h ****   *         @arg @ref LL_EXTI_LINE_33
 652:Drivers/STM32WBxx_HAL_Driver/Inc/stm32wbxx_ll_exti.h ****   *         @arg @ref LL_EXTI_LINE_36
 653:Drivers/STM32WBxx_HAL_Driver/Inc/stm32wbxx_ll_exti.h ****   *         @arg @ref LL_EXTI_LINE_37
 654:Drivers/STM32WBxx_HAL_Driver/Inc/stm32wbxx_ll_exti.h ****   *         @arg @ref LL_EXTI_LINE_38
 655:Drivers/STM32WBxx_HAL_Driver/Inc/stm32wbxx_ll_exti.h ****   *         @arg @ref LL_EXTI_LINE_39
 656:Drivers/STM32WBxx_HAL_Driver/Inc/stm32wbxx_ll_exti.h ****   *         @arg @ref LL_EXTI_LINE_40
 657:Drivers/STM32WBxx_HAL_Driver/Inc/stm32wbxx_ll_exti.h ****   *         @arg @ref LL_EXTI_LINE_41
 658:Drivers/STM32WBxx_HAL_Driver/Inc/stm32wbxx_ll_exti.h ****   *         @arg @ref LL_EXTI_LINE_42
 659:Drivers/STM32WBxx_HAL_Driver/Inc/stm32wbxx_ll_exti.h ****   *         @arg @ref LL_EXTI_LINE_43 (*)
 660:Drivers/STM32WBxx_HAL_Driver/Inc/stm32wbxx_ll_exti.h ****   *         @arg @ref LL_EXTI_LINE_44
 661:Drivers/STM32WBxx_HAL_Driver/Inc/stm32wbxx_ll_exti.h ****   *         @arg @ref LL_EXTI_LINE_45
 662:Drivers/STM32WBxx_HAL_Driver/Inc/stm32wbxx_ll_exti.h ****   *         @arg @ref LL_EXTI_LINE_46 (*)
 663:Drivers/STM32WBxx_HAL_Driver/Inc/stm32wbxx_ll_exti.h ****   *         @arg @ref LL_EXTI_LINE_48
 664:Drivers/STM32WBxx_HAL_Driver/Inc/stm32wbxx_ll_exti.h ****   *         @arg @ref LL_EXTI_LINE_ALL_32_63
 665:Drivers/STM32WBxx_HAL_Driver/Inc/stm32wbxx_ll_exti.h ****   *         (*) value not defined in all devices
 666:Drivers/STM32WBxx_HAL_Driver/Inc/stm32wbxx_ll_exti.h ****   * @retval State of bit (1 or 0).
 667:Drivers/STM32WBxx_HAL_Driver/Inc/stm32wbxx_ll_exti.h ****   */
 668:Drivers/STM32WBxx_HAL_Driver/Inc/stm32wbxx_ll_exti.h **** __STATIC_INLINE uint32_t LL_EXTI_IsEnabledIT_32_63(uint32_t ExtiLine)
 669:Drivers/STM32WBxx_HAL_Driver/Inc/stm32wbxx_ll_exti.h **** {
 670:Drivers/STM32WBxx_HAL_Driver/Inc/stm32wbxx_ll_exti.h ****   return ((READ_BIT(EXTI->IMR2, ExtiLine) == (ExtiLine)) ? 1UL : 0UL);
 671:Drivers/STM32WBxx_HAL_Driver/Inc/stm32wbxx_ll_exti.h **** }
 672:Drivers/STM32WBxx_HAL_Driver/Inc/stm32wbxx_ll_exti.h **** 
ARM GAS  /tmp/cczZhyqe.s 			page 23


 673:Drivers/STM32WBxx_HAL_Driver/Inc/stm32wbxx_ll_exti.h **** /**
 674:Drivers/STM32WBxx_HAL_Driver/Inc/stm32wbxx_ll_exti.h ****   * @brief  Indicate if ExtiLine Interrupt request is enabled for Lines in range 32 to 63 for cpu2
 675:Drivers/STM32WBxx_HAL_Driver/Inc/stm32wbxx_ll_exti.h ****   * @rmtoll C2IMR2         IMx           LL_C2_EXTI_IsEnabledIT_32_63
 676:Drivers/STM32WBxx_HAL_Driver/Inc/stm32wbxx_ll_exti.h ****   * @param  ExtiLine This parameter can be a combination of the following values:
 677:Drivers/STM32WBxx_HAL_Driver/Inc/stm32wbxx_ll_exti.h ****   *         @arg @ref LL_EXTI_LINE_33
 678:Drivers/STM32WBxx_HAL_Driver/Inc/stm32wbxx_ll_exti.h ****   *         @arg @ref LL_EXTI_LINE_36
 679:Drivers/STM32WBxx_HAL_Driver/Inc/stm32wbxx_ll_exti.h ****   *         @arg @ref LL_EXTI_LINE_37
 680:Drivers/STM32WBxx_HAL_Driver/Inc/stm32wbxx_ll_exti.h ****   *         @arg @ref LL_EXTI_LINE_38
 681:Drivers/STM32WBxx_HAL_Driver/Inc/stm32wbxx_ll_exti.h ****   *         @arg @ref LL_EXTI_LINE_39
 682:Drivers/STM32WBxx_HAL_Driver/Inc/stm32wbxx_ll_exti.h ****   *         @arg @ref LL_EXTI_LINE_40
 683:Drivers/STM32WBxx_HAL_Driver/Inc/stm32wbxx_ll_exti.h ****   *         @arg @ref LL_EXTI_LINE_41
 684:Drivers/STM32WBxx_HAL_Driver/Inc/stm32wbxx_ll_exti.h ****   *         @arg @ref LL_EXTI_LINE_42
 685:Drivers/STM32WBxx_HAL_Driver/Inc/stm32wbxx_ll_exti.h ****   *         @arg @ref LL_EXTI_LINE_43 (*)
 686:Drivers/STM32WBxx_HAL_Driver/Inc/stm32wbxx_ll_exti.h ****   *         @arg @ref LL_EXTI_LINE_44
 687:Drivers/STM32WBxx_HAL_Driver/Inc/stm32wbxx_ll_exti.h ****   *         @arg @ref LL_EXTI_LINE_45
 688:Drivers/STM32WBxx_HAL_Driver/Inc/stm32wbxx_ll_exti.h ****   *         @arg @ref LL_EXTI_LINE_46 (*)
 689:Drivers/STM32WBxx_HAL_Driver/Inc/stm32wbxx_ll_exti.h ****   *         @arg @ref LL_EXTI_LINE_48
 690:Drivers/STM32WBxx_HAL_Driver/Inc/stm32wbxx_ll_exti.h ****   *         @arg @ref LL_EXTI_LINE_ALL_32_63
 691:Drivers/STM32WBxx_HAL_Driver/Inc/stm32wbxx_ll_exti.h ****   *         (*) value not defined in all devices
 692:Drivers/STM32WBxx_HAL_Driver/Inc/stm32wbxx_ll_exti.h ****   * @retval State of bit (1 or 0).
 693:Drivers/STM32WBxx_HAL_Driver/Inc/stm32wbxx_ll_exti.h ****   */
 694:Drivers/STM32WBxx_HAL_Driver/Inc/stm32wbxx_ll_exti.h **** __STATIC_INLINE uint32_t LL_C2_EXTI_IsEnabledIT_32_63(uint32_t ExtiLine)
 695:Drivers/STM32WBxx_HAL_Driver/Inc/stm32wbxx_ll_exti.h **** {
 696:Drivers/STM32WBxx_HAL_Driver/Inc/stm32wbxx_ll_exti.h ****   return ((READ_BIT(EXTI->C2IMR2, ExtiLine) == (ExtiLine)) ? 1UL : 0UL);
 697:Drivers/STM32WBxx_HAL_Driver/Inc/stm32wbxx_ll_exti.h **** }
 698:Drivers/STM32WBxx_HAL_Driver/Inc/stm32wbxx_ll_exti.h **** 
 699:Drivers/STM32WBxx_HAL_Driver/Inc/stm32wbxx_ll_exti.h **** /**
 700:Drivers/STM32WBxx_HAL_Driver/Inc/stm32wbxx_ll_exti.h ****   * @}
 701:Drivers/STM32WBxx_HAL_Driver/Inc/stm32wbxx_ll_exti.h ****   */
 702:Drivers/STM32WBxx_HAL_Driver/Inc/stm32wbxx_ll_exti.h **** 
 703:Drivers/STM32WBxx_HAL_Driver/Inc/stm32wbxx_ll_exti.h **** /** @defgroup EXTI_LL_EF_Event_Management Event_Management
 704:Drivers/STM32WBxx_HAL_Driver/Inc/stm32wbxx_ll_exti.h ****   * @{
 705:Drivers/STM32WBxx_HAL_Driver/Inc/stm32wbxx_ll_exti.h ****   */
 706:Drivers/STM32WBxx_HAL_Driver/Inc/stm32wbxx_ll_exti.h **** 
 707:Drivers/STM32WBxx_HAL_Driver/Inc/stm32wbxx_ll_exti.h **** /**
 708:Drivers/STM32WBxx_HAL_Driver/Inc/stm32wbxx_ll_exti.h ****   * @brief  Enable ExtiLine Event request for Lines in range 0 to 31
 709:Drivers/STM32WBxx_HAL_Driver/Inc/stm32wbxx_ll_exti.h ****   * @rmtoll EMR1         EMx           LL_EXTI_EnableEvent_0_31
 710:Drivers/STM32WBxx_HAL_Driver/Inc/stm32wbxx_ll_exti.h ****   * @param  ExtiLine This parameter can be a combination of the following values:
 711:Drivers/STM32WBxx_HAL_Driver/Inc/stm32wbxx_ll_exti.h ****   *         @arg @ref LL_EXTI_LINE_0
 712:Drivers/STM32WBxx_HAL_Driver/Inc/stm32wbxx_ll_exti.h ****   *         @arg @ref LL_EXTI_LINE_1
 713:Drivers/STM32WBxx_HAL_Driver/Inc/stm32wbxx_ll_exti.h ****   *         @arg @ref LL_EXTI_LINE_2
 714:Drivers/STM32WBxx_HAL_Driver/Inc/stm32wbxx_ll_exti.h ****   *         @arg @ref LL_EXTI_LINE_3
 715:Drivers/STM32WBxx_HAL_Driver/Inc/stm32wbxx_ll_exti.h ****   *         @arg @ref LL_EXTI_LINE_4
 716:Drivers/STM32WBxx_HAL_Driver/Inc/stm32wbxx_ll_exti.h ****   *         @arg @ref LL_EXTI_LINE_5
 717:Drivers/STM32WBxx_HAL_Driver/Inc/stm32wbxx_ll_exti.h ****   *         @arg @ref LL_EXTI_LINE_6
 718:Drivers/STM32WBxx_HAL_Driver/Inc/stm32wbxx_ll_exti.h ****   *         @arg @ref LL_EXTI_LINE_7
 719:Drivers/STM32WBxx_HAL_Driver/Inc/stm32wbxx_ll_exti.h ****   *         @arg @ref LL_EXTI_LINE_8
 720:Drivers/STM32WBxx_HAL_Driver/Inc/stm32wbxx_ll_exti.h ****   *         @arg @ref LL_EXTI_LINE_9
 721:Drivers/STM32WBxx_HAL_Driver/Inc/stm32wbxx_ll_exti.h ****   *         @arg @ref LL_EXTI_LINE_10
 722:Drivers/STM32WBxx_HAL_Driver/Inc/stm32wbxx_ll_exti.h ****   *         @arg @ref LL_EXTI_LINE_11
 723:Drivers/STM32WBxx_HAL_Driver/Inc/stm32wbxx_ll_exti.h ****   *         @arg @ref LL_EXTI_LINE_12
 724:Drivers/STM32WBxx_HAL_Driver/Inc/stm32wbxx_ll_exti.h ****   *         @arg @ref LL_EXTI_LINE_13
 725:Drivers/STM32WBxx_HAL_Driver/Inc/stm32wbxx_ll_exti.h ****   *         @arg @ref LL_EXTI_LINE_14
 726:Drivers/STM32WBxx_HAL_Driver/Inc/stm32wbxx_ll_exti.h ****   *         @arg @ref LL_EXTI_LINE_15
 727:Drivers/STM32WBxx_HAL_Driver/Inc/stm32wbxx_ll_exti.h ****   *         @arg @ref LL_EXTI_LINE_17
 728:Drivers/STM32WBxx_HAL_Driver/Inc/stm32wbxx_ll_exti.h ****   *         @arg @ref LL_EXTI_LINE_18
 729:Drivers/STM32WBxx_HAL_Driver/Inc/stm32wbxx_ll_exti.h ****   *         @arg @ref LL_EXTI_LINE_19
ARM GAS  /tmp/cczZhyqe.s 			page 24


 730:Drivers/STM32WBxx_HAL_Driver/Inc/stm32wbxx_ll_exti.h ****   *         @arg @ref LL_EXTI_LINE_20 (*)
 731:Drivers/STM32WBxx_HAL_Driver/Inc/stm32wbxx_ll_exti.h ****   *         @arg @ref LL_EXTI_LINE_21 (*)
 732:Drivers/STM32WBxx_HAL_Driver/Inc/stm32wbxx_ll_exti.h ****   *         (*) value not defined in all devices
 733:Drivers/STM32WBxx_HAL_Driver/Inc/stm32wbxx_ll_exti.h ****   * @retval None
 734:Drivers/STM32WBxx_HAL_Driver/Inc/stm32wbxx_ll_exti.h ****   */
 735:Drivers/STM32WBxx_HAL_Driver/Inc/stm32wbxx_ll_exti.h **** __STATIC_INLINE void LL_EXTI_EnableEvent_0_31(uint32_t ExtiLine)
 736:Drivers/STM32WBxx_HAL_Driver/Inc/stm32wbxx_ll_exti.h **** {
 737:Drivers/STM32WBxx_HAL_Driver/Inc/stm32wbxx_ll_exti.h ****   SET_BIT(EXTI->EMR1, ExtiLine);
 738:Drivers/STM32WBxx_HAL_Driver/Inc/stm32wbxx_ll_exti.h **** }
 739:Drivers/STM32WBxx_HAL_Driver/Inc/stm32wbxx_ll_exti.h **** 
 740:Drivers/STM32WBxx_HAL_Driver/Inc/stm32wbxx_ll_exti.h **** /**
 741:Drivers/STM32WBxx_HAL_Driver/Inc/stm32wbxx_ll_exti.h ****   * @brief  Enable ExtiLine Event request for Lines in range 0 to 31 for cpu2
 742:Drivers/STM32WBxx_HAL_Driver/Inc/stm32wbxx_ll_exti.h ****   * @rmtoll C2EMR1         EMx           LL_C2_EXTI_EnableEvent_0_31
 743:Drivers/STM32WBxx_HAL_Driver/Inc/stm32wbxx_ll_exti.h ****   * @param  ExtiLine This parameter can be a combination of the following values:
 744:Drivers/STM32WBxx_HAL_Driver/Inc/stm32wbxx_ll_exti.h ****   *         @arg @ref LL_EXTI_LINE_0
 745:Drivers/STM32WBxx_HAL_Driver/Inc/stm32wbxx_ll_exti.h ****   *         @arg @ref LL_EXTI_LINE_1
 746:Drivers/STM32WBxx_HAL_Driver/Inc/stm32wbxx_ll_exti.h ****   *         @arg @ref LL_EXTI_LINE_2
 747:Drivers/STM32WBxx_HAL_Driver/Inc/stm32wbxx_ll_exti.h ****   *         @arg @ref LL_EXTI_LINE_3
 748:Drivers/STM32WBxx_HAL_Driver/Inc/stm32wbxx_ll_exti.h ****   *         @arg @ref LL_EXTI_LINE_4
 749:Drivers/STM32WBxx_HAL_Driver/Inc/stm32wbxx_ll_exti.h ****   *         @arg @ref LL_EXTI_LINE_5
 750:Drivers/STM32WBxx_HAL_Driver/Inc/stm32wbxx_ll_exti.h ****   *         @arg @ref LL_EXTI_LINE_6
 751:Drivers/STM32WBxx_HAL_Driver/Inc/stm32wbxx_ll_exti.h ****   *         @arg @ref LL_EXTI_LINE_7
 752:Drivers/STM32WBxx_HAL_Driver/Inc/stm32wbxx_ll_exti.h ****   *         @arg @ref LL_EXTI_LINE_8
 753:Drivers/STM32WBxx_HAL_Driver/Inc/stm32wbxx_ll_exti.h ****   *         @arg @ref LL_EXTI_LINE_9
 754:Drivers/STM32WBxx_HAL_Driver/Inc/stm32wbxx_ll_exti.h ****   *         @arg @ref LL_EXTI_LINE_10
 755:Drivers/STM32WBxx_HAL_Driver/Inc/stm32wbxx_ll_exti.h ****   *         @arg @ref LL_EXTI_LINE_11
 756:Drivers/STM32WBxx_HAL_Driver/Inc/stm32wbxx_ll_exti.h ****   *         @arg @ref LL_EXTI_LINE_12
 757:Drivers/STM32WBxx_HAL_Driver/Inc/stm32wbxx_ll_exti.h ****   *         @arg @ref LL_EXTI_LINE_13
 758:Drivers/STM32WBxx_HAL_Driver/Inc/stm32wbxx_ll_exti.h ****   *         @arg @ref LL_EXTI_LINE_14
 759:Drivers/STM32WBxx_HAL_Driver/Inc/stm32wbxx_ll_exti.h ****   *         @arg @ref LL_EXTI_LINE_15
 760:Drivers/STM32WBxx_HAL_Driver/Inc/stm32wbxx_ll_exti.h ****   *         @arg @ref LL_EXTI_LINE_17
 761:Drivers/STM32WBxx_HAL_Driver/Inc/stm32wbxx_ll_exti.h ****   *         @arg @ref LL_EXTI_LINE_18
 762:Drivers/STM32WBxx_HAL_Driver/Inc/stm32wbxx_ll_exti.h ****   *         @arg @ref LL_EXTI_LINE_19
 763:Drivers/STM32WBxx_HAL_Driver/Inc/stm32wbxx_ll_exti.h ****   *         @arg @ref LL_EXTI_LINE_20 (*)
 764:Drivers/STM32WBxx_HAL_Driver/Inc/stm32wbxx_ll_exti.h ****   *         @arg @ref LL_EXTI_LINE_21 (*)
 765:Drivers/STM32WBxx_HAL_Driver/Inc/stm32wbxx_ll_exti.h ****   *         (*) value not defined in all devices
 766:Drivers/STM32WBxx_HAL_Driver/Inc/stm32wbxx_ll_exti.h ****   * @retval None
 767:Drivers/STM32WBxx_HAL_Driver/Inc/stm32wbxx_ll_exti.h ****   */
 768:Drivers/STM32WBxx_HAL_Driver/Inc/stm32wbxx_ll_exti.h **** __STATIC_INLINE void LL_C2_EXTI_EnableEvent_0_31(uint32_t ExtiLine)
 769:Drivers/STM32WBxx_HAL_Driver/Inc/stm32wbxx_ll_exti.h **** {
 770:Drivers/STM32WBxx_HAL_Driver/Inc/stm32wbxx_ll_exti.h ****   SET_BIT(EXTI->C2EMR1, ExtiLine);
 771:Drivers/STM32WBxx_HAL_Driver/Inc/stm32wbxx_ll_exti.h **** }
 772:Drivers/STM32WBxx_HAL_Driver/Inc/stm32wbxx_ll_exti.h **** 
 773:Drivers/STM32WBxx_HAL_Driver/Inc/stm32wbxx_ll_exti.h **** /**
 774:Drivers/STM32WBxx_HAL_Driver/Inc/stm32wbxx_ll_exti.h ****   * @brief  Enable ExtiLine Event request for Lines in range 32 to 63
 775:Drivers/STM32WBxx_HAL_Driver/Inc/stm32wbxx_ll_exti.h ****   * @rmtoll EMR2         EMx           LL_EXTI_EnableEvent_32_63
 776:Drivers/STM32WBxx_HAL_Driver/Inc/stm32wbxx_ll_exti.h ****   * @param  ExtiLine This parameter can be a combination of the following values:
 777:Drivers/STM32WBxx_HAL_Driver/Inc/stm32wbxx_ll_exti.h ****   *         @arg @ref LL_EXTI_LINE_40
 778:Drivers/STM32WBxx_HAL_Driver/Inc/stm32wbxx_ll_exti.h ****   *         @arg @ref LL_EXTI_LINE_41
 779:Drivers/STM32WBxx_HAL_Driver/Inc/stm32wbxx_ll_exti.h ****   * @retval None
 780:Drivers/STM32WBxx_HAL_Driver/Inc/stm32wbxx_ll_exti.h ****   */
 781:Drivers/STM32WBxx_HAL_Driver/Inc/stm32wbxx_ll_exti.h **** __STATIC_INLINE void LL_EXTI_EnableEvent_32_63(uint32_t ExtiLine)
 782:Drivers/STM32WBxx_HAL_Driver/Inc/stm32wbxx_ll_exti.h **** {
 783:Drivers/STM32WBxx_HAL_Driver/Inc/stm32wbxx_ll_exti.h ****   SET_BIT(EXTI->EMR2, ExtiLine);
 784:Drivers/STM32WBxx_HAL_Driver/Inc/stm32wbxx_ll_exti.h **** }
 785:Drivers/STM32WBxx_HAL_Driver/Inc/stm32wbxx_ll_exti.h **** 
 786:Drivers/STM32WBxx_HAL_Driver/Inc/stm32wbxx_ll_exti.h **** /**
ARM GAS  /tmp/cczZhyqe.s 			page 25


 787:Drivers/STM32WBxx_HAL_Driver/Inc/stm32wbxx_ll_exti.h ****   * @brief  Enable ExtiLine Event request for Lines in range 32 to 63 for cpu2
 788:Drivers/STM32WBxx_HAL_Driver/Inc/stm32wbxx_ll_exti.h ****   * @rmtoll C2EMR2         EMx           LL_C2_EXTI_EnableEvent_32_63
 789:Drivers/STM32WBxx_HAL_Driver/Inc/stm32wbxx_ll_exti.h ****   * @param  ExtiLine This parameter can be a combination of the following values:
 790:Drivers/STM32WBxx_HAL_Driver/Inc/stm32wbxx_ll_exti.h ****   *         @arg @ref LL_EXTI_LINE_40
 791:Drivers/STM32WBxx_HAL_Driver/Inc/stm32wbxx_ll_exti.h ****   *         @arg @ref LL_EXTI_LINE_41
 792:Drivers/STM32WBxx_HAL_Driver/Inc/stm32wbxx_ll_exti.h ****   * @retval None
 793:Drivers/STM32WBxx_HAL_Driver/Inc/stm32wbxx_ll_exti.h ****   */
 794:Drivers/STM32WBxx_HAL_Driver/Inc/stm32wbxx_ll_exti.h **** __STATIC_INLINE void LL_C2_EXTI_EnableEvent_32_63(uint32_t ExtiLine)
 795:Drivers/STM32WBxx_HAL_Driver/Inc/stm32wbxx_ll_exti.h **** {
 796:Drivers/STM32WBxx_HAL_Driver/Inc/stm32wbxx_ll_exti.h ****   SET_BIT(EXTI->C2EMR2, ExtiLine);
 797:Drivers/STM32WBxx_HAL_Driver/Inc/stm32wbxx_ll_exti.h **** }
 798:Drivers/STM32WBxx_HAL_Driver/Inc/stm32wbxx_ll_exti.h **** 
 799:Drivers/STM32WBxx_HAL_Driver/Inc/stm32wbxx_ll_exti.h **** /**
 800:Drivers/STM32WBxx_HAL_Driver/Inc/stm32wbxx_ll_exti.h ****   * @brief  Disable ExtiLine Event request for Lines in range 0 to 31
 801:Drivers/STM32WBxx_HAL_Driver/Inc/stm32wbxx_ll_exti.h ****   * @rmtoll EMR1         EMx           LL_EXTI_DisableEvent_0_31
 802:Drivers/STM32WBxx_HAL_Driver/Inc/stm32wbxx_ll_exti.h ****   * @param  ExtiLine This parameter can be a combination of the following values:
 803:Drivers/STM32WBxx_HAL_Driver/Inc/stm32wbxx_ll_exti.h ****   *         @arg @ref LL_EXTI_LINE_0
 804:Drivers/STM32WBxx_HAL_Driver/Inc/stm32wbxx_ll_exti.h ****   *         @arg @ref LL_EXTI_LINE_1
 805:Drivers/STM32WBxx_HAL_Driver/Inc/stm32wbxx_ll_exti.h ****   *         @arg @ref LL_EXTI_LINE_2
 806:Drivers/STM32WBxx_HAL_Driver/Inc/stm32wbxx_ll_exti.h ****   *         @arg @ref LL_EXTI_LINE_3
 807:Drivers/STM32WBxx_HAL_Driver/Inc/stm32wbxx_ll_exti.h ****   *         @arg @ref LL_EXTI_LINE_4
 808:Drivers/STM32WBxx_HAL_Driver/Inc/stm32wbxx_ll_exti.h ****   *         @arg @ref LL_EXTI_LINE_5
 809:Drivers/STM32WBxx_HAL_Driver/Inc/stm32wbxx_ll_exti.h ****   *         @arg @ref LL_EXTI_LINE_6
 810:Drivers/STM32WBxx_HAL_Driver/Inc/stm32wbxx_ll_exti.h ****   *         @arg @ref LL_EXTI_LINE_7
 811:Drivers/STM32WBxx_HAL_Driver/Inc/stm32wbxx_ll_exti.h ****   *         @arg @ref LL_EXTI_LINE_8
 812:Drivers/STM32WBxx_HAL_Driver/Inc/stm32wbxx_ll_exti.h ****   *         @arg @ref LL_EXTI_LINE_9
 813:Drivers/STM32WBxx_HAL_Driver/Inc/stm32wbxx_ll_exti.h ****   *         @arg @ref LL_EXTI_LINE_10
 814:Drivers/STM32WBxx_HAL_Driver/Inc/stm32wbxx_ll_exti.h ****   *         @arg @ref LL_EXTI_LINE_11
 815:Drivers/STM32WBxx_HAL_Driver/Inc/stm32wbxx_ll_exti.h ****   *         @arg @ref LL_EXTI_LINE_12
 816:Drivers/STM32WBxx_HAL_Driver/Inc/stm32wbxx_ll_exti.h ****   *         @arg @ref LL_EXTI_LINE_13
 817:Drivers/STM32WBxx_HAL_Driver/Inc/stm32wbxx_ll_exti.h ****   *         @arg @ref LL_EXTI_LINE_14
 818:Drivers/STM32WBxx_HAL_Driver/Inc/stm32wbxx_ll_exti.h ****   *         @arg @ref LL_EXTI_LINE_15
 819:Drivers/STM32WBxx_HAL_Driver/Inc/stm32wbxx_ll_exti.h ****   *         @arg @ref LL_EXTI_LINE_17
 820:Drivers/STM32WBxx_HAL_Driver/Inc/stm32wbxx_ll_exti.h ****   *         @arg @ref LL_EXTI_LINE_18
 821:Drivers/STM32WBxx_HAL_Driver/Inc/stm32wbxx_ll_exti.h ****   *         @arg @ref LL_EXTI_LINE_19
 822:Drivers/STM32WBxx_HAL_Driver/Inc/stm32wbxx_ll_exti.h ****   *         @arg @ref LL_EXTI_LINE_20 (*)
 823:Drivers/STM32WBxx_HAL_Driver/Inc/stm32wbxx_ll_exti.h ****   *         @arg @ref LL_EXTI_LINE_21 (*)
 824:Drivers/STM32WBxx_HAL_Driver/Inc/stm32wbxx_ll_exti.h ****   * @retval None
 825:Drivers/STM32WBxx_HAL_Driver/Inc/stm32wbxx_ll_exti.h ****   */
 826:Drivers/STM32WBxx_HAL_Driver/Inc/stm32wbxx_ll_exti.h **** __STATIC_INLINE void LL_EXTI_DisableEvent_0_31(uint32_t ExtiLine)
 827:Drivers/STM32WBxx_HAL_Driver/Inc/stm32wbxx_ll_exti.h **** {
 828:Drivers/STM32WBxx_HAL_Driver/Inc/stm32wbxx_ll_exti.h ****   CLEAR_BIT(EXTI->EMR1, ExtiLine);
 829:Drivers/STM32WBxx_HAL_Driver/Inc/stm32wbxx_ll_exti.h **** }
 830:Drivers/STM32WBxx_HAL_Driver/Inc/stm32wbxx_ll_exti.h **** 
 831:Drivers/STM32WBxx_HAL_Driver/Inc/stm32wbxx_ll_exti.h **** /**
 832:Drivers/STM32WBxx_HAL_Driver/Inc/stm32wbxx_ll_exti.h ****   * @brief  Disable ExtiLine Event request for Lines in range 0 to 31 for cpu2
 833:Drivers/STM32WBxx_HAL_Driver/Inc/stm32wbxx_ll_exti.h ****   * @rmtoll C2EMR1         EMx           LL_C2_EXTI_DisableEvent_0_31
 834:Drivers/STM32WBxx_HAL_Driver/Inc/stm32wbxx_ll_exti.h ****   * @param  ExtiLine This parameter can be a combination of the following values:
 835:Drivers/STM32WBxx_HAL_Driver/Inc/stm32wbxx_ll_exti.h ****   *         @arg @ref LL_EXTI_LINE_0
 836:Drivers/STM32WBxx_HAL_Driver/Inc/stm32wbxx_ll_exti.h ****   *         @arg @ref LL_EXTI_LINE_1
 837:Drivers/STM32WBxx_HAL_Driver/Inc/stm32wbxx_ll_exti.h ****   *         @arg @ref LL_EXTI_LINE_2
 838:Drivers/STM32WBxx_HAL_Driver/Inc/stm32wbxx_ll_exti.h ****   *         @arg @ref LL_EXTI_LINE_3
 839:Drivers/STM32WBxx_HAL_Driver/Inc/stm32wbxx_ll_exti.h ****   *         @arg @ref LL_EXTI_LINE_4
 840:Drivers/STM32WBxx_HAL_Driver/Inc/stm32wbxx_ll_exti.h ****   *         @arg @ref LL_EXTI_LINE_5
 841:Drivers/STM32WBxx_HAL_Driver/Inc/stm32wbxx_ll_exti.h ****   *         @arg @ref LL_EXTI_LINE_6
 842:Drivers/STM32WBxx_HAL_Driver/Inc/stm32wbxx_ll_exti.h ****   *         @arg @ref LL_EXTI_LINE_7
 843:Drivers/STM32WBxx_HAL_Driver/Inc/stm32wbxx_ll_exti.h ****   *         @arg @ref LL_EXTI_LINE_8
ARM GAS  /tmp/cczZhyqe.s 			page 26


 844:Drivers/STM32WBxx_HAL_Driver/Inc/stm32wbxx_ll_exti.h ****   *         @arg @ref LL_EXTI_LINE_9
 845:Drivers/STM32WBxx_HAL_Driver/Inc/stm32wbxx_ll_exti.h ****   *         @arg @ref LL_EXTI_LINE_10
 846:Drivers/STM32WBxx_HAL_Driver/Inc/stm32wbxx_ll_exti.h ****   *         @arg @ref LL_EXTI_LINE_11
 847:Drivers/STM32WBxx_HAL_Driver/Inc/stm32wbxx_ll_exti.h ****   *         @arg @ref LL_EXTI_LINE_12
 848:Drivers/STM32WBxx_HAL_Driver/Inc/stm32wbxx_ll_exti.h ****   *         @arg @ref LL_EXTI_LINE_13
 849:Drivers/STM32WBxx_HAL_Driver/Inc/stm32wbxx_ll_exti.h ****   *         @arg @ref LL_EXTI_LINE_14
 850:Drivers/STM32WBxx_HAL_Driver/Inc/stm32wbxx_ll_exti.h ****   *         @arg @ref LL_EXTI_LINE_15
 851:Drivers/STM32WBxx_HAL_Driver/Inc/stm32wbxx_ll_exti.h ****   *         @arg @ref LL_EXTI_LINE_17
 852:Drivers/STM32WBxx_HAL_Driver/Inc/stm32wbxx_ll_exti.h ****   *         @arg @ref LL_EXTI_LINE_18
 853:Drivers/STM32WBxx_HAL_Driver/Inc/stm32wbxx_ll_exti.h ****   *         @arg @ref LL_EXTI_LINE_19
 854:Drivers/STM32WBxx_HAL_Driver/Inc/stm32wbxx_ll_exti.h ****   *         @arg @ref LL_EXTI_LINE_20 (*)
 855:Drivers/STM32WBxx_HAL_Driver/Inc/stm32wbxx_ll_exti.h ****   *         @arg @ref LL_EXTI_LINE_21 (*)
 856:Drivers/STM32WBxx_HAL_Driver/Inc/stm32wbxx_ll_exti.h ****   *         (*) value not defined in all devices
 857:Drivers/STM32WBxx_HAL_Driver/Inc/stm32wbxx_ll_exti.h ****   * @retval None
 858:Drivers/STM32WBxx_HAL_Driver/Inc/stm32wbxx_ll_exti.h ****   */
 859:Drivers/STM32WBxx_HAL_Driver/Inc/stm32wbxx_ll_exti.h **** __STATIC_INLINE void LL_C2_EXTI_DisableEvent_0_31(uint32_t ExtiLine)
 860:Drivers/STM32WBxx_HAL_Driver/Inc/stm32wbxx_ll_exti.h **** {
 861:Drivers/STM32WBxx_HAL_Driver/Inc/stm32wbxx_ll_exti.h ****   CLEAR_BIT(EXTI->C2EMR1, ExtiLine);
 862:Drivers/STM32WBxx_HAL_Driver/Inc/stm32wbxx_ll_exti.h **** }
 863:Drivers/STM32WBxx_HAL_Driver/Inc/stm32wbxx_ll_exti.h **** 
 864:Drivers/STM32WBxx_HAL_Driver/Inc/stm32wbxx_ll_exti.h **** /**
 865:Drivers/STM32WBxx_HAL_Driver/Inc/stm32wbxx_ll_exti.h ****   * @brief  Disable ExtiLine Event request for Lines in range 32 to 63
 866:Drivers/STM32WBxx_HAL_Driver/Inc/stm32wbxx_ll_exti.h ****   * @rmtoll EMR2         EMx           LL_EXTI_DisableEvent_32_63
 867:Drivers/STM32WBxx_HAL_Driver/Inc/stm32wbxx_ll_exti.h ****   * @param  ExtiLine This parameter can be a combination of the following values:
 868:Drivers/STM32WBxx_HAL_Driver/Inc/stm32wbxx_ll_exti.h ****   *         @arg @ref LL_EXTI_LINE_40
 869:Drivers/STM32WBxx_HAL_Driver/Inc/stm32wbxx_ll_exti.h ****   *         @arg @ref LL_EXTI_LINE_41
 870:Drivers/STM32WBxx_HAL_Driver/Inc/stm32wbxx_ll_exti.h ****   *         (*) value not defined in all devices
 871:Drivers/STM32WBxx_HAL_Driver/Inc/stm32wbxx_ll_exti.h ****   * @retval None
 872:Drivers/STM32WBxx_HAL_Driver/Inc/stm32wbxx_ll_exti.h ****   */
 873:Drivers/STM32WBxx_HAL_Driver/Inc/stm32wbxx_ll_exti.h **** __STATIC_INLINE void LL_EXTI_DisableEvent_32_63(uint32_t ExtiLine)
 874:Drivers/STM32WBxx_HAL_Driver/Inc/stm32wbxx_ll_exti.h **** {
 875:Drivers/STM32WBxx_HAL_Driver/Inc/stm32wbxx_ll_exti.h ****   CLEAR_BIT(EXTI->EMR2, ExtiLine);
 876:Drivers/STM32WBxx_HAL_Driver/Inc/stm32wbxx_ll_exti.h **** }
 877:Drivers/STM32WBxx_HAL_Driver/Inc/stm32wbxx_ll_exti.h **** 
 878:Drivers/STM32WBxx_HAL_Driver/Inc/stm32wbxx_ll_exti.h **** /**
 879:Drivers/STM32WBxx_HAL_Driver/Inc/stm32wbxx_ll_exti.h ****   * @brief  Disable ExtiLine Event request for Lines in range 32 to 63 for cpu2
 880:Drivers/STM32WBxx_HAL_Driver/Inc/stm32wbxx_ll_exti.h ****   * @rmtoll C2EMR2         EMx           LL_C2_EXTI_DisableEvent_32_63
 881:Drivers/STM32WBxx_HAL_Driver/Inc/stm32wbxx_ll_exti.h ****   * @param  ExtiLine This parameter can be a combination of the following values:
 882:Drivers/STM32WBxx_HAL_Driver/Inc/stm32wbxx_ll_exti.h ****   *         @arg @ref LL_EXTI_LINE_40
 883:Drivers/STM32WBxx_HAL_Driver/Inc/stm32wbxx_ll_exti.h ****   *         @arg @ref LL_EXTI_LINE_41
 884:Drivers/STM32WBxx_HAL_Driver/Inc/stm32wbxx_ll_exti.h ****   * @retval None
 885:Drivers/STM32WBxx_HAL_Driver/Inc/stm32wbxx_ll_exti.h ****   */
 886:Drivers/STM32WBxx_HAL_Driver/Inc/stm32wbxx_ll_exti.h **** __STATIC_INLINE void LL_C2_EXTI_DisableEvent_32_63(uint32_t ExtiLine)
 887:Drivers/STM32WBxx_HAL_Driver/Inc/stm32wbxx_ll_exti.h **** {
 888:Drivers/STM32WBxx_HAL_Driver/Inc/stm32wbxx_ll_exti.h ****   CLEAR_BIT(EXTI->C2EMR2, ExtiLine);
 889:Drivers/STM32WBxx_HAL_Driver/Inc/stm32wbxx_ll_exti.h **** }
 890:Drivers/STM32WBxx_HAL_Driver/Inc/stm32wbxx_ll_exti.h **** 
 891:Drivers/STM32WBxx_HAL_Driver/Inc/stm32wbxx_ll_exti.h **** /**
 892:Drivers/STM32WBxx_HAL_Driver/Inc/stm32wbxx_ll_exti.h ****   * @brief  Indicate if ExtiLine Event request is enabled for Lines in range 0 to 31
 893:Drivers/STM32WBxx_HAL_Driver/Inc/stm32wbxx_ll_exti.h ****   * @rmtoll EMR1         EMx           LL_EXTI_IsEnabledEvent_0_31
 894:Drivers/STM32WBxx_HAL_Driver/Inc/stm32wbxx_ll_exti.h ****   * @param  ExtiLine This parameter can be a combination of the following values:
 895:Drivers/STM32WBxx_HAL_Driver/Inc/stm32wbxx_ll_exti.h ****   *         @arg @ref LL_EXTI_LINE_0
 896:Drivers/STM32WBxx_HAL_Driver/Inc/stm32wbxx_ll_exti.h ****   *         @arg @ref LL_EXTI_LINE_1
 897:Drivers/STM32WBxx_HAL_Driver/Inc/stm32wbxx_ll_exti.h ****   *         @arg @ref LL_EXTI_LINE_2
 898:Drivers/STM32WBxx_HAL_Driver/Inc/stm32wbxx_ll_exti.h ****   *         @arg @ref LL_EXTI_LINE_3
 899:Drivers/STM32WBxx_HAL_Driver/Inc/stm32wbxx_ll_exti.h ****   *         @arg @ref LL_EXTI_LINE_4
 900:Drivers/STM32WBxx_HAL_Driver/Inc/stm32wbxx_ll_exti.h ****   *         @arg @ref LL_EXTI_LINE_5
ARM GAS  /tmp/cczZhyqe.s 			page 27


 901:Drivers/STM32WBxx_HAL_Driver/Inc/stm32wbxx_ll_exti.h ****   *         @arg @ref LL_EXTI_LINE_6
 902:Drivers/STM32WBxx_HAL_Driver/Inc/stm32wbxx_ll_exti.h ****   *         @arg @ref LL_EXTI_LINE_7
 903:Drivers/STM32WBxx_HAL_Driver/Inc/stm32wbxx_ll_exti.h ****   *         @arg @ref LL_EXTI_LINE_8
 904:Drivers/STM32WBxx_HAL_Driver/Inc/stm32wbxx_ll_exti.h ****   *         @arg @ref LL_EXTI_LINE_9
 905:Drivers/STM32WBxx_HAL_Driver/Inc/stm32wbxx_ll_exti.h ****   *         @arg @ref LL_EXTI_LINE_10
 906:Drivers/STM32WBxx_HAL_Driver/Inc/stm32wbxx_ll_exti.h ****   *         @arg @ref LL_EXTI_LINE_11
 907:Drivers/STM32WBxx_HAL_Driver/Inc/stm32wbxx_ll_exti.h ****   *         @arg @ref LL_EXTI_LINE_12
 908:Drivers/STM32WBxx_HAL_Driver/Inc/stm32wbxx_ll_exti.h ****   *         @arg @ref LL_EXTI_LINE_13
 909:Drivers/STM32WBxx_HAL_Driver/Inc/stm32wbxx_ll_exti.h ****   *         @arg @ref LL_EXTI_LINE_14
 910:Drivers/STM32WBxx_HAL_Driver/Inc/stm32wbxx_ll_exti.h ****   *         @arg @ref LL_EXTI_LINE_15
 911:Drivers/STM32WBxx_HAL_Driver/Inc/stm32wbxx_ll_exti.h ****   *         @arg @ref LL_EXTI_LINE_17
 912:Drivers/STM32WBxx_HAL_Driver/Inc/stm32wbxx_ll_exti.h ****   *         @arg @ref LL_EXTI_LINE_18
 913:Drivers/STM32WBxx_HAL_Driver/Inc/stm32wbxx_ll_exti.h ****   *         @arg @ref LL_EXTI_LINE_19
 914:Drivers/STM32WBxx_HAL_Driver/Inc/stm32wbxx_ll_exti.h ****   *         @arg @ref LL_EXTI_LINE_20 (*)
 915:Drivers/STM32WBxx_HAL_Driver/Inc/stm32wbxx_ll_exti.h ****   *         @arg @ref LL_EXTI_LINE_21 (*)
 916:Drivers/STM32WBxx_HAL_Driver/Inc/stm32wbxx_ll_exti.h ****   *         (*) value not defined in all devices
 917:Drivers/STM32WBxx_HAL_Driver/Inc/stm32wbxx_ll_exti.h ****   * @note   Please check each device line mapping for EXTI Line availability
 918:Drivers/STM32WBxx_HAL_Driver/Inc/stm32wbxx_ll_exti.h ****   * @retval State of bit (1 or 0).
 919:Drivers/STM32WBxx_HAL_Driver/Inc/stm32wbxx_ll_exti.h ****   */
 920:Drivers/STM32WBxx_HAL_Driver/Inc/stm32wbxx_ll_exti.h **** __STATIC_INLINE uint32_t LL_EXTI_IsEnabledEvent_0_31(uint32_t ExtiLine)
 921:Drivers/STM32WBxx_HAL_Driver/Inc/stm32wbxx_ll_exti.h **** {
 922:Drivers/STM32WBxx_HAL_Driver/Inc/stm32wbxx_ll_exti.h ****   return ((READ_BIT(EXTI->EMR1, ExtiLine) == (ExtiLine)) ? 1UL : 0UL);
 923:Drivers/STM32WBxx_HAL_Driver/Inc/stm32wbxx_ll_exti.h **** }
 924:Drivers/STM32WBxx_HAL_Driver/Inc/stm32wbxx_ll_exti.h **** 
 925:Drivers/STM32WBxx_HAL_Driver/Inc/stm32wbxx_ll_exti.h **** /**
 926:Drivers/STM32WBxx_HAL_Driver/Inc/stm32wbxx_ll_exti.h ****   * @brief  Indicate if ExtiLine Event request is enabled for Lines in range 0 to 31 for cpu2
 927:Drivers/STM32WBxx_HAL_Driver/Inc/stm32wbxx_ll_exti.h ****   * @rmtoll C2EMR1         EMx           LL_C2_EXTI_IsEnabledEvent_0_31
 928:Drivers/STM32WBxx_HAL_Driver/Inc/stm32wbxx_ll_exti.h ****   * @param  ExtiLine This parameter can be a combination of the following values:
 929:Drivers/STM32WBxx_HAL_Driver/Inc/stm32wbxx_ll_exti.h ****   *         @arg @ref LL_EXTI_LINE_0
 930:Drivers/STM32WBxx_HAL_Driver/Inc/stm32wbxx_ll_exti.h ****   *         @arg @ref LL_EXTI_LINE_1
 931:Drivers/STM32WBxx_HAL_Driver/Inc/stm32wbxx_ll_exti.h ****   *         @arg @ref LL_EXTI_LINE_2
 932:Drivers/STM32WBxx_HAL_Driver/Inc/stm32wbxx_ll_exti.h ****   *         @arg @ref LL_EXTI_LINE_3
 933:Drivers/STM32WBxx_HAL_Driver/Inc/stm32wbxx_ll_exti.h ****   *         @arg @ref LL_EXTI_LINE_4
 934:Drivers/STM32WBxx_HAL_Driver/Inc/stm32wbxx_ll_exti.h ****   *         @arg @ref LL_EXTI_LINE_5
 935:Drivers/STM32WBxx_HAL_Driver/Inc/stm32wbxx_ll_exti.h ****   *         @arg @ref LL_EXTI_LINE_6
 936:Drivers/STM32WBxx_HAL_Driver/Inc/stm32wbxx_ll_exti.h ****   *         @arg @ref LL_EXTI_LINE_7
 937:Drivers/STM32WBxx_HAL_Driver/Inc/stm32wbxx_ll_exti.h ****   *         @arg @ref LL_EXTI_LINE_8
 938:Drivers/STM32WBxx_HAL_Driver/Inc/stm32wbxx_ll_exti.h ****   *         @arg @ref LL_EXTI_LINE_9
 939:Drivers/STM32WBxx_HAL_Driver/Inc/stm32wbxx_ll_exti.h ****   *         @arg @ref LL_EXTI_LINE_10
 940:Drivers/STM32WBxx_HAL_Driver/Inc/stm32wbxx_ll_exti.h ****   *         @arg @ref LL_EXTI_LINE_11
 941:Drivers/STM32WBxx_HAL_Driver/Inc/stm32wbxx_ll_exti.h ****   *         @arg @ref LL_EXTI_LINE_12
 942:Drivers/STM32WBxx_HAL_Driver/Inc/stm32wbxx_ll_exti.h ****   *         @arg @ref LL_EXTI_LINE_13
 943:Drivers/STM32WBxx_HAL_Driver/Inc/stm32wbxx_ll_exti.h ****   *         @arg @ref LL_EXTI_LINE_14
 944:Drivers/STM32WBxx_HAL_Driver/Inc/stm32wbxx_ll_exti.h ****   *         @arg @ref LL_EXTI_LINE_15
 945:Drivers/STM32WBxx_HAL_Driver/Inc/stm32wbxx_ll_exti.h ****   *         @arg @ref LL_EXTI_LINE_17
 946:Drivers/STM32WBxx_HAL_Driver/Inc/stm32wbxx_ll_exti.h ****   *         @arg @ref LL_EXTI_LINE_18
 947:Drivers/STM32WBxx_HAL_Driver/Inc/stm32wbxx_ll_exti.h ****   *         @arg @ref LL_EXTI_LINE_19
 948:Drivers/STM32WBxx_HAL_Driver/Inc/stm32wbxx_ll_exti.h ****   *         @arg @ref LL_EXTI_LINE_20 (*)
 949:Drivers/STM32WBxx_HAL_Driver/Inc/stm32wbxx_ll_exti.h ****   *         @arg @ref LL_EXTI_LINE_21 (*)
 950:Drivers/STM32WBxx_HAL_Driver/Inc/stm32wbxx_ll_exti.h ****   *         (*) value not defined in all devices
 951:Drivers/STM32WBxx_HAL_Driver/Inc/stm32wbxx_ll_exti.h ****   * @note   Please check each device line mapping for EXTI Line availability
 952:Drivers/STM32WBxx_HAL_Driver/Inc/stm32wbxx_ll_exti.h ****   * @retval State of bit (1 or 0).
 953:Drivers/STM32WBxx_HAL_Driver/Inc/stm32wbxx_ll_exti.h ****   */
 954:Drivers/STM32WBxx_HAL_Driver/Inc/stm32wbxx_ll_exti.h **** __STATIC_INLINE uint32_t LL_C2_EXTI_IsEnabledEvent_0_31(uint32_t ExtiLine)
 955:Drivers/STM32WBxx_HAL_Driver/Inc/stm32wbxx_ll_exti.h **** {
 956:Drivers/STM32WBxx_HAL_Driver/Inc/stm32wbxx_ll_exti.h ****   return ((READ_BIT(EXTI->C2EMR1, ExtiLine) == (ExtiLine)) ? 1UL : 0UL);
 957:Drivers/STM32WBxx_HAL_Driver/Inc/stm32wbxx_ll_exti.h **** }
ARM GAS  /tmp/cczZhyqe.s 			page 28


 958:Drivers/STM32WBxx_HAL_Driver/Inc/stm32wbxx_ll_exti.h **** 
 959:Drivers/STM32WBxx_HAL_Driver/Inc/stm32wbxx_ll_exti.h **** /**
 960:Drivers/STM32WBxx_HAL_Driver/Inc/stm32wbxx_ll_exti.h ****   * @brief  Indicate if ExtiLine Event request is enabled for Lines in range 32 to 63
 961:Drivers/STM32WBxx_HAL_Driver/Inc/stm32wbxx_ll_exti.h ****   * @rmtoll EMR2         EMx           LL_EXTI_IsEnabledEvent_32_63
 962:Drivers/STM32WBxx_HAL_Driver/Inc/stm32wbxx_ll_exti.h ****   * @param  ExtiLine This parameter can be a combination of the following values:
 963:Drivers/STM32WBxx_HAL_Driver/Inc/stm32wbxx_ll_exti.h ****   *         @arg @ref LL_EXTI_LINE_40
 964:Drivers/STM32WBxx_HAL_Driver/Inc/stm32wbxx_ll_exti.h ****   *         @arg @ref LL_EXTI_LINE_41
 965:Drivers/STM32WBxx_HAL_Driver/Inc/stm32wbxx_ll_exti.h ****   * @retval State of bit (1 or 0).
 966:Drivers/STM32WBxx_HAL_Driver/Inc/stm32wbxx_ll_exti.h ****   */
 967:Drivers/STM32WBxx_HAL_Driver/Inc/stm32wbxx_ll_exti.h **** __STATIC_INLINE uint32_t LL_EXTI_IsEnabledEvent_32_63(uint32_t ExtiLine)
 968:Drivers/STM32WBxx_HAL_Driver/Inc/stm32wbxx_ll_exti.h **** {
 969:Drivers/STM32WBxx_HAL_Driver/Inc/stm32wbxx_ll_exti.h ****   return ((READ_BIT(EXTI->EMR2, ExtiLine) == (ExtiLine)) ? 1UL : 0UL);
 970:Drivers/STM32WBxx_HAL_Driver/Inc/stm32wbxx_ll_exti.h **** }
 971:Drivers/STM32WBxx_HAL_Driver/Inc/stm32wbxx_ll_exti.h **** 
 972:Drivers/STM32WBxx_HAL_Driver/Inc/stm32wbxx_ll_exti.h **** /**
 973:Drivers/STM32WBxx_HAL_Driver/Inc/stm32wbxx_ll_exti.h ****   * @brief  Indicate if ExtiLine Event request is enabled for Lines in range 32 to 63 for cpu2
 974:Drivers/STM32WBxx_HAL_Driver/Inc/stm32wbxx_ll_exti.h ****   * @rmtoll EMR2         EMx           LL_C2_EXTI_IsEnabledEvent_32_63
 975:Drivers/STM32WBxx_HAL_Driver/Inc/stm32wbxx_ll_exti.h ****   * @param  ExtiLine This parameter can be a combination of the following values:
 976:Drivers/STM32WBxx_HAL_Driver/Inc/stm32wbxx_ll_exti.h ****   *         @arg @ref LL_EXTI_LINE_40
 977:Drivers/STM32WBxx_HAL_Driver/Inc/stm32wbxx_ll_exti.h ****   *         @arg @ref LL_EXTI_LINE_41
 978:Drivers/STM32WBxx_HAL_Driver/Inc/stm32wbxx_ll_exti.h ****   * @retval State of bit (1 or 0).
 979:Drivers/STM32WBxx_HAL_Driver/Inc/stm32wbxx_ll_exti.h ****   */
 980:Drivers/STM32WBxx_HAL_Driver/Inc/stm32wbxx_ll_exti.h **** __STATIC_INLINE uint32_t LL_C2_EXTI_IsEnabledEvent_32_63(uint32_t ExtiLine)
 981:Drivers/STM32WBxx_HAL_Driver/Inc/stm32wbxx_ll_exti.h **** {
 982:Drivers/STM32WBxx_HAL_Driver/Inc/stm32wbxx_ll_exti.h ****   return ((READ_BIT(EXTI->C2EMR2, ExtiLine) == (ExtiLine)) ? 1UL : 0UL);
 983:Drivers/STM32WBxx_HAL_Driver/Inc/stm32wbxx_ll_exti.h **** }
 984:Drivers/STM32WBxx_HAL_Driver/Inc/stm32wbxx_ll_exti.h **** 
 985:Drivers/STM32WBxx_HAL_Driver/Inc/stm32wbxx_ll_exti.h **** /**
 986:Drivers/STM32WBxx_HAL_Driver/Inc/stm32wbxx_ll_exti.h ****   * @}
 987:Drivers/STM32WBxx_HAL_Driver/Inc/stm32wbxx_ll_exti.h ****   */
 988:Drivers/STM32WBxx_HAL_Driver/Inc/stm32wbxx_ll_exti.h **** 
 989:Drivers/STM32WBxx_HAL_Driver/Inc/stm32wbxx_ll_exti.h **** /** @defgroup EXTI_LL_EF_Rising_Trigger_Management Rising_Trigger_Management
 990:Drivers/STM32WBxx_HAL_Driver/Inc/stm32wbxx_ll_exti.h ****   * @{
 991:Drivers/STM32WBxx_HAL_Driver/Inc/stm32wbxx_ll_exti.h ****   */
 992:Drivers/STM32WBxx_HAL_Driver/Inc/stm32wbxx_ll_exti.h **** 
 993:Drivers/STM32WBxx_HAL_Driver/Inc/stm32wbxx_ll_exti.h **** /**
 994:Drivers/STM32WBxx_HAL_Driver/Inc/stm32wbxx_ll_exti.h ****   * @brief  Enable ExtiLine Rising Edge Trigger for Lines in range 0 to 31
 995:Drivers/STM32WBxx_HAL_Driver/Inc/stm32wbxx_ll_exti.h ****   * @note The configurable wakeup lines are edge-triggered. No glitch must be
 996:Drivers/STM32WBxx_HAL_Driver/Inc/stm32wbxx_ll_exti.h ****   *       generated on these lines. If a rising edge on a configurable interrupt
 997:Drivers/STM32WBxx_HAL_Driver/Inc/stm32wbxx_ll_exti.h ****   *       line occurs during a write operation in the EXTI_RTSR register, the
 998:Drivers/STM32WBxx_HAL_Driver/Inc/stm32wbxx_ll_exti.h ****   *       pending bit is not set.
 999:Drivers/STM32WBxx_HAL_Driver/Inc/stm32wbxx_ll_exti.h ****   *       Rising and falling edge triggers can be set for
1000:Drivers/STM32WBxx_HAL_Driver/Inc/stm32wbxx_ll_exti.h ****   *       the same interrupt line. In this case, both generate a trigger
1001:Drivers/STM32WBxx_HAL_Driver/Inc/stm32wbxx_ll_exti.h ****   *       condition.
1002:Drivers/STM32WBxx_HAL_Driver/Inc/stm32wbxx_ll_exti.h ****   * @rmtoll RTSR1        RTx           LL_EXTI_EnableRisingTrig_0_31
1003:Drivers/STM32WBxx_HAL_Driver/Inc/stm32wbxx_ll_exti.h ****   * @param  ExtiLine This parameter can be a combination of the following values:
1004:Drivers/STM32WBxx_HAL_Driver/Inc/stm32wbxx_ll_exti.h ****   *         @arg @ref LL_EXTI_LINE_0
1005:Drivers/STM32WBxx_HAL_Driver/Inc/stm32wbxx_ll_exti.h ****   *         @arg @ref LL_EXTI_LINE_1
1006:Drivers/STM32WBxx_HAL_Driver/Inc/stm32wbxx_ll_exti.h ****   *         @arg @ref LL_EXTI_LINE_2
1007:Drivers/STM32WBxx_HAL_Driver/Inc/stm32wbxx_ll_exti.h ****   *         @arg @ref LL_EXTI_LINE_3
1008:Drivers/STM32WBxx_HAL_Driver/Inc/stm32wbxx_ll_exti.h ****   *         @arg @ref LL_EXTI_LINE_4
1009:Drivers/STM32WBxx_HAL_Driver/Inc/stm32wbxx_ll_exti.h ****   *         @arg @ref LL_EXTI_LINE_5
1010:Drivers/STM32WBxx_HAL_Driver/Inc/stm32wbxx_ll_exti.h ****   *         @arg @ref LL_EXTI_LINE_6
1011:Drivers/STM32WBxx_HAL_Driver/Inc/stm32wbxx_ll_exti.h ****   *         @arg @ref LL_EXTI_LINE_7
1012:Drivers/STM32WBxx_HAL_Driver/Inc/stm32wbxx_ll_exti.h ****   *         @arg @ref LL_EXTI_LINE_8
1013:Drivers/STM32WBxx_HAL_Driver/Inc/stm32wbxx_ll_exti.h ****   *         @arg @ref LL_EXTI_LINE_9
1014:Drivers/STM32WBxx_HAL_Driver/Inc/stm32wbxx_ll_exti.h ****   *         @arg @ref LL_EXTI_LINE_10
ARM GAS  /tmp/cczZhyqe.s 			page 29


1015:Drivers/STM32WBxx_HAL_Driver/Inc/stm32wbxx_ll_exti.h ****   *         @arg @ref LL_EXTI_LINE_11
1016:Drivers/STM32WBxx_HAL_Driver/Inc/stm32wbxx_ll_exti.h ****   *         @arg @ref LL_EXTI_LINE_12
1017:Drivers/STM32WBxx_HAL_Driver/Inc/stm32wbxx_ll_exti.h ****   *         @arg @ref LL_EXTI_LINE_13
1018:Drivers/STM32WBxx_HAL_Driver/Inc/stm32wbxx_ll_exti.h ****   *         @arg @ref LL_EXTI_LINE_14
1019:Drivers/STM32WBxx_HAL_Driver/Inc/stm32wbxx_ll_exti.h ****   *         @arg @ref LL_EXTI_LINE_15
1020:Drivers/STM32WBxx_HAL_Driver/Inc/stm32wbxx_ll_exti.h ****   *         @arg @ref LL_EXTI_LINE_16
1021:Drivers/STM32WBxx_HAL_Driver/Inc/stm32wbxx_ll_exti.h ****   *         @arg @ref LL_EXTI_LINE_17
1022:Drivers/STM32WBxx_HAL_Driver/Inc/stm32wbxx_ll_exti.h ****   *         @arg @ref LL_EXTI_LINE_18
1023:Drivers/STM32WBxx_HAL_Driver/Inc/stm32wbxx_ll_exti.h ****   *         @arg @ref LL_EXTI_LINE_19
1024:Drivers/STM32WBxx_HAL_Driver/Inc/stm32wbxx_ll_exti.h ****   *         @arg @ref LL_EXTI_LINE_20 (*)
1025:Drivers/STM32WBxx_HAL_Driver/Inc/stm32wbxx_ll_exti.h ****   *         @arg @ref LL_EXTI_LINE_21 (*)
1026:Drivers/STM32WBxx_HAL_Driver/Inc/stm32wbxx_ll_exti.h ****   *         @arg @ref LL_EXTI_LINE_31 (*)
1027:Drivers/STM32WBxx_HAL_Driver/Inc/stm32wbxx_ll_exti.h ****   *         (*) value not defined in all devices
1028:Drivers/STM32WBxx_HAL_Driver/Inc/stm32wbxx_ll_exti.h ****   * @retval None
1029:Drivers/STM32WBxx_HAL_Driver/Inc/stm32wbxx_ll_exti.h ****   */
1030:Drivers/STM32WBxx_HAL_Driver/Inc/stm32wbxx_ll_exti.h **** __STATIC_INLINE void LL_EXTI_EnableRisingTrig_0_31(uint32_t ExtiLine)
1031:Drivers/STM32WBxx_HAL_Driver/Inc/stm32wbxx_ll_exti.h **** {
1032:Drivers/STM32WBxx_HAL_Driver/Inc/stm32wbxx_ll_exti.h ****   SET_BIT(EXTI->RTSR1, ExtiLine);
1033:Drivers/STM32WBxx_HAL_Driver/Inc/stm32wbxx_ll_exti.h **** 
1034:Drivers/STM32WBxx_HAL_Driver/Inc/stm32wbxx_ll_exti.h **** }
1035:Drivers/STM32WBxx_HAL_Driver/Inc/stm32wbxx_ll_exti.h **** 
1036:Drivers/STM32WBxx_HAL_Driver/Inc/stm32wbxx_ll_exti.h **** /**
1037:Drivers/STM32WBxx_HAL_Driver/Inc/stm32wbxx_ll_exti.h ****   * @brief  Enable ExtiLine Rising Edge Trigger for Lines in range 32 to 63
1038:Drivers/STM32WBxx_HAL_Driver/Inc/stm32wbxx_ll_exti.h ****   * @note The configurable wakeup lines are edge-triggered. No glitch must be
1039:Drivers/STM32WBxx_HAL_Driver/Inc/stm32wbxx_ll_exti.h ****   *       generated on these lines. If a rising edge on a configurable interrupt
1040:Drivers/STM32WBxx_HAL_Driver/Inc/stm32wbxx_ll_exti.h ****   *       line occurs during a write operation in the EXTI_RTSR register, the
1041:Drivers/STM32WBxx_HAL_Driver/Inc/stm32wbxx_ll_exti.h ****   *       pending bit is not set.Rising and falling edge triggers can be set for
1042:Drivers/STM32WBxx_HAL_Driver/Inc/stm32wbxx_ll_exti.h ****   *       the same interrupt line. In this case, both generate a trigger
1043:Drivers/STM32WBxx_HAL_Driver/Inc/stm32wbxx_ll_exti.h ****   *       condition.
1044:Drivers/STM32WBxx_HAL_Driver/Inc/stm32wbxx_ll_exti.h ****   * @rmtoll RTSR2        RTx           LL_EXTI_EnableRisingTrig_32_63
1045:Drivers/STM32WBxx_HAL_Driver/Inc/stm32wbxx_ll_exti.h ****   * @param  ExtiLine This parameter can be a combination of the following values:
1046:Drivers/STM32WBxx_HAL_Driver/Inc/stm32wbxx_ll_exti.h ****   *         @arg @ref LL_EXTI_LINE_33 (*)
1047:Drivers/STM32WBxx_HAL_Driver/Inc/stm32wbxx_ll_exti.h ****   *         @arg @ref LL_EXTI_LINE_40
1048:Drivers/STM32WBxx_HAL_Driver/Inc/stm32wbxx_ll_exti.h ****   *         @arg @ref LL_EXTI_LINE_41
1049:Drivers/STM32WBxx_HAL_Driver/Inc/stm32wbxx_ll_exti.h ****   *         (*) value not defined in all devices
1050:Drivers/STM32WBxx_HAL_Driver/Inc/stm32wbxx_ll_exti.h ****   * @retval None
1051:Drivers/STM32WBxx_HAL_Driver/Inc/stm32wbxx_ll_exti.h ****   */
1052:Drivers/STM32WBxx_HAL_Driver/Inc/stm32wbxx_ll_exti.h **** __STATIC_INLINE void LL_EXTI_EnableRisingTrig_32_63(uint32_t ExtiLine)
1053:Drivers/STM32WBxx_HAL_Driver/Inc/stm32wbxx_ll_exti.h **** {
1054:Drivers/STM32WBxx_HAL_Driver/Inc/stm32wbxx_ll_exti.h ****   SET_BIT(EXTI->RTSR2, ExtiLine);
1055:Drivers/STM32WBxx_HAL_Driver/Inc/stm32wbxx_ll_exti.h **** }
1056:Drivers/STM32WBxx_HAL_Driver/Inc/stm32wbxx_ll_exti.h **** 
1057:Drivers/STM32WBxx_HAL_Driver/Inc/stm32wbxx_ll_exti.h **** /**
1058:Drivers/STM32WBxx_HAL_Driver/Inc/stm32wbxx_ll_exti.h ****   * @brief  Disable ExtiLine Rising Edge Trigger for Lines in range 0 to 31
1059:Drivers/STM32WBxx_HAL_Driver/Inc/stm32wbxx_ll_exti.h ****   * @note The configurable wakeup lines are edge-triggered. No glitch must be
1060:Drivers/STM32WBxx_HAL_Driver/Inc/stm32wbxx_ll_exti.h ****   *       generated on these lines. If a rising edge on a configurable interrupt
1061:Drivers/STM32WBxx_HAL_Driver/Inc/stm32wbxx_ll_exti.h ****   *       line occurs during a write operation in the EXTI_RTSR register, the
1062:Drivers/STM32WBxx_HAL_Driver/Inc/stm32wbxx_ll_exti.h ****   *       pending bit is not set.
1063:Drivers/STM32WBxx_HAL_Driver/Inc/stm32wbxx_ll_exti.h ****   *       Rising and falling edge triggers can be set for
1064:Drivers/STM32WBxx_HAL_Driver/Inc/stm32wbxx_ll_exti.h ****   *       the same interrupt line. In this case, both generate a trigger
1065:Drivers/STM32WBxx_HAL_Driver/Inc/stm32wbxx_ll_exti.h ****   *       condition.
1066:Drivers/STM32WBxx_HAL_Driver/Inc/stm32wbxx_ll_exti.h ****   * @rmtoll RTSR1        RTx           LL_EXTI_DisableRisingTrig_0_31
1067:Drivers/STM32WBxx_HAL_Driver/Inc/stm32wbxx_ll_exti.h ****   * @param  ExtiLine This parameter can be a combination of the following values:
1068:Drivers/STM32WBxx_HAL_Driver/Inc/stm32wbxx_ll_exti.h ****   *         @arg @ref LL_EXTI_LINE_0
1069:Drivers/STM32WBxx_HAL_Driver/Inc/stm32wbxx_ll_exti.h ****   *         @arg @ref LL_EXTI_LINE_1
1070:Drivers/STM32WBxx_HAL_Driver/Inc/stm32wbxx_ll_exti.h ****   *         @arg @ref LL_EXTI_LINE_2
1071:Drivers/STM32WBxx_HAL_Driver/Inc/stm32wbxx_ll_exti.h ****   *         @arg @ref LL_EXTI_LINE_3
ARM GAS  /tmp/cczZhyqe.s 			page 30


1072:Drivers/STM32WBxx_HAL_Driver/Inc/stm32wbxx_ll_exti.h ****   *         @arg @ref LL_EXTI_LINE_4
1073:Drivers/STM32WBxx_HAL_Driver/Inc/stm32wbxx_ll_exti.h ****   *         @arg @ref LL_EXTI_LINE_5
1074:Drivers/STM32WBxx_HAL_Driver/Inc/stm32wbxx_ll_exti.h ****   *         @arg @ref LL_EXTI_LINE_6
1075:Drivers/STM32WBxx_HAL_Driver/Inc/stm32wbxx_ll_exti.h ****   *         @arg @ref LL_EXTI_LINE_7
1076:Drivers/STM32WBxx_HAL_Driver/Inc/stm32wbxx_ll_exti.h ****   *         @arg @ref LL_EXTI_LINE_8
1077:Drivers/STM32WBxx_HAL_Driver/Inc/stm32wbxx_ll_exti.h ****   *         @arg @ref LL_EXTI_LINE_9
1078:Drivers/STM32WBxx_HAL_Driver/Inc/stm32wbxx_ll_exti.h ****   *         @arg @ref LL_EXTI_LINE_10
1079:Drivers/STM32WBxx_HAL_Driver/Inc/stm32wbxx_ll_exti.h ****   *         @arg @ref LL_EXTI_LINE_11
1080:Drivers/STM32WBxx_HAL_Driver/Inc/stm32wbxx_ll_exti.h ****   *         @arg @ref LL_EXTI_LINE_12
1081:Drivers/STM32WBxx_HAL_Driver/Inc/stm32wbxx_ll_exti.h ****   *         @arg @ref LL_EXTI_LINE_13
1082:Drivers/STM32WBxx_HAL_Driver/Inc/stm32wbxx_ll_exti.h ****   *         @arg @ref LL_EXTI_LINE_14
1083:Drivers/STM32WBxx_HAL_Driver/Inc/stm32wbxx_ll_exti.h ****   *         @arg @ref LL_EXTI_LINE_15
1084:Drivers/STM32WBxx_HAL_Driver/Inc/stm32wbxx_ll_exti.h ****   *         @arg @ref LL_EXTI_LINE_16
1085:Drivers/STM32WBxx_HAL_Driver/Inc/stm32wbxx_ll_exti.h ****   *         @arg @ref LL_EXTI_LINE_17
1086:Drivers/STM32WBxx_HAL_Driver/Inc/stm32wbxx_ll_exti.h ****   *         @arg @ref LL_EXTI_LINE_18
1087:Drivers/STM32WBxx_HAL_Driver/Inc/stm32wbxx_ll_exti.h ****   *         @arg @ref LL_EXTI_LINE_19
1088:Drivers/STM32WBxx_HAL_Driver/Inc/stm32wbxx_ll_exti.h ****   *         @arg @ref LL_EXTI_LINE_20 (*)
1089:Drivers/STM32WBxx_HAL_Driver/Inc/stm32wbxx_ll_exti.h ****   *         @arg @ref LL_EXTI_LINE_21 (*)
1090:Drivers/STM32WBxx_HAL_Driver/Inc/stm32wbxx_ll_exti.h ****   *         @arg @ref LL_EXTI_LINE_31 (*)
1091:Drivers/STM32WBxx_HAL_Driver/Inc/stm32wbxx_ll_exti.h ****   *         (*) value not defined in all devices
1092:Drivers/STM32WBxx_HAL_Driver/Inc/stm32wbxx_ll_exti.h ****   * @retval None
1093:Drivers/STM32WBxx_HAL_Driver/Inc/stm32wbxx_ll_exti.h ****   */
1094:Drivers/STM32WBxx_HAL_Driver/Inc/stm32wbxx_ll_exti.h **** __STATIC_INLINE void LL_EXTI_DisableRisingTrig_0_31(uint32_t ExtiLine)
1095:Drivers/STM32WBxx_HAL_Driver/Inc/stm32wbxx_ll_exti.h **** {
1096:Drivers/STM32WBxx_HAL_Driver/Inc/stm32wbxx_ll_exti.h ****   CLEAR_BIT(EXTI->RTSR1, ExtiLine);
1097:Drivers/STM32WBxx_HAL_Driver/Inc/stm32wbxx_ll_exti.h **** 
1098:Drivers/STM32WBxx_HAL_Driver/Inc/stm32wbxx_ll_exti.h **** }
1099:Drivers/STM32WBxx_HAL_Driver/Inc/stm32wbxx_ll_exti.h **** 
1100:Drivers/STM32WBxx_HAL_Driver/Inc/stm32wbxx_ll_exti.h **** /**
1101:Drivers/STM32WBxx_HAL_Driver/Inc/stm32wbxx_ll_exti.h ****   * @brief  Disable ExtiLine Rising Edge Trigger for Lines in range 32 to 63
1102:Drivers/STM32WBxx_HAL_Driver/Inc/stm32wbxx_ll_exti.h ****   * @note The configurable wakeup lines are edge-triggered. No glitch must be
1103:Drivers/STM32WBxx_HAL_Driver/Inc/stm32wbxx_ll_exti.h ****   *       generated on these lines. If a rising edge on a configurable interrupt
1104:Drivers/STM32WBxx_HAL_Driver/Inc/stm32wbxx_ll_exti.h ****   *       line occurs during a write operation in the EXTI_RTSR register, the
1105:Drivers/STM32WBxx_HAL_Driver/Inc/stm32wbxx_ll_exti.h ****   *       pending bit is not set.
1106:Drivers/STM32WBxx_HAL_Driver/Inc/stm32wbxx_ll_exti.h ****   *       Rising and falling edge triggers can be set for
1107:Drivers/STM32WBxx_HAL_Driver/Inc/stm32wbxx_ll_exti.h ****   *       the same interrupt line. In this case, both generate a trigger
1108:Drivers/STM32WBxx_HAL_Driver/Inc/stm32wbxx_ll_exti.h ****   *       condition.
1109:Drivers/STM32WBxx_HAL_Driver/Inc/stm32wbxx_ll_exti.h ****   * @rmtoll RTSR2        RTx           LL_EXTI_DisableRisingTrig_32_63
1110:Drivers/STM32WBxx_HAL_Driver/Inc/stm32wbxx_ll_exti.h ****   * @param  ExtiLine This parameter can be a combination of the following values:
1111:Drivers/STM32WBxx_HAL_Driver/Inc/stm32wbxx_ll_exti.h ****   *         @arg @ref LL_EXTI_LINE_33 (*)
1112:Drivers/STM32WBxx_HAL_Driver/Inc/stm32wbxx_ll_exti.h ****   *         @arg @ref LL_EXTI_LINE_40
1113:Drivers/STM32WBxx_HAL_Driver/Inc/stm32wbxx_ll_exti.h ****   *         @arg @ref LL_EXTI_LINE_41
1114:Drivers/STM32WBxx_HAL_Driver/Inc/stm32wbxx_ll_exti.h ****   *         (*) value not defined in all devices
1115:Drivers/STM32WBxx_HAL_Driver/Inc/stm32wbxx_ll_exti.h ****   * @retval None
1116:Drivers/STM32WBxx_HAL_Driver/Inc/stm32wbxx_ll_exti.h ****   */
1117:Drivers/STM32WBxx_HAL_Driver/Inc/stm32wbxx_ll_exti.h **** __STATIC_INLINE void LL_EXTI_DisableRisingTrig_32_63(uint32_t ExtiLine)
1118:Drivers/STM32WBxx_HAL_Driver/Inc/stm32wbxx_ll_exti.h **** {
1119:Drivers/STM32WBxx_HAL_Driver/Inc/stm32wbxx_ll_exti.h ****   CLEAR_BIT(EXTI->RTSR2, ExtiLine);
1120:Drivers/STM32WBxx_HAL_Driver/Inc/stm32wbxx_ll_exti.h **** }
1121:Drivers/STM32WBxx_HAL_Driver/Inc/stm32wbxx_ll_exti.h **** 
1122:Drivers/STM32WBxx_HAL_Driver/Inc/stm32wbxx_ll_exti.h **** /**
1123:Drivers/STM32WBxx_HAL_Driver/Inc/stm32wbxx_ll_exti.h ****   * @brief  Check if rising edge trigger is enabled for Lines in range 0 to 31
1124:Drivers/STM32WBxx_HAL_Driver/Inc/stm32wbxx_ll_exti.h ****   * @rmtoll RTSR1        RTx           LL_EXTI_IsEnabledRisingTrig_0_31
1125:Drivers/STM32WBxx_HAL_Driver/Inc/stm32wbxx_ll_exti.h ****   * @param  ExtiLine This parameter can be a combination of the following values:
1126:Drivers/STM32WBxx_HAL_Driver/Inc/stm32wbxx_ll_exti.h ****   *         @arg @ref LL_EXTI_LINE_0
1127:Drivers/STM32WBxx_HAL_Driver/Inc/stm32wbxx_ll_exti.h ****   *         @arg @ref LL_EXTI_LINE_1
1128:Drivers/STM32WBxx_HAL_Driver/Inc/stm32wbxx_ll_exti.h ****   *         @arg @ref LL_EXTI_LINE_2
ARM GAS  /tmp/cczZhyqe.s 			page 31


1129:Drivers/STM32WBxx_HAL_Driver/Inc/stm32wbxx_ll_exti.h ****   *         @arg @ref LL_EXTI_LINE_3
1130:Drivers/STM32WBxx_HAL_Driver/Inc/stm32wbxx_ll_exti.h ****   *         @arg @ref LL_EXTI_LINE_4
1131:Drivers/STM32WBxx_HAL_Driver/Inc/stm32wbxx_ll_exti.h ****   *         @arg @ref LL_EXTI_LINE_5
1132:Drivers/STM32WBxx_HAL_Driver/Inc/stm32wbxx_ll_exti.h ****   *         @arg @ref LL_EXTI_LINE_6
1133:Drivers/STM32WBxx_HAL_Driver/Inc/stm32wbxx_ll_exti.h ****   *         @arg @ref LL_EXTI_LINE_7
1134:Drivers/STM32WBxx_HAL_Driver/Inc/stm32wbxx_ll_exti.h ****   *         @arg @ref LL_EXTI_LINE_8
1135:Drivers/STM32WBxx_HAL_Driver/Inc/stm32wbxx_ll_exti.h ****   *         @arg @ref LL_EXTI_LINE_9
1136:Drivers/STM32WBxx_HAL_Driver/Inc/stm32wbxx_ll_exti.h ****   *         @arg @ref LL_EXTI_LINE_10
1137:Drivers/STM32WBxx_HAL_Driver/Inc/stm32wbxx_ll_exti.h ****   *         @arg @ref LL_EXTI_LINE_11
1138:Drivers/STM32WBxx_HAL_Driver/Inc/stm32wbxx_ll_exti.h ****   *         @arg @ref LL_EXTI_LINE_12
1139:Drivers/STM32WBxx_HAL_Driver/Inc/stm32wbxx_ll_exti.h ****   *         @arg @ref LL_EXTI_LINE_13
1140:Drivers/STM32WBxx_HAL_Driver/Inc/stm32wbxx_ll_exti.h ****   *         @arg @ref LL_EXTI_LINE_14
1141:Drivers/STM32WBxx_HAL_Driver/Inc/stm32wbxx_ll_exti.h ****   *         @arg @ref LL_EXTI_LINE_15
1142:Drivers/STM32WBxx_HAL_Driver/Inc/stm32wbxx_ll_exti.h ****   *         @arg @ref LL_EXTI_LINE_16
1143:Drivers/STM32WBxx_HAL_Driver/Inc/stm32wbxx_ll_exti.h ****   *         @arg @ref LL_EXTI_LINE_17
1144:Drivers/STM32WBxx_HAL_Driver/Inc/stm32wbxx_ll_exti.h ****   *         @arg @ref LL_EXTI_LINE_18
1145:Drivers/STM32WBxx_HAL_Driver/Inc/stm32wbxx_ll_exti.h ****   *         @arg @ref LL_EXTI_LINE_19
1146:Drivers/STM32WBxx_HAL_Driver/Inc/stm32wbxx_ll_exti.h ****   *         @arg @ref LL_EXTI_LINE_20 (*)
1147:Drivers/STM32WBxx_HAL_Driver/Inc/stm32wbxx_ll_exti.h ****   *         @arg @ref LL_EXTI_LINE_21 (*)
1148:Drivers/STM32WBxx_HAL_Driver/Inc/stm32wbxx_ll_exti.h ****   *         @arg @ref LL_EXTI_LINE_31 (*)
1149:Drivers/STM32WBxx_HAL_Driver/Inc/stm32wbxx_ll_exti.h ****   *         (*) value not defined in all devices
1150:Drivers/STM32WBxx_HAL_Driver/Inc/stm32wbxx_ll_exti.h ****   * @retval State of bit (1 or 0).
1151:Drivers/STM32WBxx_HAL_Driver/Inc/stm32wbxx_ll_exti.h ****   */
1152:Drivers/STM32WBxx_HAL_Driver/Inc/stm32wbxx_ll_exti.h **** __STATIC_INLINE uint32_t LL_EXTI_IsEnabledRisingTrig_0_31(uint32_t ExtiLine)
1153:Drivers/STM32WBxx_HAL_Driver/Inc/stm32wbxx_ll_exti.h **** {
1154:Drivers/STM32WBxx_HAL_Driver/Inc/stm32wbxx_ll_exti.h ****   return ((READ_BIT(EXTI->RTSR1, ExtiLine) == (ExtiLine)) ? 1UL : 0UL);
1155:Drivers/STM32WBxx_HAL_Driver/Inc/stm32wbxx_ll_exti.h **** }
1156:Drivers/STM32WBxx_HAL_Driver/Inc/stm32wbxx_ll_exti.h **** 
1157:Drivers/STM32WBxx_HAL_Driver/Inc/stm32wbxx_ll_exti.h **** /**
1158:Drivers/STM32WBxx_HAL_Driver/Inc/stm32wbxx_ll_exti.h ****   * @brief  Check if rising edge trigger is enabled for Lines in range 32 to 63
1159:Drivers/STM32WBxx_HAL_Driver/Inc/stm32wbxx_ll_exti.h ****   * @rmtoll RTSR2        RTx           LL_EXTI_IsEnabledRisingTrig_32_63
1160:Drivers/STM32WBxx_HAL_Driver/Inc/stm32wbxx_ll_exti.h ****   * @param  ExtiLine This parameter can be a combination of the following values:
1161:Drivers/STM32WBxx_HAL_Driver/Inc/stm32wbxx_ll_exti.h ****   *         @arg @ref LL_EXTI_LINE_33 (*)
1162:Drivers/STM32WBxx_HAL_Driver/Inc/stm32wbxx_ll_exti.h ****   *         @arg @ref LL_EXTI_LINE_40
1163:Drivers/STM32WBxx_HAL_Driver/Inc/stm32wbxx_ll_exti.h ****   *         @arg @ref LL_EXTI_LINE_41
1164:Drivers/STM32WBxx_HAL_Driver/Inc/stm32wbxx_ll_exti.h ****   *         (*) value not defined in all devices
1165:Drivers/STM32WBxx_HAL_Driver/Inc/stm32wbxx_ll_exti.h ****   * @retval State of bit (1 or 0).
1166:Drivers/STM32WBxx_HAL_Driver/Inc/stm32wbxx_ll_exti.h ****   */
1167:Drivers/STM32WBxx_HAL_Driver/Inc/stm32wbxx_ll_exti.h **** __STATIC_INLINE uint32_t LL_EXTI_IsEnabledRisingTrig_32_63(uint32_t ExtiLine)
1168:Drivers/STM32WBxx_HAL_Driver/Inc/stm32wbxx_ll_exti.h **** {
1169:Drivers/STM32WBxx_HAL_Driver/Inc/stm32wbxx_ll_exti.h ****   return ((READ_BIT(EXTI->RTSR2, ExtiLine) == (ExtiLine)) ? 1UL : 0UL);
1170:Drivers/STM32WBxx_HAL_Driver/Inc/stm32wbxx_ll_exti.h **** }
1171:Drivers/STM32WBxx_HAL_Driver/Inc/stm32wbxx_ll_exti.h **** 
1172:Drivers/STM32WBxx_HAL_Driver/Inc/stm32wbxx_ll_exti.h **** /**
1173:Drivers/STM32WBxx_HAL_Driver/Inc/stm32wbxx_ll_exti.h ****   * @}
1174:Drivers/STM32WBxx_HAL_Driver/Inc/stm32wbxx_ll_exti.h ****   */
1175:Drivers/STM32WBxx_HAL_Driver/Inc/stm32wbxx_ll_exti.h **** 
1176:Drivers/STM32WBxx_HAL_Driver/Inc/stm32wbxx_ll_exti.h **** /** @defgroup EXTI_LL_EF_Falling_Trigger_Management Falling_Trigger_Management
1177:Drivers/STM32WBxx_HAL_Driver/Inc/stm32wbxx_ll_exti.h ****   * @{
1178:Drivers/STM32WBxx_HAL_Driver/Inc/stm32wbxx_ll_exti.h ****   */
1179:Drivers/STM32WBxx_HAL_Driver/Inc/stm32wbxx_ll_exti.h **** 
1180:Drivers/STM32WBxx_HAL_Driver/Inc/stm32wbxx_ll_exti.h **** /**
1181:Drivers/STM32WBxx_HAL_Driver/Inc/stm32wbxx_ll_exti.h ****   * @brief  Enable ExtiLine Falling Edge Trigger for Lines in range 0 to 31
1182:Drivers/STM32WBxx_HAL_Driver/Inc/stm32wbxx_ll_exti.h ****   * @note The configurable wakeup lines are edge-triggered. No glitch must be
1183:Drivers/STM32WBxx_HAL_Driver/Inc/stm32wbxx_ll_exti.h ****   *       generated on these lines. If a falling edge on a configurable interrupt
1184:Drivers/STM32WBxx_HAL_Driver/Inc/stm32wbxx_ll_exti.h ****   *       line occurs during a write operation in the EXTI_FTSR register, the
1185:Drivers/STM32WBxx_HAL_Driver/Inc/stm32wbxx_ll_exti.h ****   *       pending bit is not set.
ARM GAS  /tmp/cczZhyqe.s 			page 32


1186:Drivers/STM32WBxx_HAL_Driver/Inc/stm32wbxx_ll_exti.h ****   *       Rising and falling edge triggers can be set for
1187:Drivers/STM32WBxx_HAL_Driver/Inc/stm32wbxx_ll_exti.h ****   *       the same interrupt line. In this case, both generate a trigger
1188:Drivers/STM32WBxx_HAL_Driver/Inc/stm32wbxx_ll_exti.h ****   *       condition.
1189:Drivers/STM32WBxx_HAL_Driver/Inc/stm32wbxx_ll_exti.h ****   * @rmtoll FTSR1        FTx           LL_EXTI_EnableFallingTrig_0_31
1190:Drivers/STM32WBxx_HAL_Driver/Inc/stm32wbxx_ll_exti.h ****   * @param  ExtiLine This parameter can be a combination of the following values:
1191:Drivers/STM32WBxx_HAL_Driver/Inc/stm32wbxx_ll_exti.h ****   *         @arg @ref LL_EXTI_LINE_0
1192:Drivers/STM32WBxx_HAL_Driver/Inc/stm32wbxx_ll_exti.h ****   *         @arg @ref LL_EXTI_LINE_1
1193:Drivers/STM32WBxx_HAL_Driver/Inc/stm32wbxx_ll_exti.h ****   *         @arg @ref LL_EXTI_LINE_2
1194:Drivers/STM32WBxx_HAL_Driver/Inc/stm32wbxx_ll_exti.h ****   *         @arg @ref LL_EXTI_LINE_3
1195:Drivers/STM32WBxx_HAL_Driver/Inc/stm32wbxx_ll_exti.h ****   *         @arg @ref LL_EXTI_LINE_4
1196:Drivers/STM32WBxx_HAL_Driver/Inc/stm32wbxx_ll_exti.h ****   *         @arg @ref LL_EXTI_LINE_5
1197:Drivers/STM32WBxx_HAL_Driver/Inc/stm32wbxx_ll_exti.h ****   *         @arg @ref LL_EXTI_LINE_6
1198:Drivers/STM32WBxx_HAL_Driver/Inc/stm32wbxx_ll_exti.h ****   *         @arg @ref LL_EXTI_LINE_7
1199:Drivers/STM32WBxx_HAL_Driver/Inc/stm32wbxx_ll_exti.h ****   *         @arg @ref LL_EXTI_LINE_8
1200:Drivers/STM32WBxx_HAL_Driver/Inc/stm32wbxx_ll_exti.h ****   *         @arg @ref LL_EXTI_LINE_9
1201:Drivers/STM32WBxx_HAL_Driver/Inc/stm32wbxx_ll_exti.h ****   *         @arg @ref LL_EXTI_LINE_10
1202:Drivers/STM32WBxx_HAL_Driver/Inc/stm32wbxx_ll_exti.h ****   *         @arg @ref LL_EXTI_LINE_11
1203:Drivers/STM32WBxx_HAL_Driver/Inc/stm32wbxx_ll_exti.h ****   *         @arg @ref LL_EXTI_LINE_12
1204:Drivers/STM32WBxx_HAL_Driver/Inc/stm32wbxx_ll_exti.h ****   *         @arg @ref LL_EXTI_LINE_13
1205:Drivers/STM32WBxx_HAL_Driver/Inc/stm32wbxx_ll_exti.h ****   *         @arg @ref LL_EXTI_LINE_14
1206:Drivers/STM32WBxx_HAL_Driver/Inc/stm32wbxx_ll_exti.h ****   *         @arg @ref LL_EXTI_LINE_15
1207:Drivers/STM32WBxx_HAL_Driver/Inc/stm32wbxx_ll_exti.h ****   *         @arg @ref LL_EXTI_LINE_16
1208:Drivers/STM32WBxx_HAL_Driver/Inc/stm32wbxx_ll_exti.h ****   *         @arg @ref LL_EXTI_LINE_17
1209:Drivers/STM32WBxx_HAL_Driver/Inc/stm32wbxx_ll_exti.h ****   *         @arg @ref LL_EXTI_LINE_18
1210:Drivers/STM32WBxx_HAL_Driver/Inc/stm32wbxx_ll_exti.h ****   *         @arg @ref LL_EXTI_LINE_19
1211:Drivers/STM32WBxx_HAL_Driver/Inc/stm32wbxx_ll_exti.h ****   *         @arg @ref LL_EXTI_LINE_20 (*)
1212:Drivers/STM32WBxx_HAL_Driver/Inc/stm32wbxx_ll_exti.h ****   *         @arg @ref LL_EXTI_LINE_21 (*)
1213:Drivers/STM32WBxx_HAL_Driver/Inc/stm32wbxx_ll_exti.h ****   *         @arg @ref LL_EXTI_LINE_31 (*)
1214:Drivers/STM32WBxx_HAL_Driver/Inc/stm32wbxx_ll_exti.h ****   *         (*) value not defined in all devices
1215:Drivers/STM32WBxx_HAL_Driver/Inc/stm32wbxx_ll_exti.h ****   * @note   Please check each device line mapping for EXTI Line availability
1216:Drivers/STM32WBxx_HAL_Driver/Inc/stm32wbxx_ll_exti.h ****   * @retval None
1217:Drivers/STM32WBxx_HAL_Driver/Inc/stm32wbxx_ll_exti.h ****   */
1218:Drivers/STM32WBxx_HAL_Driver/Inc/stm32wbxx_ll_exti.h **** __STATIC_INLINE void LL_EXTI_EnableFallingTrig_0_31(uint32_t ExtiLine)
1219:Drivers/STM32WBxx_HAL_Driver/Inc/stm32wbxx_ll_exti.h **** {
1220:Drivers/STM32WBxx_HAL_Driver/Inc/stm32wbxx_ll_exti.h ****   SET_BIT(EXTI->FTSR1, ExtiLine);
1221:Drivers/STM32WBxx_HAL_Driver/Inc/stm32wbxx_ll_exti.h **** }
1222:Drivers/STM32WBxx_HAL_Driver/Inc/stm32wbxx_ll_exti.h **** 
1223:Drivers/STM32WBxx_HAL_Driver/Inc/stm32wbxx_ll_exti.h **** /**
1224:Drivers/STM32WBxx_HAL_Driver/Inc/stm32wbxx_ll_exti.h ****   * @brief  Enable ExtiLine Falling Edge Trigger for Lines in range 32 to 63
1225:Drivers/STM32WBxx_HAL_Driver/Inc/stm32wbxx_ll_exti.h ****   * @note The configurable wakeup lines are edge-triggered. No glitch must be
1226:Drivers/STM32WBxx_HAL_Driver/Inc/stm32wbxx_ll_exti.h ****   *       generated on these lines. If a Falling edge on a configurable interrupt
1227:Drivers/STM32WBxx_HAL_Driver/Inc/stm32wbxx_ll_exti.h ****   *       line occurs during a write operation in the EXTI_FTSR register, the
1228:Drivers/STM32WBxx_HAL_Driver/Inc/stm32wbxx_ll_exti.h ****   *       pending bit is not set.
1229:Drivers/STM32WBxx_HAL_Driver/Inc/stm32wbxx_ll_exti.h ****   *       Rising and falling edge triggers can be set for
1230:Drivers/STM32WBxx_HAL_Driver/Inc/stm32wbxx_ll_exti.h ****   *       the same interrupt line. In this case, both generate a trigger
1231:Drivers/STM32WBxx_HAL_Driver/Inc/stm32wbxx_ll_exti.h ****   *       condition.
1232:Drivers/STM32WBxx_HAL_Driver/Inc/stm32wbxx_ll_exti.h ****   * @rmtoll FTSR2        FTx           LL_EXTI_EnableFallingTrig_32_63
1233:Drivers/STM32WBxx_HAL_Driver/Inc/stm32wbxx_ll_exti.h ****   * @param  ExtiLine This parameter can be a combination of the following values:
1234:Drivers/STM32WBxx_HAL_Driver/Inc/stm32wbxx_ll_exti.h ****   *         @arg @ref LL_EXTI_LINE_33 (*)
1235:Drivers/STM32WBxx_HAL_Driver/Inc/stm32wbxx_ll_exti.h ****   *         @arg @ref LL_EXTI_LINE_40
1236:Drivers/STM32WBxx_HAL_Driver/Inc/stm32wbxx_ll_exti.h ****   *         @arg @ref LL_EXTI_LINE_41
1237:Drivers/STM32WBxx_HAL_Driver/Inc/stm32wbxx_ll_exti.h ****   *         (*) value not defined in all devices
1238:Drivers/STM32WBxx_HAL_Driver/Inc/stm32wbxx_ll_exti.h ****   * @retval None
1239:Drivers/STM32WBxx_HAL_Driver/Inc/stm32wbxx_ll_exti.h ****   */
1240:Drivers/STM32WBxx_HAL_Driver/Inc/stm32wbxx_ll_exti.h **** __STATIC_INLINE void LL_EXTI_EnableFallingTrig_32_63(uint32_t ExtiLine)
1241:Drivers/STM32WBxx_HAL_Driver/Inc/stm32wbxx_ll_exti.h **** {
1242:Drivers/STM32WBxx_HAL_Driver/Inc/stm32wbxx_ll_exti.h ****   SET_BIT(EXTI->FTSR2, ExtiLine);
ARM GAS  /tmp/cczZhyqe.s 			page 33


1243:Drivers/STM32WBxx_HAL_Driver/Inc/stm32wbxx_ll_exti.h **** }
1244:Drivers/STM32WBxx_HAL_Driver/Inc/stm32wbxx_ll_exti.h **** 
1245:Drivers/STM32WBxx_HAL_Driver/Inc/stm32wbxx_ll_exti.h **** /**
1246:Drivers/STM32WBxx_HAL_Driver/Inc/stm32wbxx_ll_exti.h ****   * @brief  Disable ExtiLine Falling Edge Trigger for Lines in range 0 to 31
1247:Drivers/STM32WBxx_HAL_Driver/Inc/stm32wbxx_ll_exti.h ****   * @note The configurable wakeup lines are edge-triggered. No glitch must be
1248:Drivers/STM32WBxx_HAL_Driver/Inc/stm32wbxx_ll_exti.h ****   *       generated on these lines. If a Falling edge on a configurable interrupt
1249:Drivers/STM32WBxx_HAL_Driver/Inc/stm32wbxx_ll_exti.h ****   *       line occurs during a write operation in the EXTI_FTSR register, the
1250:Drivers/STM32WBxx_HAL_Driver/Inc/stm32wbxx_ll_exti.h ****   *       pending bit is not set.
1251:Drivers/STM32WBxx_HAL_Driver/Inc/stm32wbxx_ll_exti.h ****   *       Rising and falling edge triggers can be set for the same interrupt line.
1252:Drivers/STM32WBxx_HAL_Driver/Inc/stm32wbxx_ll_exti.h ****   *       In this case, both generate a trigger condition.
1253:Drivers/STM32WBxx_HAL_Driver/Inc/stm32wbxx_ll_exti.h ****   * @rmtoll FTSR1        FTx           LL_EXTI_DisableFallingTrig_0_31
1254:Drivers/STM32WBxx_HAL_Driver/Inc/stm32wbxx_ll_exti.h ****   * @param  ExtiLine This parameter can be a combination of the following values:
1255:Drivers/STM32WBxx_HAL_Driver/Inc/stm32wbxx_ll_exti.h ****   *         @arg @ref LL_EXTI_LINE_0
1256:Drivers/STM32WBxx_HAL_Driver/Inc/stm32wbxx_ll_exti.h ****   *         @arg @ref LL_EXTI_LINE_1
1257:Drivers/STM32WBxx_HAL_Driver/Inc/stm32wbxx_ll_exti.h ****   *         @arg @ref LL_EXTI_LINE_2
1258:Drivers/STM32WBxx_HAL_Driver/Inc/stm32wbxx_ll_exti.h ****   *         @arg @ref LL_EXTI_LINE_3
1259:Drivers/STM32WBxx_HAL_Driver/Inc/stm32wbxx_ll_exti.h ****   *         @arg @ref LL_EXTI_LINE_4
1260:Drivers/STM32WBxx_HAL_Driver/Inc/stm32wbxx_ll_exti.h ****   *         @arg @ref LL_EXTI_LINE_5
1261:Drivers/STM32WBxx_HAL_Driver/Inc/stm32wbxx_ll_exti.h ****   *         @arg @ref LL_EXTI_LINE_6
1262:Drivers/STM32WBxx_HAL_Driver/Inc/stm32wbxx_ll_exti.h ****   *         @arg @ref LL_EXTI_LINE_7
1263:Drivers/STM32WBxx_HAL_Driver/Inc/stm32wbxx_ll_exti.h ****   *         @arg @ref LL_EXTI_LINE_8
1264:Drivers/STM32WBxx_HAL_Driver/Inc/stm32wbxx_ll_exti.h ****   *         @arg @ref LL_EXTI_LINE_9
1265:Drivers/STM32WBxx_HAL_Driver/Inc/stm32wbxx_ll_exti.h ****   *         @arg @ref LL_EXTI_LINE_10
1266:Drivers/STM32WBxx_HAL_Driver/Inc/stm32wbxx_ll_exti.h ****   *         @arg @ref LL_EXTI_LINE_11
1267:Drivers/STM32WBxx_HAL_Driver/Inc/stm32wbxx_ll_exti.h ****   *         @arg @ref LL_EXTI_LINE_12
1268:Drivers/STM32WBxx_HAL_Driver/Inc/stm32wbxx_ll_exti.h ****   *         @arg @ref LL_EXTI_LINE_13
1269:Drivers/STM32WBxx_HAL_Driver/Inc/stm32wbxx_ll_exti.h ****   *         @arg @ref LL_EXTI_LINE_14
1270:Drivers/STM32WBxx_HAL_Driver/Inc/stm32wbxx_ll_exti.h ****   *         @arg @ref LL_EXTI_LINE_15
1271:Drivers/STM32WBxx_HAL_Driver/Inc/stm32wbxx_ll_exti.h ****   *         @arg @ref LL_EXTI_LINE_16
1272:Drivers/STM32WBxx_HAL_Driver/Inc/stm32wbxx_ll_exti.h ****   *         @arg @ref LL_EXTI_LINE_17
1273:Drivers/STM32WBxx_HAL_Driver/Inc/stm32wbxx_ll_exti.h ****   *         @arg @ref LL_EXTI_LINE_18
1274:Drivers/STM32WBxx_HAL_Driver/Inc/stm32wbxx_ll_exti.h ****   *         @arg @ref LL_EXTI_LINE_19
1275:Drivers/STM32WBxx_HAL_Driver/Inc/stm32wbxx_ll_exti.h ****   *         @arg @ref LL_EXTI_LINE_20 (*)
1276:Drivers/STM32WBxx_HAL_Driver/Inc/stm32wbxx_ll_exti.h ****   *         @arg @ref LL_EXTI_LINE_21 (*)
1277:Drivers/STM32WBxx_HAL_Driver/Inc/stm32wbxx_ll_exti.h ****   *         @arg @ref LL_EXTI_LINE_31 (*)
1278:Drivers/STM32WBxx_HAL_Driver/Inc/stm32wbxx_ll_exti.h ****   *         (*) value not defined in all devices
1279:Drivers/STM32WBxx_HAL_Driver/Inc/stm32wbxx_ll_exti.h ****   * @note   Please check each device line mapping for EXTI Line availability
1280:Drivers/STM32WBxx_HAL_Driver/Inc/stm32wbxx_ll_exti.h ****   * @retval None
1281:Drivers/STM32WBxx_HAL_Driver/Inc/stm32wbxx_ll_exti.h ****   */
1282:Drivers/STM32WBxx_HAL_Driver/Inc/stm32wbxx_ll_exti.h **** __STATIC_INLINE void LL_EXTI_DisableFallingTrig_0_31(uint32_t ExtiLine)
 207              		.loc 2 1282 22 view .LVU42
 208              	.LBB21:
1283:Drivers/STM32WBxx_HAL_Driver/Inc/stm32wbxx_ll_exti.h **** {
1284:Drivers/STM32WBxx_HAL_Driver/Inc/stm32wbxx_ll_exti.h ****   CLEAR_BIT(EXTI->FTSR1, ExtiLine);
 209              		.loc 2 1284 3 view .LVU43
 210 0028 5A68     		ldr	r2, [r3, #4]
 211 002a 22F48032 		bic	r2, r2, #65536
 212 002e 5A60     		str	r2, [r3, #4]
 213              	.LVL4:
 214              		.loc 2 1284 3 is_stmt 0 view .LVU44
 215              	.LBE21:
 216              	.LBE20:
 384:Drivers/STM32WBxx_HAL_Driver/Src/stm32wbxx_hal_pwr.c ****   __HAL_PWR_PVD_EXTI_DISABLE_FALLING_EDGE(); 
 217              		.loc 1 384 3 is_stmt 1 view .LVU45
 218              	.LBB22:
 219              	.LBI22:
1094:Drivers/STM32WBxx_HAL_Driver/Inc/stm32wbxx_ll_exti.h **** {
ARM GAS  /tmp/cczZhyqe.s 			page 34


 220              		.loc 2 1094 22 view .LVU46
 221              	.LBB23:
1096:Drivers/STM32WBxx_HAL_Driver/Inc/stm32wbxx_ll_exti.h **** 
 222              		.loc 2 1096 3 view .LVU47
 223 0030 1A68     		ldr	r2, [r3]
 224 0032 22F48032 		bic	r2, r2, #65536
 225 0036 1A60     		str	r2, [r3]
 226              	.LVL5:
1096:Drivers/STM32WBxx_HAL_Driver/Inc/stm32wbxx_ll_exti.h **** 
 227              		.loc 2 1096 3 is_stmt 0 view .LVU48
 228              	.LBE23:
 229              	.LBE22:
 385:Drivers/STM32WBxx_HAL_Driver/Src/stm32wbxx_hal_pwr.c **** 
 386:Drivers/STM32WBxx_HAL_Driver/Src/stm32wbxx_hal_pwr.c ****   /* Configure interrupt mode */
 387:Drivers/STM32WBxx_HAL_Driver/Src/stm32wbxx_hal_pwr.c ****   if((sConfigPVD->Mode & PVD_MODE_IT) == PVD_MODE_IT)
 230              		.loc 1 387 3 is_stmt 1 view .LVU49
 231              		.loc 1 387 17 is_stmt 0 view .LVU50
 232 0038 4368     		ldr	r3, [r0, #4]
 233              		.loc 1 387 5 view .LVU51
 234 003a 13F4803F 		tst	r3, #65536
 235 003e 06D0     		beq	.L11
 388:Drivers/STM32WBxx_HAL_Driver/Src/stm32wbxx_hal_pwr.c ****   {
 389:Drivers/STM32WBxx_HAL_Driver/Src/stm32wbxx_hal_pwr.c ****     /* Set CPU1 as wakeup target */
 390:Drivers/STM32WBxx_HAL_Driver/Src/stm32wbxx_hal_pwr.c ****     __HAL_PWR_PVD_EXTI_ENABLE_IT();
 236              		.loc 1 390 5 is_stmt 1 view .LVU52
 237              	.LVL6:
 238              	.LBB24:
 239              	.LBI24:
 323:Drivers/STM32WBxx_HAL_Driver/Inc/stm32wbxx_ll_exti.h **** {
 240              		.loc 2 323 22 view .LVU53
 241              	.LBB25:
 325:Drivers/STM32WBxx_HAL_Driver/Inc/stm32wbxx_ll_exti.h **** }
 242              		.loc 2 325 3 view .LVU54
 243 0040 0E4A     		ldr	r2, .L14+4
 244 0042 D2F88030 		ldr	r3, [r2, #128]
 245 0046 43F48033 		orr	r3, r3, #65536
 246 004a C2F88030 		str	r3, [r2, #128]
 247              	.LVL7:
 248              	.L11:
 325:Drivers/STM32WBxx_HAL_Driver/Inc/stm32wbxx_ll_exti.h **** }
 249              		.loc 2 325 3 is_stmt 0 view .LVU55
 250              	.LBE25:
 251              	.LBE24:
 391:Drivers/STM32WBxx_HAL_Driver/Src/stm32wbxx_hal_pwr.c ****   }
 392:Drivers/STM32WBxx_HAL_Driver/Src/stm32wbxx_hal_pwr.c ****   
 393:Drivers/STM32WBxx_HAL_Driver/Src/stm32wbxx_hal_pwr.c ****   /* Configure the edge */
 394:Drivers/STM32WBxx_HAL_Driver/Src/stm32wbxx_hal_pwr.c ****   if((sConfigPVD->Mode & PVD_RISING_EDGE) == PVD_RISING_EDGE)
 252              		.loc 1 394 3 is_stmt 1 view .LVU56
 253              		.loc 1 394 17 is_stmt 0 view .LVU57
 254 004e 4368     		ldr	r3, [r0, #4]
 255              		.loc 1 394 5 view .LVU58
 256 0050 13F0010F 		tst	r3, #1
 257 0054 04D0     		beq	.L12
 395:Drivers/STM32WBxx_HAL_Driver/Src/stm32wbxx_hal_pwr.c ****   {
 396:Drivers/STM32WBxx_HAL_Driver/Src/stm32wbxx_hal_pwr.c ****     __HAL_PWR_PVD_EXTI_ENABLE_RISING_EDGE();
 258              		.loc 1 396 5 is_stmt 1 view .LVU59
 259              	.LVL8:
ARM GAS  /tmp/cczZhyqe.s 			page 35


 260              	.LBB26:
 261              	.LBI26:
1030:Drivers/STM32WBxx_HAL_Driver/Inc/stm32wbxx_ll_exti.h **** {
 262              		.loc 2 1030 22 view .LVU60
 263              	.LBB27:
1032:Drivers/STM32WBxx_HAL_Driver/Inc/stm32wbxx_ll_exti.h **** 
 264              		.loc 2 1032 3 view .LVU61
 265 0056 094A     		ldr	r2, .L14+4
 266 0058 1368     		ldr	r3, [r2]
 267 005a 43F48033 		orr	r3, r3, #65536
 268 005e 1360     		str	r3, [r2]
 269              	.LVL9:
 270              	.L12:
1032:Drivers/STM32WBxx_HAL_Driver/Inc/stm32wbxx_ll_exti.h **** 
 271              		.loc 2 1032 3 is_stmt 0 view .LVU62
 272              	.LBE27:
 273              	.LBE26:
 397:Drivers/STM32WBxx_HAL_Driver/Src/stm32wbxx_hal_pwr.c ****   }
 398:Drivers/STM32WBxx_HAL_Driver/Src/stm32wbxx_hal_pwr.c ****   
 399:Drivers/STM32WBxx_HAL_Driver/Src/stm32wbxx_hal_pwr.c ****   if((sConfigPVD->Mode & PVD_FALLING_EDGE) == PVD_FALLING_EDGE)
 274              		.loc 1 399 3 is_stmt 1 view .LVU63
 275              		.loc 1 399 17 is_stmt 0 view .LVU64
 276 0060 4368     		ldr	r3, [r0, #4]
 277              		.loc 1 399 5 view .LVU65
 278 0062 13F0020F 		tst	r3, #2
 279 0066 04D0     		beq	.L13
 400:Drivers/STM32WBxx_HAL_Driver/Src/stm32wbxx_hal_pwr.c ****   {
 401:Drivers/STM32WBxx_HAL_Driver/Src/stm32wbxx_hal_pwr.c ****     __HAL_PWR_PVD_EXTI_ENABLE_FALLING_EDGE();
 280              		.loc 1 401 5 is_stmt 1 view .LVU66
 281              	.LVL10:
 282              	.LBB28:
 283              	.LBI28:
1218:Drivers/STM32WBxx_HAL_Driver/Inc/stm32wbxx_ll_exti.h **** {
 284              		.loc 2 1218 22 view .LVU67
 285              	.LBB29:
1220:Drivers/STM32WBxx_HAL_Driver/Inc/stm32wbxx_ll_exti.h **** }
 286              		.loc 2 1220 3 view .LVU68
 287 0068 044A     		ldr	r2, .L14+4
 288 006a 5368     		ldr	r3, [r2, #4]
 289 006c 43F48033 		orr	r3, r3, #65536
 290 0070 5360     		str	r3, [r2, #4]
 291              	.LVL11:
 292              	.L13:
1220:Drivers/STM32WBxx_HAL_Driver/Inc/stm32wbxx_ll_exti.h **** }
 293              		.loc 2 1220 3 is_stmt 0 view .LVU69
 294              	.LBE29:
 295              	.LBE28:
 402:Drivers/STM32WBxx_HAL_Driver/Src/stm32wbxx_hal_pwr.c ****   }
 403:Drivers/STM32WBxx_HAL_Driver/Src/stm32wbxx_hal_pwr.c **** 
 404:Drivers/STM32WBxx_HAL_Driver/Src/stm32wbxx_hal_pwr.c ****   return HAL_OK;
 296              		.loc 1 404 3 is_stmt 1 view .LVU70
 405:Drivers/STM32WBxx_HAL_Driver/Src/stm32wbxx_hal_pwr.c **** }
 297              		.loc 1 405 1 is_stmt 0 view .LVU71
 298 0072 0020     		movs	r0, #0
 299              	.LVL12:
 300              		.loc 1 405 1 view .LVU72
 301 0074 7047     		bx	lr
ARM GAS  /tmp/cczZhyqe.s 			page 36


 302              	.L15:
 303 0076 00BF     		.align	2
 304              	.L14:
 305 0078 00040058 		.word	1476396032
 306 007c 00080058 		.word	1476397056
 307              		.cfi_endproc
 308              	.LFE946:
 310              		.section	.text.HAL_PWR_EnablePVD,"ax",%progbits
 311              		.align	1
 312              		.global	HAL_PWR_EnablePVD
 313              		.syntax unified
 314              		.thumb
 315              		.thumb_func
 316              		.fpu fpv4-sp-d16
 318              	HAL_PWR_EnablePVD:
 319              	.LFB947:
 406:Drivers/STM32WBxx_HAL_Driver/Src/stm32wbxx_hal_pwr.c **** 
 407:Drivers/STM32WBxx_HAL_Driver/Src/stm32wbxx_hal_pwr.c **** /**
 408:Drivers/STM32WBxx_HAL_Driver/Src/stm32wbxx_hal_pwr.c ****   * @brief Enables the Power Voltage Detector(PVD).
 409:Drivers/STM32WBxx_HAL_Driver/Src/stm32wbxx_hal_pwr.c ****   * @retval None
 410:Drivers/STM32WBxx_HAL_Driver/Src/stm32wbxx_hal_pwr.c ****   */
 411:Drivers/STM32WBxx_HAL_Driver/Src/stm32wbxx_hal_pwr.c **** void HAL_PWR_EnablePVD(void)
 412:Drivers/STM32WBxx_HAL_Driver/Src/stm32wbxx_hal_pwr.c **** {
 320              		.loc 1 412 1 is_stmt 1 view -0
 321              		.cfi_startproc
 322              		@ args = 0, pretend = 0, frame = 0
 323              		@ frame_needed = 0, uses_anonymous_args = 0
 324              		@ link register save eliminated.
 413:Drivers/STM32WBxx_HAL_Driver/Src/stm32wbxx_hal_pwr.c ****   /* Enable the power voltage detector */
 414:Drivers/STM32WBxx_HAL_Driver/Src/stm32wbxx_hal_pwr.c ****   SET_BIT(PWR->CR2, PWR_CR2_PVDE);
 325              		.loc 1 414 3 view .LVU74
 326 0000 024A     		ldr	r2, .L17
 327 0002 5368     		ldr	r3, [r2, #4]
 328 0004 43F00103 		orr	r3, r3, #1
 329 0008 5360     		str	r3, [r2, #4]
 415:Drivers/STM32WBxx_HAL_Driver/Src/stm32wbxx_hal_pwr.c **** }
 330              		.loc 1 415 1 is_stmt 0 view .LVU75
 331 000a 7047     		bx	lr
 332              	.L18:
 333              		.align	2
 334              	.L17:
 335 000c 00040058 		.word	1476396032
 336              		.cfi_endproc
 337              	.LFE947:
 339              		.section	.text.HAL_PWR_DisablePVD,"ax",%progbits
 340              		.align	1
 341              		.global	HAL_PWR_DisablePVD
 342              		.syntax unified
 343              		.thumb
 344              		.thumb_func
 345              		.fpu fpv4-sp-d16
 347              	HAL_PWR_DisablePVD:
 348              	.LFB948:
 416:Drivers/STM32WBxx_HAL_Driver/Src/stm32wbxx_hal_pwr.c **** 
 417:Drivers/STM32WBxx_HAL_Driver/Src/stm32wbxx_hal_pwr.c **** /**
 418:Drivers/STM32WBxx_HAL_Driver/Src/stm32wbxx_hal_pwr.c ****   * @brief Disables the Power Voltage Detector(PVD).
 419:Drivers/STM32WBxx_HAL_Driver/Src/stm32wbxx_hal_pwr.c ****   * @retval None
ARM GAS  /tmp/cczZhyqe.s 			page 37


 420:Drivers/STM32WBxx_HAL_Driver/Src/stm32wbxx_hal_pwr.c ****   */
 421:Drivers/STM32WBxx_HAL_Driver/Src/stm32wbxx_hal_pwr.c **** void HAL_PWR_DisablePVD(void)
 422:Drivers/STM32WBxx_HAL_Driver/Src/stm32wbxx_hal_pwr.c **** {
 349              		.loc 1 422 1 is_stmt 1 view -0
 350              		.cfi_startproc
 351              		@ args = 0, pretend = 0, frame = 0
 352              		@ frame_needed = 0, uses_anonymous_args = 0
 353              		@ link register save eliminated.
 423:Drivers/STM32WBxx_HAL_Driver/Src/stm32wbxx_hal_pwr.c ****   /* Disable the power voltage detector */
 424:Drivers/STM32WBxx_HAL_Driver/Src/stm32wbxx_hal_pwr.c ****   CLEAR_BIT(PWR->CR2, PWR_CR2_PVDE);
 354              		.loc 1 424 3 view .LVU77
 355 0000 024A     		ldr	r2, .L20
 356 0002 5368     		ldr	r3, [r2, #4]
 357 0004 23F00103 		bic	r3, r3, #1
 358 0008 5360     		str	r3, [r2, #4]
 425:Drivers/STM32WBxx_HAL_Driver/Src/stm32wbxx_hal_pwr.c **** }
 359              		.loc 1 425 1 is_stmt 0 view .LVU78
 360 000a 7047     		bx	lr
 361              	.L21:
 362              		.align	2
 363              	.L20:
 364 000c 00040058 		.word	1476396032
 365              		.cfi_endproc
 366              	.LFE948:
 368              		.section	.text.HAL_PWR_EnableWakeUpPin,"ax",%progbits
 369              		.align	1
 370              		.global	HAL_PWR_EnableWakeUpPin
 371              		.syntax unified
 372              		.thumb
 373              		.thumb_func
 374              		.fpu fpv4-sp-d16
 376              	HAL_PWR_EnableWakeUpPin:
 377              	.LVL13:
 378              	.LFB949:
 426:Drivers/STM32WBxx_HAL_Driver/Src/stm32wbxx_hal_pwr.c **** 
 427:Drivers/STM32WBxx_HAL_Driver/Src/stm32wbxx_hal_pwr.c **** 
 428:Drivers/STM32WBxx_HAL_Driver/Src/stm32wbxx_hal_pwr.c **** /**
 429:Drivers/STM32WBxx_HAL_Driver/Src/stm32wbxx_hal_pwr.c ****   * @brief Enable the WakeUp PINx functionality.
 430:Drivers/STM32WBxx_HAL_Driver/Src/stm32wbxx_hal_pwr.c ****   * @param WakeUpPinPolarity Specifies which Wake-Up pin to enable.
 431:Drivers/STM32WBxx_HAL_Driver/Src/stm32wbxx_hal_pwr.c ****   *         This parameter can be one of the following legacy values which set the default polarity
 432:Drivers/STM32WBxx_HAL_Driver/Src/stm32wbxx_hal_pwr.c ****   *         i.e. detection on high level (rising edge):
 433:Drivers/STM32WBxx_HAL_Driver/Src/stm32wbxx_hal_pwr.c ****   *           @arg @ref PWR_WAKEUP_PIN1, PWR_WAKEUP_PIN2, PWR_WAKEUP_PIN3, PWR_WAKEUP_PIN4, PWR_WAK
 434:Drivers/STM32WBxx_HAL_Driver/Src/stm32wbxx_hal_pwr.c ****   *             
 435:Drivers/STM32WBxx_HAL_Driver/Src/stm32wbxx_hal_pwr.c ****   *         or one of the following value where the user can explicitly specify the enabled pin and
 436:Drivers/STM32WBxx_HAL_Driver/Src/stm32wbxx_hal_pwr.c ****   *         the chosen polarity:  
 437:Drivers/STM32WBxx_HAL_Driver/Src/stm32wbxx_hal_pwr.c ****   *           @arg @ref PWR_WAKEUP_PIN1_HIGH or PWR_WAKEUP_PIN1_LOW
 438:Drivers/STM32WBxx_HAL_Driver/Src/stm32wbxx_hal_pwr.c ****   *           @arg @ref PWR_WAKEUP_PIN2_HIGH or PWR_WAKEUP_PIN2_LOW
 439:Drivers/STM32WBxx_HAL_Driver/Src/stm32wbxx_hal_pwr.c ****   *           @arg @ref PWR_WAKEUP_PIN3_HIGH or PWR_WAKEUP_PIN3_LOW
 440:Drivers/STM32WBxx_HAL_Driver/Src/stm32wbxx_hal_pwr.c ****   *           @arg @ref PWR_WAKEUP_PIN4_HIGH or PWR_WAKEUP_PIN4_LOW
 441:Drivers/STM32WBxx_HAL_Driver/Src/stm32wbxx_hal_pwr.c ****   *           @arg @ref PWR_WAKEUP_PIN5_HIGH or PWR_WAKEUP_PIN5_LOW
 442:Drivers/STM32WBxx_HAL_Driver/Src/stm32wbxx_hal_pwr.c ****   * @note  PWR_WAKEUP_PINx and PWR_WAKEUP_PINx_HIGH are equivalent.               
 443:Drivers/STM32WBxx_HAL_Driver/Src/stm32wbxx_hal_pwr.c ****   * @retval None
 444:Drivers/STM32WBxx_HAL_Driver/Src/stm32wbxx_hal_pwr.c ****   */
 445:Drivers/STM32WBxx_HAL_Driver/Src/stm32wbxx_hal_pwr.c **** void HAL_PWR_EnableWakeUpPin(uint32_t WakeUpPinPolarity)
 446:Drivers/STM32WBxx_HAL_Driver/Src/stm32wbxx_hal_pwr.c **** {
 379              		.loc 1 446 1 is_stmt 1 view -0
 380              		.cfi_startproc
ARM GAS  /tmp/cczZhyqe.s 			page 38


 381              		@ args = 0, pretend = 0, frame = 0
 382              		@ frame_needed = 0, uses_anonymous_args = 0
 383              		@ link register save eliminated.
 447:Drivers/STM32WBxx_HAL_Driver/Src/stm32wbxx_hal_pwr.c ****   assert_param(IS_PWR_WAKEUP_PIN(WakeUpPinPolarity)); 
 384              		.loc 1 447 3 view .LVU80
 448:Drivers/STM32WBxx_HAL_Driver/Src/stm32wbxx_hal_pwr.c ****   
 449:Drivers/STM32WBxx_HAL_Driver/Src/stm32wbxx_hal_pwr.c ****   /* Specifies the Wake-Up pin polarity for the event detection 
 450:Drivers/STM32WBxx_HAL_Driver/Src/stm32wbxx_hal_pwr.c ****     (rising or falling edge) */
 451:Drivers/STM32WBxx_HAL_Driver/Src/stm32wbxx_hal_pwr.c ****   MODIFY_REG(PWR->CR4, (PWR_CR3_EWUP & WakeUpPinPolarity), (WakeUpPinPolarity >> PWR_WUP_POLARITY_S
 385              		.loc 1 451 3 view .LVU81
 386 0000 064A     		ldr	r2, .L23
 387 0002 D368     		ldr	r3, [r2, #12]
 388 0004 00F01F01 		and	r1, r0, #31
 389 0008 23EA0103 		bic	r3, r3, r1
 390 000c 43EA5013 		orr	r3, r3, r0, lsr #5
 391 0010 D360     		str	r3, [r2, #12]
 452:Drivers/STM32WBxx_HAL_Driver/Src/stm32wbxx_hal_pwr.c ****   
 453:Drivers/STM32WBxx_HAL_Driver/Src/stm32wbxx_hal_pwr.c ****   /* Enable wake-up pin */
 454:Drivers/STM32WBxx_HAL_Driver/Src/stm32wbxx_hal_pwr.c ****   SET_BIT(PWR->CR3, (PWR_CR3_EWUP & WakeUpPinPolarity));
 392              		.loc 1 454 3 view .LVU82
 393 0012 9368     		ldr	r3, [r2, #8]
 394 0014 1943     		orrs	r1, r1, r3
 395 0016 9160     		str	r1, [r2, #8]
 455:Drivers/STM32WBxx_HAL_Driver/Src/stm32wbxx_hal_pwr.c **** }
 396              		.loc 1 455 1 is_stmt 0 view .LVU83
 397 0018 7047     		bx	lr
 398              	.L24:
 399 001a 00BF     		.align	2
 400              	.L23:
 401 001c 00040058 		.word	1476396032
 402              		.cfi_endproc
 403              	.LFE949:
 405              		.section	.text.HAL_PWR_DisableWakeUpPin,"ax",%progbits
 406              		.align	1
 407              		.global	HAL_PWR_DisableWakeUpPin
 408              		.syntax unified
 409              		.thumb
 410              		.thumb_func
 411              		.fpu fpv4-sp-d16
 413              	HAL_PWR_DisableWakeUpPin:
 414              	.LVL14:
 415              	.LFB950:
 456:Drivers/STM32WBxx_HAL_Driver/Src/stm32wbxx_hal_pwr.c **** 
 457:Drivers/STM32WBxx_HAL_Driver/Src/stm32wbxx_hal_pwr.c **** /**
 458:Drivers/STM32WBxx_HAL_Driver/Src/stm32wbxx_hal_pwr.c ****   * @brief  Disable the WakeUp PINx functionality.
 459:Drivers/STM32WBxx_HAL_Driver/Src/stm32wbxx_hal_pwr.c ****   * @param WakeUpPinx Specifies the Power Wake-Up pin to disable.
 460:Drivers/STM32WBxx_HAL_Driver/Src/stm32wbxx_hal_pwr.c ****   *         This parameter can be one of the following values:
 461:Drivers/STM32WBxx_HAL_Driver/Src/stm32wbxx_hal_pwr.c ****   *           @arg PWR_WAKEUP_PIN1: An event on PA0   PIN wakes-up the system from Standby mode.
 462:Drivers/STM32WBxx_HAL_Driver/Src/stm32wbxx_hal_pwr.c ****   *           @arg PWR_WAKEUP_PIN2: An event on PC13  PIN wakes-up the system from Standby mode.
 463:Drivers/STM32WBxx_HAL_Driver/Src/stm32wbxx_hal_pwr.c ****   *           @arg PWR_WAKEUP_PIN3: An event on PC12  PIN wakes-up the system from Standby mode.
 464:Drivers/STM32WBxx_HAL_Driver/Src/stm32wbxx_hal_pwr.c ****   *           @arg PWR_WAKEUP_PIN4: An event on PA2   PIN wakes-up the system from Standby mode.
 465:Drivers/STM32WBxx_HAL_Driver/Src/stm32wbxx_hal_pwr.c ****   *           @arg PWR_WAKEUP_PIN5: An event on PC5   PIN wakes-up the system from Standby mode.
 466:Drivers/STM32WBxx_HAL_Driver/Src/stm32wbxx_hal_pwr.c ****   * @retval None
 467:Drivers/STM32WBxx_HAL_Driver/Src/stm32wbxx_hal_pwr.c ****   */
 468:Drivers/STM32WBxx_HAL_Driver/Src/stm32wbxx_hal_pwr.c **** void HAL_PWR_DisableWakeUpPin(uint32_t WakeUpPinx)
 469:Drivers/STM32WBxx_HAL_Driver/Src/stm32wbxx_hal_pwr.c **** {
 416              		.loc 1 469 1 is_stmt 1 view -0
ARM GAS  /tmp/cczZhyqe.s 			page 39


 417              		.cfi_startproc
 418              		@ args = 0, pretend = 0, frame = 0
 419              		@ frame_needed = 0, uses_anonymous_args = 0
 420              		@ link register save eliminated.
 470:Drivers/STM32WBxx_HAL_Driver/Src/stm32wbxx_hal_pwr.c ****   assert_param(IS_PWR_WAKEUP_PIN(WakeUpPinx));
 421              		.loc 1 470 3 view .LVU85
 471:Drivers/STM32WBxx_HAL_Driver/Src/stm32wbxx_hal_pwr.c **** 
 472:Drivers/STM32WBxx_HAL_Driver/Src/stm32wbxx_hal_pwr.c ****   CLEAR_BIT(PWR->CR3, (PWR_CR3_EWUP & WakeUpPinx));
 422              		.loc 1 472 3 view .LVU86
 423 0000 034A     		ldr	r2, .L26
 424 0002 9368     		ldr	r3, [r2, #8]
 425 0004 00F01F00 		and	r0, r0, #31
 426              	.LVL15:
 427              		.loc 1 472 3 is_stmt 0 view .LVU87
 428 0008 23EA0003 		bic	r3, r3, r0
 429 000c 9360     		str	r3, [r2, #8]
 473:Drivers/STM32WBxx_HAL_Driver/Src/stm32wbxx_hal_pwr.c **** }
 430              		.loc 1 473 1 view .LVU88
 431 000e 7047     		bx	lr
 432              	.L27:
 433              		.align	2
 434              	.L26:
 435 0010 00040058 		.word	1476396032
 436              		.cfi_endproc
 437              	.LFE950:
 439              		.section	.text.HAL_PWR_EnterSLEEPMode,"ax",%progbits
 440              		.align	1
 441              		.global	HAL_PWR_EnterSLEEPMode
 442              		.syntax unified
 443              		.thumb
 444              		.thumb_func
 445              		.fpu fpv4-sp-d16
 447              	HAL_PWR_EnterSLEEPMode:
 448              	.LVL16:
 449              	.LFB951:
 474:Drivers/STM32WBxx_HAL_Driver/Src/stm32wbxx_hal_pwr.c **** 
 475:Drivers/STM32WBxx_HAL_Driver/Src/stm32wbxx_hal_pwr.c **** /**
 476:Drivers/STM32WBxx_HAL_Driver/Src/stm32wbxx_hal_pwr.c ****   * @brief Enter Sleep or Low-power Sleep mode.
 477:Drivers/STM32WBxx_HAL_Driver/Src/stm32wbxx_hal_pwr.c ****   * @note  In Sleep/Low-power Sleep mode, all I/O pins keep the same state as in Run mode.
 478:Drivers/STM32WBxx_HAL_Driver/Src/stm32wbxx_hal_pwr.c ****   * @param Regulator Specifies the regulator state in Sleep/Low-power Sleep mode.
 479:Drivers/STM32WBxx_HAL_Driver/Src/stm32wbxx_hal_pwr.c ****   *          This parameter can be one of the following values:
 480:Drivers/STM32WBxx_HAL_Driver/Src/stm32wbxx_hal_pwr.c ****   *            @arg @ref PWR_MAINREGULATOR_ON Sleep mode (regulator in main mode)
 481:Drivers/STM32WBxx_HAL_Driver/Src/stm32wbxx_hal_pwr.c ****   *            @arg @ref PWR_LOWPOWERREGULATOR_ON Low-power Sleep mode (regulator in low-power mode
 482:Drivers/STM32WBxx_HAL_Driver/Src/stm32wbxx_hal_pwr.c ****   * @note  Low-power Sleep mode is entered from Low-power Run mode. Therefore, if not yet 
 483:Drivers/STM32WBxx_HAL_Driver/Src/stm32wbxx_hal_pwr.c ****   *        in Low-power Run mode before calling HAL_PWR_EnterSLEEPMode() with Regulator set 
 484:Drivers/STM32WBxx_HAL_Driver/Src/stm32wbxx_hal_pwr.c ****   *        to PWR_LOWPOWERREGULATOR_ON, the user can optionally configure the
 485:Drivers/STM32WBxx_HAL_Driver/Src/stm32wbxx_hal_pwr.c ****   *        Flash in power-down mode in setting the SLEEP_PD bit in FLASH_ACR register.
 486:Drivers/STM32WBxx_HAL_Driver/Src/stm32wbxx_hal_pwr.c ****   *        Additionally, the clock frequency must be reduced below 2 MHz.
 487:Drivers/STM32WBxx_HAL_Driver/Src/stm32wbxx_hal_pwr.c ****   *        Setting SLEEP_PD in FLASH_ACR then appropriately reducing the clock frequency must 
 488:Drivers/STM32WBxx_HAL_Driver/Src/stm32wbxx_hal_pwr.c ****   *        be done before calling HAL_PWR_EnterSLEEPMode() API. 
 489:Drivers/STM32WBxx_HAL_Driver/Src/stm32wbxx_hal_pwr.c ****   * @note  When exiting Low-power Sleep mode, the MCU is in Low-power Run mode. To move in 
 490:Drivers/STM32WBxx_HAL_Driver/Src/stm32wbxx_hal_pwr.c ****   *        Run mode, the user must resort to HAL_PWREx_DisableLowPowerRunMode() API.
 491:Drivers/STM32WBxx_HAL_Driver/Src/stm32wbxx_hal_pwr.c ****   * @param SLEEPEntry Specifies if Sleep mode is entered with WFI or WFE instruction.
 492:Drivers/STM32WBxx_HAL_Driver/Src/stm32wbxx_hal_pwr.c ****   *           This parameter can be one of the following values:
 493:Drivers/STM32WBxx_HAL_Driver/Src/stm32wbxx_hal_pwr.c ****   *            @arg @ref PWR_SLEEPENTRY_WFI enter Sleep or Low-power Sleep mode with WFI instructio
 494:Drivers/STM32WBxx_HAL_Driver/Src/stm32wbxx_hal_pwr.c ****   *            @arg @ref PWR_SLEEPENTRY_WFE enter Sleep or Low-power Sleep mode with WFE instructio
 495:Drivers/STM32WBxx_HAL_Driver/Src/stm32wbxx_hal_pwr.c ****   * @note  When WFI entry is used, tick interrupt have to be disabled if not desired as 
ARM GAS  /tmp/cczZhyqe.s 			page 40


 496:Drivers/STM32WBxx_HAL_Driver/Src/stm32wbxx_hal_pwr.c ****   *        the interrupt wake up source.
 497:Drivers/STM32WBxx_HAL_Driver/Src/stm32wbxx_hal_pwr.c ****   * @retval None
 498:Drivers/STM32WBxx_HAL_Driver/Src/stm32wbxx_hal_pwr.c ****   */
 499:Drivers/STM32WBxx_HAL_Driver/Src/stm32wbxx_hal_pwr.c **** void HAL_PWR_EnterSLEEPMode(uint32_t Regulator, uint8_t SLEEPEntry)
 500:Drivers/STM32WBxx_HAL_Driver/Src/stm32wbxx_hal_pwr.c **** {
 450              		.loc 1 500 1 is_stmt 1 view -0
 451              		.cfi_startproc
 452              		@ args = 0, pretend = 0, frame = 0
 453              		@ frame_needed = 0, uses_anonymous_args = 0
 454              		.loc 1 500 1 is_stmt 0 view .LVU90
 455 0000 10B5     		push	{r4, lr}
 456              	.LCFI0:
 457              		.cfi_def_cfa_offset 8
 458              		.cfi_offset 4, -8
 459              		.cfi_offset 14, -4
 460 0002 0C46     		mov	r4, r1
 501:Drivers/STM32WBxx_HAL_Driver/Src/stm32wbxx_hal_pwr.c ****   /* Check the parameters */
 502:Drivers/STM32WBxx_HAL_Driver/Src/stm32wbxx_hal_pwr.c ****   assert_param(IS_PWR_REGULATOR(Regulator));
 461              		.loc 1 502 3 is_stmt 1 view .LVU91
 503:Drivers/STM32WBxx_HAL_Driver/Src/stm32wbxx_hal_pwr.c ****   assert_param(IS_PWR_SLEEP_ENTRY(SLEEPEntry));
 462              		.loc 1 503 3 view .LVU92
 504:Drivers/STM32WBxx_HAL_Driver/Src/stm32wbxx_hal_pwr.c **** 
 505:Drivers/STM32WBxx_HAL_Driver/Src/stm32wbxx_hal_pwr.c ****   /* Set Regulator parameter */
 506:Drivers/STM32WBxx_HAL_Driver/Src/stm32wbxx_hal_pwr.c ****   if (Regulator == PWR_MAINREGULATOR_ON)
 463              		.loc 1 506 3 view .LVU93
 464              		.loc 1 506 6 is_stmt 0 view .LVU94
 465 0004 A0B9     		cbnz	r0, .L29
 507:Drivers/STM32WBxx_HAL_Driver/Src/stm32wbxx_hal_pwr.c ****   {
 508:Drivers/STM32WBxx_HAL_Driver/Src/stm32wbxx_hal_pwr.c ****     /* If in low-power run mode at this point, exit it */
 509:Drivers/STM32WBxx_HAL_Driver/Src/stm32wbxx_hal_pwr.c ****     if (HAL_IS_BIT_SET(PWR->SR2, PWR_SR2_REGLPF))
 466              		.loc 1 509 5 is_stmt 1 view .LVU95
 467              		.loc 1 509 9 is_stmt 0 view .LVU96
 468 0006 0F4B     		ldr	r3, .L36
 469 0008 5B69     		ldr	r3, [r3, #20]
 470              		.loc 1 509 8 view .LVU97
 471 000a 13F4007F 		tst	r3, #512
 472 000e 0AD1     		bne	.L34
 473              	.LVL17:
 474              	.L30:
 510:Drivers/STM32WBxx_HAL_Driver/Src/stm32wbxx_hal_pwr.c ****     {
 511:Drivers/STM32WBxx_HAL_Driver/Src/stm32wbxx_hal_pwr.c ****       if (HAL_PWREx_DisableLowPowerRunMode() != HAL_OK)
 512:Drivers/STM32WBxx_HAL_Driver/Src/stm32wbxx_hal_pwr.c ****       {
 513:Drivers/STM32WBxx_HAL_Driver/Src/stm32wbxx_hal_pwr.c ****         return ;
 514:Drivers/STM32WBxx_HAL_Driver/Src/stm32wbxx_hal_pwr.c ****       }
 515:Drivers/STM32WBxx_HAL_Driver/Src/stm32wbxx_hal_pwr.c ****     } 
 516:Drivers/STM32WBxx_HAL_Driver/Src/stm32wbxx_hal_pwr.c ****     /* Regulator now in main mode. */
 517:Drivers/STM32WBxx_HAL_Driver/Src/stm32wbxx_hal_pwr.c ****   }
 518:Drivers/STM32WBxx_HAL_Driver/Src/stm32wbxx_hal_pwr.c ****   else
 519:Drivers/STM32WBxx_HAL_Driver/Src/stm32wbxx_hal_pwr.c ****   {
 520:Drivers/STM32WBxx_HAL_Driver/Src/stm32wbxx_hal_pwr.c ****     /* If in run mode, first move to low-power run mode.
 521:Drivers/STM32WBxx_HAL_Driver/Src/stm32wbxx_hal_pwr.c ****        The system clock frequency must be below 2 MHz at this point. */
 522:Drivers/STM32WBxx_HAL_Driver/Src/stm32wbxx_hal_pwr.c ****     if (HAL_IS_BIT_SET(PWR->SR2, PWR_SR2_REGLPF) == RESET)
 523:Drivers/STM32WBxx_HAL_Driver/Src/stm32wbxx_hal_pwr.c ****     {
 524:Drivers/STM32WBxx_HAL_Driver/Src/stm32wbxx_hal_pwr.c ****       HAL_PWREx_EnableLowPowerRunMode();  
 525:Drivers/STM32WBxx_HAL_Driver/Src/stm32wbxx_hal_pwr.c ****     } 
 526:Drivers/STM32WBxx_HAL_Driver/Src/stm32wbxx_hal_pwr.c ****   } 
 527:Drivers/STM32WBxx_HAL_Driver/Src/stm32wbxx_hal_pwr.c ****     
ARM GAS  /tmp/cczZhyqe.s 			page 41


 528:Drivers/STM32WBxx_HAL_Driver/Src/stm32wbxx_hal_pwr.c ****   /* Clear SLEEPDEEP bit of Cortex System Control Register */
 529:Drivers/STM32WBxx_HAL_Driver/Src/stm32wbxx_hal_pwr.c ****   CLEAR_BIT(SCB->SCR, ((uint32_t)SCB_SCR_SLEEPDEEP_Msk));
 475              		.loc 1 529 3 is_stmt 1 view .LVU98
 476 0010 0D4A     		ldr	r2, .L36+4
 477 0012 1369     		ldr	r3, [r2, #16]
 478 0014 23F00403 		bic	r3, r3, #4
 479 0018 1361     		str	r3, [r2, #16]
 530:Drivers/STM32WBxx_HAL_Driver/Src/stm32wbxx_hal_pwr.c **** 
 531:Drivers/STM32WBxx_HAL_Driver/Src/stm32wbxx_hal_pwr.c ****   /* Select SLEEP mode entry -------------------------------------------------*/
 532:Drivers/STM32WBxx_HAL_Driver/Src/stm32wbxx_hal_pwr.c ****   if(SLEEPEntry == PWR_SLEEPENTRY_WFI)
 480              		.loc 1 532 3 view .LVU99
 481              		.loc 1 532 5 is_stmt 0 view .LVU100
 482 001a 012C     		cmp	r4, #1
 483 001c 10D0     		beq	.L35
 533:Drivers/STM32WBxx_HAL_Driver/Src/stm32wbxx_hal_pwr.c ****   {
 534:Drivers/STM32WBxx_HAL_Driver/Src/stm32wbxx_hal_pwr.c ****     /* Request Wait For Interrupt */
 535:Drivers/STM32WBxx_HAL_Driver/Src/stm32wbxx_hal_pwr.c ****     __WFI();
 536:Drivers/STM32WBxx_HAL_Driver/Src/stm32wbxx_hal_pwr.c ****   }
 537:Drivers/STM32WBxx_HAL_Driver/Src/stm32wbxx_hal_pwr.c ****   else
 538:Drivers/STM32WBxx_HAL_Driver/Src/stm32wbxx_hal_pwr.c ****   {
 539:Drivers/STM32WBxx_HAL_Driver/Src/stm32wbxx_hal_pwr.c ****     /* Request Wait For Event */
 540:Drivers/STM32WBxx_HAL_Driver/Src/stm32wbxx_hal_pwr.c ****     __SEV();
 484              		.loc 1 540 5 is_stmt 1 view .LVU101
 485              		.syntax unified
 486              	@ 540 "Drivers/STM32WBxx_HAL_Driver/Src/stm32wbxx_hal_pwr.c" 1
 487 001e 40BF     		sev
 488              	@ 0 "" 2
 541:Drivers/STM32WBxx_HAL_Driver/Src/stm32wbxx_hal_pwr.c ****     __WFE();
 489              		.loc 1 541 5 view .LVU102
 490              	@ 541 "Drivers/STM32WBxx_HAL_Driver/Src/stm32wbxx_hal_pwr.c" 1
 491 0020 20BF     		wfe
 492              	@ 0 "" 2
 542:Drivers/STM32WBxx_HAL_Driver/Src/stm32wbxx_hal_pwr.c ****     __WFE();
 493              		.loc 1 542 5 view .LVU103
 494              	@ 542 "Drivers/STM32WBxx_HAL_Driver/Src/stm32wbxx_hal_pwr.c" 1
 495 0022 20BF     		wfe
 496              	@ 0 "" 2
 497              		.thumb
 498              		.syntax unified
 499              	.L28:
 543:Drivers/STM32WBxx_HAL_Driver/Src/stm32wbxx_hal_pwr.c ****   }
 544:Drivers/STM32WBxx_HAL_Driver/Src/stm32wbxx_hal_pwr.c **** }
 500              		.loc 1 544 1 is_stmt 0 view .LVU104
 501 0024 10BD     		pop	{r4, pc}
 502              	.LVL18:
 503              	.L34:
 511:Drivers/STM32WBxx_HAL_Driver/Src/stm32wbxx_hal_pwr.c ****       {
 504              		.loc 1 511 7 is_stmt 1 view .LVU105
 511:Drivers/STM32WBxx_HAL_Driver/Src/stm32wbxx_hal_pwr.c ****       {
 505              		.loc 1 511 11 is_stmt 0 view .LVU106
 506 0026 FFF7FEFF 		bl	HAL_PWREx_DisableLowPowerRunMode
 507              	.LVL19:
 511:Drivers/STM32WBxx_HAL_Driver/Src/stm32wbxx_hal_pwr.c ****       {
 508              		.loc 1 511 10 view .LVU107
 509 002a 0028     		cmp	r0, #0
 510 002c F0D0     		beq	.L30
 511 002e F9E7     		b	.L28
ARM GAS  /tmp/cczZhyqe.s 			page 42


 512              	.LVL20:
 513              	.L29:
 522:Drivers/STM32WBxx_HAL_Driver/Src/stm32wbxx_hal_pwr.c ****     {
 514              		.loc 1 522 5 is_stmt 1 view .LVU108
 522:Drivers/STM32WBxx_HAL_Driver/Src/stm32wbxx_hal_pwr.c ****     {
 515              		.loc 1 522 9 is_stmt 0 view .LVU109
 516 0030 044B     		ldr	r3, .L36
 517 0032 5B69     		ldr	r3, [r3, #20]
 522:Drivers/STM32WBxx_HAL_Driver/Src/stm32wbxx_hal_pwr.c ****     {
 518              		.loc 1 522 8 view .LVU110
 519 0034 13F4007F 		tst	r3, #512
 520 0038 EAD1     		bne	.L30
 524:Drivers/STM32WBxx_HAL_Driver/Src/stm32wbxx_hal_pwr.c ****     } 
 521              		.loc 1 524 7 is_stmt 1 view .LVU111
 522 003a FFF7FEFF 		bl	HAL_PWREx_EnableLowPowerRunMode
 523              	.LVL21:
 524:Drivers/STM32WBxx_HAL_Driver/Src/stm32wbxx_hal_pwr.c ****     } 
 524              		.loc 1 524 7 is_stmt 0 view .LVU112
 525 003e E7E7     		b	.L30
 526              	.L35:
 535:Drivers/STM32WBxx_HAL_Driver/Src/stm32wbxx_hal_pwr.c ****   }
 527              		.loc 1 535 5 is_stmt 1 view .LVU113
 528              		.syntax unified
 529              	@ 535 "Drivers/STM32WBxx_HAL_Driver/Src/stm32wbxx_hal_pwr.c" 1
 530 0040 30BF     		wfi
 531              	@ 0 "" 2
 532              		.thumb
 533              		.syntax unified
 534 0042 EFE7     		b	.L28
 535              	.L37:
 536              		.align	2
 537              	.L36:
 538 0044 00040058 		.word	1476396032
 539 0048 00ED00E0 		.word	-536810240
 540              		.cfi_endproc
 541              	.LFE951:
 543              		.section	.text.HAL_PWR_EnterSTOPMode,"ax",%progbits
 544              		.align	1
 545              		.global	HAL_PWR_EnterSTOPMode
 546              		.syntax unified
 547              		.thumb
 548              		.thumb_func
 549              		.fpu fpv4-sp-d16
 551              	HAL_PWR_EnterSTOPMode:
 552              	.LVL22:
 553              	.LFB952:
 545:Drivers/STM32WBxx_HAL_Driver/Src/stm32wbxx_hal_pwr.c **** 
 546:Drivers/STM32WBxx_HAL_Driver/Src/stm32wbxx_hal_pwr.c **** 
 547:Drivers/STM32WBxx_HAL_Driver/Src/stm32wbxx_hal_pwr.c **** /**
 548:Drivers/STM32WBxx_HAL_Driver/Src/stm32wbxx_hal_pwr.c ****   * @brief Enter Stop mode
 549:Drivers/STM32WBxx_HAL_Driver/Src/stm32wbxx_hal_pwr.c ****   * @note  This API is named HAL_PWR_EnterSTOPMode to ensure compatibility with legacy code running
 550:Drivers/STM32WBxx_HAL_Driver/Src/stm32wbxx_hal_pwr.c ****   *        on devices where only "Stop mode" is mentioned with main or low power regulator ON.
 551:Drivers/STM32WBxx_HAL_Driver/Src/stm32wbxx_hal_pwr.c ****   * @note  In Stop mode, all I/O pins keep the same state as in Run mode.
 552:Drivers/STM32WBxx_HAL_Driver/Src/stm32wbxx_hal_pwr.c ****   * @note  All clocks in the VCORE domain are stopped; the PLL, the MSI, 
 553:Drivers/STM32WBxx_HAL_Driver/Src/stm32wbxx_hal_pwr.c ****   *        the HSI and the HSE oscillators are disabled. Some peripherals with the wakeup capabilit
 554:Drivers/STM32WBxx_HAL_Driver/Src/stm32wbxx_hal_pwr.c ****   *        (I2Cx, USARTx and LPUART) can switch on the HSI to receive a frame, and switch off the H
 555:Drivers/STM32WBxx_HAL_Driver/Src/stm32wbxx_hal_pwr.c ****   *        after receiving the frame if it is not a wakeup frame. In this case, the HSI clock is pr
ARM GAS  /tmp/cczZhyqe.s 			page 43


 556:Drivers/STM32WBxx_HAL_Driver/Src/stm32wbxx_hal_pwr.c ****   *        only to the peripheral requesting it.
 557:Drivers/STM32WBxx_HAL_Driver/Src/stm32wbxx_hal_pwr.c ****   *        SRAM1, SRAM2 and register contents are preserved.
 558:Drivers/STM32WBxx_HAL_Driver/Src/stm32wbxx_hal_pwr.c ****   *        The BOR is available.
 559:Drivers/STM32WBxx_HAL_Driver/Src/stm32wbxx_hal_pwr.c ****   *        The voltage regulator can be configured either in normal (Stop 0) or low-power mode (Sto
 560:Drivers/STM32WBxx_HAL_Driver/Src/stm32wbxx_hal_pwr.c ****   * @note  When exiting Stop 0 or Stop 1 mode by issuing an interrupt or a wakeup event,
 561:Drivers/STM32WBxx_HAL_Driver/Src/stm32wbxx_hal_pwr.c ****   *         the HSI RC oscillator is selected as system clock if STOPWUCK bit in RCC_CFGR register
 562:Drivers/STM32WBxx_HAL_Driver/Src/stm32wbxx_hal_pwr.c ****   *         is set; the MSI oscillator is selected if STOPWUCK is cleared.  
 563:Drivers/STM32WBxx_HAL_Driver/Src/stm32wbxx_hal_pwr.c ****   * @note  When the voltage regulator operates in low power mode (Stop 1), an additional
 564:Drivers/STM32WBxx_HAL_Driver/Src/stm32wbxx_hal_pwr.c ****   *         startup delay is incurred when waking up.
 565:Drivers/STM32WBxx_HAL_Driver/Src/stm32wbxx_hal_pwr.c ****   *         By keeping the internal regulator ON during Stop mode (Stop 0), the consumption
 566:Drivers/STM32WBxx_HAL_Driver/Src/stm32wbxx_hal_pwr.c ****   *         is higher although the startup time is reduced.
 567:Drivers/STM32WBxx_HAL_Driver/Src/stm32wbxx_hal_pwr.c ****   * @note  Case of Stop0 mode with SMPS: Before entering Stop 0 mode with SMPS Step Down converter 
 568:Drivers/STM32WBxx_HAL_Driver/Src/stm32wbxx_hal_pwr.c ****   *        the HSI16 must be kept on by enabling HSI kernel clock (set HSIKERON register bit).
 569:Drivers/STM32WBxx_HAL_Driver/Src/stm32wbxx_hal_pwr.c ****   * @note  According to system power policy, system entering in Stop mode
 570:Drivers/STM32WBxx_HAL_Driver/Src/stm32wbxx_hal_pwr.c ****   *        is depending on other CPU power mode.
 571:Drivers/STM32WBxx_HAL_Driver/Src/stm32wbxx_hal_pwr.c ****   * @param Regulator Specifies the regulator state in Stop mode.
 572:Drivers/STM32WBxx_HAL_Driver/Src/stm32wbxx_hal_pwr.c ****   *          This parameter can be one of the following values:
 573:Drivers/STM32WBxx_HAL_Driver/Src/stm32wbxx_hal_pwr.c ****   *            @arg @ref PWR_MAINREGULATOR_ON  Stop 0 mode (main regulator ON)
 574:Drivers/STM32WBxx_HAL_Driver/Src/stm32wbxx_hal_pwr.c ****   *            @arg @ref PWR_LOWPOWERREGULATOR_ON  Stop 1 mode (low power regulator ON) 
 575:Drivers/STM32WBxx_HAL_Driver/Src/stm32wbxx_hal_pwr.c ****   * @param STOPEntry Specifies Stop 0, Stop 1 or Stop 2 mode is entered with WFI or WFE instruction
 576:Drivers/STM32WBxx_HAL_Driver/Src/stm32wbxx_hal_pwr.c ****   *          This parameter can be one of the following values:
 577:Drivers/STM32WBxx_HAL_Driver/Src/stm32wbxx_hal_pwr.c ****   *            @arg @ref PWR_STOPENTRY_WFI  Enter Stop 0 or Stop 1 mode with WFI instruction.
 578:Drivers/STM32WBxx_HAL_Driver/Src/stm32wbxx_hal_pwr.c ****   *            @arg @ref PWR_STOPENTRY_WFE  Enter Stop 0 or Stop 1 mode with WFE instruction.
 579:Drivers/STM32WBxx_HAL_Driver/Src/stm32wbxx_hal_pwr.c ****   * @retval None
 580:Drivers/STM32WBxx_HAL_Driver/Src/stm32wbxx_hal_pwr.c ****   */
 581:Drivers/STM32WBxx_HAL_Driver/Src/stm32wbxx_hal_pwr.c **** void HAL_PWR_EnterSTOPMode(uint32_t Regulator, uint8_t STOPEntry)
 582:Drivers/STM32WBxx_HAL_Driver/Src/stm32wbxx_hal_pwr.c **** {
 554              		.loc 1 582 1 view -0
 555              		.cfi_startproc
 556              		@ args = 0, pretend = 0, frame = 0
 557              		@ frame_needed = 0, uses_anonymous_args = 0
 558              		.loc 1 582 1 is_stmt 0 view .LVU115
 559 0000 08B5     		push	{r3, lr}
 560              	.LCFI1:
 561              		.cfi_def_cfa_offset 8
 562              		.cfi_offset 3, -8
 563              		.cfi_offset 14, -4
 583:Drivers/STM32WBxx_HAL_Driver/Src/stm32wbxx_hal_pwr.c ****   /* Check the parameters */
 584:Drivers/STM32WBxx_HAL_Driver/Src/stm32wbxx_hal_pwr.c ****   assert_param(IS_PWR_REGULATOR(Regulator));
 564              		.loc 1 584 3 is_stmt 1 view .LVU116
 585:Drivers/STM32WBxx_HAL_Driver/Src/stm32wbxx_hal_pwr.c ****   
 586:Drivers/STM32WBxx_HAL_Driver/Src/stm32wbxx_hal_pwr.c ****   if(Regulator == PWR_LOWPOWERREGULATOR_ON)
 565              		.loc 1 586 3 view .LVU117
 566              		.loc 1 586 5 is_stmt 0 view .LVU118
 567 0002 B0F5804F 		cmp	r0, #16384
 568 0006 03D0     		beq	.L42
 587:Drivers/STM32WBxx_HAL_Driver/Src/stm32wbxx_hal_pwr.c ****   {
 588:Drivers/STM32WBxx_HAL_Driver/Src/stm32wbxx_hal_pwr.c ****     HAL_PWREx_EnterSTOP1Mode(STOPEntry);
 589:Drivers/STM32WBxx_HAL_Driver/Src/stm32wbxx_hal_pwr.c ****   }
 590:Drivers/STM32WBxx_HAL_Driver/Src/stm32wbxx_hal_pwr.c ****   else
 591:Drivers/STM32WBxx_HAL_Driver/Src/stm32wbxx_hal_pwr.c ****   {
 592:Drivers/STM32WBxx_HAL_Driver/Src/stm32wbxx_hal_pwr.c ****     HAL_PWREx_EnterSTOP0Mode(STOPEntry);
 569              		.loc 1 592 5 is_stmt 1 view .LVU119
 570 0008 0846     		mov	r0, r1
 571              	.LVL23:
 572              		.loc 1 592 5 is_stmt 0 view .LVU120
 573 000a FFF7FEFF 		bl	HAL_PWREx_EnterSTOP0Mode
ARM GAS  /tmp/cczZhyqe.s 			page 44


 574              	.LVL24:
 575              	.L38:
 593:Drivers/STM32WBxx_HAL_Driver/Src/stm32wbxx_hal_pwr.c ****   }
 594:Drivers/STM32WBxx_HAL_Driver/Src/stm32wbxx_hal_pwr.c **** }
 576              		.loc 1 594 1 view .LVU121
 577 000e 08BD     		pop	{r3, pc}
 578              	.LVL25:
 579              	.L42:
 588:Drivers/STM32WBxx_HAL_Driver/Src/stm32wbxx_hal_pwr.c ****   }
 580              		.loc 1 588 5 is_stmt 1 view .LVU122
 581 0010 0846     		mov	r0, r1
 582              	.LVL26:
 588:Drivers/STM32WBxx_HAL_Driver/Src/stm32wbxx_hal_pwr.c ****   }
 583              		.loc 1 588 5 is_stmt 0 view .LVU123
 584 0012 FFF7FEFF 		bl	HAL_PWREx_EnterSTOP1Mode
 585              	.LVL27:
 588:Drivers/STM32WBxx_HAL_Driver/Src/stm32wbxx_hal_pwr.c ****   }
 586              		.loc 1 588 5 view .LVU124
 587 0016 FAE7     		b	.L38
 588              		.cfi_endproc
 589              	.LFE952:
 591              		.section	.text.HAL_PWR_EnterSTANDBYMode,"ax",%progbits
 592              		.align	1
 593              		.global	HAL_PWR_EnterSTANDBYMode
 594              		.syntax unified
 595              		.thumb
 596              		.thumb_func
 597              		.fpu fpv4-sp-d16
 599              	HAL_PWR_EnterSTANDBYMode:
 600              	.LFB953:
 595:Drivers/STM32WBxx_HAL_Driver/Src/stm32wbxx_hal_pwr.c **** 
 596:Drivers/STM32WBxx_HAL_Driver/Src/stm32wbxx_hal_pwr.c **** 
 597:Drivers/STM32WBxx_HAL_Driver/Src/stm32wbxx_hal_pwr.c **** /**
 598:Drivers/STM32WBxx_HAL_Driver/Src/stm32wbxx_hal_pwr.c ****   * @brief Enter Standby mode.
 599:Drivers/STM32WBxx_HAL_Driver/Src/stm32wbxx_hal_pwr.c ****   * @note  In Standby mode, the PLL, the HSI, the MSI and the HSE oscillators are switched 
 600:Drivers/STM32WBxx_HAL_Driver/Src/stm32wbxx_hal_pwr.c ****   *        off. The voltage regulator is disabled, except when BKRAM content is preserved
 601:Drivers/STM32WBxx_HAL_Driver/Src/stm32wbxx_hal_pwr.c ****   *        in which case the regulator is in low-power mode.
 602:Drivers/STM32WBxx_HAL_Driver/Src/stm32wbxx_hal_pwr.c ****   *        SRAM and register contents are lost except for registers in the Backup domain and
 603:Drivers/STM32WBxx_HAL_Driver/Src/stm32wbxx_hal_pwr.c ****   *        Standby circuitry. BKRAM content can be preserved if the bit RRS is set in PWR_CR3 regis
 604:Drivers/STM32WBxx_HAL_Driver/Src/stm32wbxx_hal_pwr.c ****   *        To enable this feature, the user can resort to HAL_PWREx_EnableBKRAMContentRetention() A
 605:Drivers/STM32WBxx_HAL_Driver/Src/stm32wbxx_hal_pwr.c ****   *        to set RRS bit.
 606:Drivers/STM32WBxx_HAL_Driver/Src/stm32wbxx_hal_pwr.c ****   *        The BOR is available.
 607:Drivers/STM32WBxx_HAL_Driver/Src/stm32wbxx_hal_pwr.c ****   * @note  The I/Os can be configured either with a pull-up or pull-down or can be kept in analog s
 608:Drivers/STM32WBxx_HAL_Driver/Src/stm32wbxx_hal_pwr.c ****   *        HAL_PWREx_EnableGPIOPullUp() and HAL_PWREx_EnableGPIOPullDown() respectively enable Pull
 609:Drivers/STM32WBxx_HAL_Driver/Src/stm32wbxx_hal_pwr.c ****   *        Pull Down state, HAL_PWREx_DisableGPIOPullUp() and HAL_PWREx_DisableGPIOPullDown() disab
 610:Drivers/STM32WBxx_HAL_Driver/Src/stm32wbxx_hal_pwr.c ****   *        same.
 611:Drivers/STM32WBxx_HAL_Driver/Src/stm32wbxx_hal_pwr.c ****   *        These states are effective in Standby mode only if APC bit is set through
 612:Drivers/STM32WBxx_HAL_Driver/Src/stm32wbxx_hal_pwr.c ****   *        HAL_PWREx_EnablePullUpPullDownConfig() API.
 613:Drivers/STM32WBxx_HAL_Driver/Src/stm32wbxx_hal_pwr.c ****   * @note  According to system power policy, system entering in Standby mode
 614:Drivers/STM32WBxx_HAL_Driver/Src/stm32wbxx_hal_pwr.c ****   *        is depending on other CPU power mode.
 615:Drivers/STM32WBxx_HAL_Driver/Src/stm32wbxx_hal_pwr.c ****   * @retval None
 616:Drivers/STM32WBxx_HAL_Driver/Src/stm32wbxx_hal_pwr.c ****   */
 617:Drivers/STM32WBxx_HAL_Driver/Src/stm32wbxx_hal_pwr.c **** void HAL_PWR_EnterSTANDBYMode(void)
 618:Drivers/STM32WBxx_HAL_Driver/Src/stm32wbxx_hal_pwr.c **** {
 601              		.loc 1 618 1 is_stmt 1 view -0
 602              		.cfi_startproc
 603              		@ args = 0, pretend = 0, frame = 0
ARM GAS  /tmp/cczZhyqe.s 			page 45


 604              		@ frame_needed = 0, uses_anonymous_args = 0
 605              		@ link register save eliminated.
 619:Drivers/STM32WBxx_HAL_Driver/Src/stm32wbxx_hal_pwr.c ****   /* Set Stand-by mode */
 620:Drivers/STM32WBxx_HAL_Driver/Src/stm32wbxx_hal_pwr.c ****   MODIFY_REG(PWR->CR1, PWR_CR1_LPMS, PWR_LOWPOWERMODE_STANDBY);
 606              		.loc 1 620 3 view .LVU126
 607 0000 084A     		ldr	r2, .L44
 608 0002 1368     		ldr	r3, [r2]
 609 0004 23F00703 		bic	r3, r3, #7
 610 0008 43F00303 		orr	r3, r3, #3
 611 000c 1360     		str	r3, [r2]
 621:Drivers/STM32WBxx_HAL_Driver/Src/stm32wbxx_hal_pwr.c **** 
 622:Drivers/STM32WBxx_HAL_Driver/Src/stm32wbxx_hal_pwr.c ****   /* Set SLEEPDEEP bit of Cortex System Control Register */
 623:Drivers/STM32WBxx_HAL_Driver/Src/stm32wbxx_hal_pwr.c ****   SET_BIT(SCB->SCR, ((uint32_t)SCB_SCR_SLEEPDEEP_Msk));
 612              		.loc 1 623 3 view .LVU127
 613 000e 064B     		ldr	r3, .L44+4
 614 0010 1A69     		ldr	r2, [r3, #16]
 615 0012 42F00402 		orr	r2, r2, #4
 616 0016 1A61     		str	r2, [r3, #16]
 624:Drivers/STM32WBxx_HAL_Driver/Src/stm32wbxx_hal_pwr.c **** 
 625:Drivers/STM32WBxx_HAL_Driver/Src/stm32wbxx_hal_pwr.c **** /* This option is used to ensure that store operations are completed */
 626:Drivers/STM32WBxx_HAL_Driver/Src/stm32wbxx_hal_pwr.c **** #if defined ( __CC_ARM)
 627:Drivers/STM32WBxx_HAL_Driver/Src/stm32wbxx_hal_pwr.c ****   __force_stores();
 628:Drivers/STM32WBxx_HAL_Driver/Src/stm32wbxx_hal_pwr.c **** #endif
 629:Drivers/STM32WBxx_HAL_Driver/Src/stm32wbxx_hal_pwr.c **** 
 630:Drivers/STM32WBxx_HAL_Driver/Src/stm32wbxx_hal_pwr.c ****   /* Request Wait For Interrupt */
 631:Drivers/STM32WBxx_HAL_Driver/Src/stm32wbxx_hal_pwr.c ****   __WFI();
 617              		.loc 1 631 3 view .LVU128
 618              		.syntax unified
 619              	@ 631 "Drivers/STM32WBxx_HAL_Driver/Src/stm32wbxx_hal_pwr.c" 1
 620 0018 30BF     		wfi
 621              	@ 0 "" 2
 632:Drivers/STM32WBxx_HAL_Driver/Src/stm32wbxx_hal_pwr.c **** 
 633:Drivers/STM32WBxx_HAL_Driver/Src/stm32wbxx_hal_pwr.c ****   /* Following code is executed after wake up if system did not go to STANDBY
 634:Drivers/STM32WBxx_HAL_Driver/Src/stm32wbxx_hal_pwr.c ****      mode according to system power policy */
 635:Drivers/STM32WBxx_HAL_Driver/Src/stm32wbxx_hal_pwr.c **** 
 636:Drivers/STM32WBxx_HAL_Driver/Src/stm32wbxx_hal_pwr.c ****   /* Reset SLEEPDEEP bit of Cortex System Control Register */
 637:Drivers/STM32WBxx_HAL_Driver/Src/stm32wbxx_hal_pwr.c ****   CLEAR_BIT(SCB->SCR, ((uint32_t)SCB_SCR_SLEEPDEEP_Msk));
 622              		.loc 1 637 3 view .LVU129
 623              		.thumb
 624              		.syntax unified
 625 001a 1A69     		ldr	r2, [r3, #16]
 626 001c 22F00402 		bic	r2, r2, #4
 627 0020 1A61     		str	r2, [r3, #16]
 638:Drivers/STM32WBxx_HAL_Driver/Src/stm32wbxx_hal_pwr.c **** }
 628              		.loc 1 638 1 is_stmt 0 view .LVU130
 629 0022 7047     		bx	lr
 630              	.L45:
 631              		.align	2
 632              	.L44:
 633 0024 00040058 		.word	1476396032
 634 0028 00ED00E0 		.word	-536810240
 635              		.cfi_endproc
 636              	.LFE953:
 638              		.section	.text.HAL_PWR_EnableSleepOnExit,"ax",%progbits
 639              		.align	1
 640              		.global	HAL_PWR_EnableSleepOnExit
 641              		.syntax unified
ARM GAS  /tmp/cczZhyqe.s 			page 46


 642              		.thumb
 643              		.thumb_func
 644              		.fpu fpv4-sp-d16
 646              	HAL_PWR_EnableSleepOnExit:
 647              	.LFB954:
 639:Drivers/STM32WBxx_HAL_Driver/Src/stm32wbxx_hal_pwr.c **** 
 640:Drivers/STM32WBxx_HAL_Driver/Src/stm32wbxx_hal_pwr.c **** /**
 641:Drivers/STM32WBxx_HAL_Driver/Src/stm32wbxx_hal_pwr.c ****   * @brief  Indicate Sleep-On-Exit when returning from Handler mode to Thread mode. 
 642:Drivers/STM32WBxx_HAL_Driver/Src/stm32wbxx_hal_pwr.c ****   * @note   Set SLEEPONEXIT bit of SCR register. When this bit is set, the processor 
 643:Drivers/STM32WBxx_HAL_Driver/Src/stm32wbxx_hal_pwr.c ****   *         re-enters SLEEP mode when an interruption handling is over.
 644:Drivers/STM32WBxx_HAL_Driver/Src/stm32wbxx_hal_pwr.c ****   *         Setting this bit is useful when the processor is expected to run only on
 645:Drivers/STM32WBxx_HAL_Driver/Src/stm32wbxx_hal_pwr.c ****   *         interruptions handling.         
 646:Drivers/STM32WBxx_HAL_Driver/Src/stm32wbxx_hal_pwr.c ****   * @retval None
 647:Drivers/STM32WBxx_HAL_Driver/Src/stm32wbxx_hal_pwr.c ****   */
 648:Drivers/STM32WBxx_HAL_Driver/Src/stm32wbxx_hal_pwr.c **** void HAL_PWR_EnableSleepOnExit(void)
 649:Drivers/STM32WBxx_HAL_Driver/Src/stm32wbxx_hal_pwr.c **** {
 648              		.loc 1 649 1 is_stmt 1 view -0
 649              		.cfi_startproc
 650              		@ args = 0, pretend = 0, frame = 0
 651              		@ frame_needed = 0, uses_anonymous_args = 0
 652              		@ link register save eliminated.
 650:Drivers/STM32WBxx_HAL_Driver/Src/stm32wbxx_hal_pwr.c ****   /* Set SLEEPONEXIT bit of Cortex System Control Register */
 651:Drivers/STM32WBxx_HAL_Driver/Src/stm32wbxx_hal_pwr.c ****   SET_BIT(SCB->SCR, ((uint32_t)SCB_SCR_SLEEPONEXIT_Msk));
 653              		.loc 1 651 3 view .LVU132
 654 0000 024A     		ldr	r2, .L47
 655 0002 1369     		ldr	r3, [r2, #16]
 656 0004 43F00203 		orr	r3, r3, #2
 657 0008 1361     		str	r3, [r2, #16]
 652:Drivers/STM32WBxx_HAL_Driver/Src/stm32wbxx_hal_pwr.c **** }
 658              		.loc 1 652 1 is_stmt 0 view .LVU133
 659 000a 7047     		bx	lr
 660              	.L48:
 661              		.align	2
 662              	.L47:
 663 000c 00ED00E0 		.word	-536810240
 664              		.cfi_endproc
 665              	.LFE954:
 667              		.section	.text.HAL_PWR_DisableSleepOnExit,"ax",%progbits
 668              		.align	1
 669              		.global	HAL_PWR_DisableSleepOnExit
 670              		.syntax unified
 671              		.thumb
 672              		.thumb_func
 673              		.fpu fpv4-sp-d16
 675              	HAL_PWR_DisableSleepOnExit:
 676              	.LFB955:
 653:Drivers/STM32WBxx_HAL_Driver/Src/stm32wbxx_hal_pwr.c **** 
 654:Drivers/STM32WBxx_HAL_Driver/Src/stm32wbxx_hal_pwr.c **** /**
 655:Drivers/STM32WBxx_HAL_Driver/Src/stm32wbxx_hal_pwr.c ****   * @brief  Disable Sleep-On-Exit feature when returning from Handler mode to Thread mode. 
 656:Drivers/STM32WBxx_HAL_Driver/Src/stm32wbxx_hal_pwr.c ****   * @note   Clear SLEEPONEXIT bit of SCR register. When this bit is set, the processor 
 657:Drivers/STM32WBxx_HAL_Driver/Src/stm32wbxx_hal_pwr.c ****   *         re-enters SLEEP mode when an interruption handling is over.
 658:Drivers/STM32WBxx_HAL_Driver/Src/stm32wbxx_hal_pwr.c ****   * @retval None
 659:Drivers/STM32WBxx_HAL_Driver/Src/stm32wbxx_hal_pwr.c ****   */
 660:Drivers/STM32WBxx_HAL_Driver/Src/stm32wbxx_hal_pwr.c **** void HAL_PWR_DisableSleepOnExit(void)
 661:Drivers/STM32WBxx_HAL_Driver/Src/stm32wbxx_hal_pwr.c **** {
 677              		.loc 1 661 1 is_stmt 1 view -0
 678              		.cfi_startproc
ARM GAS  /tmp/cczZhyqe.s 			page 47


 679              		@ args = 0, pretend = 0, frame = 0
 680              		@ frame_needed = 0, uses_anonymous_args = 0
 681              		@ link register save eliminated.
 662:Drivers/STM32WBxx_HAL_Driver/Src/stm32wbxx_hal_pwr.c ****   /* Clear SLEEPONEXIT bit of Cortex System Control Register */
 663:Drivers/STM32WBxx_HAL_Driver/Src/stm32wbxx_hal_pwr.c ****   CLEAR_BIT(SCB->SCR, ((uint32_t)SCB_SCR_SLEEPONEXIT_Msk));
 682              		.loc 1 663 3 view .LVU135
 683 0000 024A     		ldr	r2, .L50
 684 0002 1369     		ldr	r3, [r2, #16]
 685 0004 23F00203 		bic	r3, r3, #2
 686 0008 1361     		str	r3, [r2, #16]
 664:Drivers/STM32WBxx_HAL_Driver/Src/stm32wbxx_hal_pwr.c **** }
 687              		.loc 1 664 1 is_stmt 0 view .LVU136
 688 000a 7047     		bx	lr
 689              	.L51:
 690              		.align	2
 691              	.L50:
 692 000c 00ED00E0 		.word	-536810240
 693              		.cfi_endproc
 694              	.LFE955:
 696              		.section	.text.HAL_PWR_EnableSEVOnPend,"ax",%progbits
 697              		.align	1
 698              		.global	HAL_PWR_EnableSEVOnPend
 699              		.syntax unified
 700              		.thumb
 701              		.thumb_func
 702              		.fpu fpv4-sp-d16
 704              	HAL_PWR_EnableSEVOnPend:
 705              	.LFB956:
 665:Drivers/STM32WBxx_HAL_Driver/Src/stm32wbxx_hal_pwr.c **** 
 666:Drivers/STM32WBxx_HAL_Driver/Src/stm32wbxx_hal_pwr.c **** 
 667:Drivers/STM32WBxx_HAL_Driver/Src/stm32wbxx_hal_pwr.c **** /**
 668:Drivers/STM32WBxx_HAL_Driver/Src/stm32wbxx_hal_pwr.c ****   * @brief Enable CORTEX M4 SEVONPEND bit. 
 669:Drivers/STM32WBxx_HAL_Driver/Src/stm32wbxx_hal_pwr.c ****   * @note Set SEVONPEND bit of SCR register. When this bit is set, this causes 
 670:Drivers/STM32WBxx_HAL_Driver/Src/stm32wbxx_hal_pwr.c ****   *       WFE to wake up when an interrupt moves from inactive to pended.
 671:Drivers/STM32WBxx_HAL_Driver/Src/stm32wbxx_hal_pwr.c ****   * @retval None
 672:Drivers/STM32WBxx_HAL_Driver/Src/stm32wbxx_hal_pwr.c ****   */
 673:Drivers/STM32WBxx_HAL_Driver/Src/stm32wbxx_hal_pwr.c **** void HAL_PWR_EnableSEVOnPend(void)
 674:Drivers/STM32WBxx_HAL_Driver/Src/stm32wbxx_hal_pwr.c **** {
 706              		.loc 1 674 1 is_stmt 1 view -0
 707              		.cfi_startproc
 708              		@ args = 0, pretend = 0, frame = 0
 709              		@ frame_needed = 0, uses_anonymous_args = 0
 710              		@ link register save eliminated.
 675:Drivers/STM32WBxx_HAL_Driver/Src/stm32wbxx_hal_pwr.c ****   /* Set SEVONPEND bit of Cortex System Control Register */
 676:Drivers/STM32WBxx_HAL_Driver/Src/stm32wbxx_hal_pwr.c ****   SET_BIT(SCB->SCR, ((uint32_t)SCB_SCR_SEVONPEND_Msk));
 711              		.loc 1 676 3 view .LVU138
 712 0000 024A     		ldr	r2, .L53
 713 0002 1369     		ldr	r3, [r2, #16]
 714 0004 43F01003 		orr	r3, r3, #16
 715 0008 1361     		str	r3, [r2, #16]
 677:Drivers/STM32WBxx_HAL_Driver/Src/stm32wbxx_hal_pwr.c **** }
 716              		.loc 1 677 1 is_stmt 0 view .LVU139
 717 000a 7047     		bx	lr
 718              	.L54:
 719              		.align	2
 720              	.L53:
 721 000c 00ED00E0 		.word	-536810240
ARM GAS  /tmp/cczZhyqe.s 			page 48


 722              		.cfi_endproc
 723              	.LFE956:
 725              		.section	.text.HAL_PWR_DisableSEVOnPend,"ax",%progbits
 726              		.align	1
 727              		.global	HAL_PWR_DisableSEVOnPend
 728              		.syntax unified
 729              		.thumb
 730              		.thumb_func
 731              		.fpu fpv4-sp-d16
 733              	HAL_PWR_DisableSEVOnPend:
 734              	.LFB957:
 678:Drivers/STM32WBxx_HAL_Driver/Src/stm32wbxx_hal_pwr.c **** 
 679:Drivers/STM32WBxx_HAL_Driver/Src/stm32wbxx_hal_pwr.c **** 
 680:Drivers/STM32WBxx_HAL_Driver/Src/stm32wbxx_hal_pwr.c **** /**
 681:Drivers/STM32WBxx_HAL_Driver/Src/stm32wbxx_hal_pwr.c ****   * @brief Disable CORTEX M4 SEVONPEND bit. 
 682:Drivers/STM32WBxx_HAL_Driver/Src/stm32wbxx_hal_pwr.c ****   * @note Clear SEVONPEND bit of SCR register. When this bit is set, this causes 
 683:Drivers/STM32WBxx_HAL_Driver/Src/stm32wbxx_hal_pwr.c ****   *       WFE to wake up when an interrupt moves from inactive to pended.         
 684:Drivers/STM32WBxx_HAL_Driver/Src/stm32wbxx_hal_pwr.c ****   * @retval None
 685:Drivers/STM32WBxx_HAL_Driver/Src/stm32wbxx_hal_pwr.c ****   */
 686:Drivers/STM32WBxx_HAL_Driver/Src/stm32wbxx_hal_pwr.c **** void HAL_PWR_DisableSEVOnPend(void)
 687:Drivers/STM32WBxx_HAL_Driver/Src/stm32wbxx_hal_pwr.c **** {
 735              		.loc 1 687 1 is_stmt 1 view -0
 736              		.cfi_startproc
 737              		@ args = 0, pretend = 0, frame = 0
 738              		@ frame_needed = 0, uses_anonymous_args = 0
 739              		@ link register save eliminated.
 688:Drivers/STM32WBxx_HAL_Driver/Src/stm32wbxx_hal_pwr.c ****   /* Clear SEVONPEND bit of Cortex System Control Register */
 689:Drivers/STM32WBxx_HAL_Driver/Src/stm32wbxx_hal_pwr.c ****   CLEAR_BIT(SCB->SCR, ((uint32_t)SCB_SCR_SEVONPEND_Msk));
 740              		.loc 1 689 3 view .LVU141
 741 0000 024A     		ldr	r2, .L56
 742 0002 1369     		ldr	r3, [r2, #16]
 743 0004 23F01003 		bic	r3, r3, #16
 744 0008 1361     		str	r3, [r2, #16]
 690:Drivers/STM32WBxx_HAL_Driver/Src/stm32wbxx_hal_pwr.c **** }
 745              		.loc 1 690 1 is_stmt 0 view .LVU142
 746 000a 7047     		bx	lr
 747              	.L57:
 748              		.align	2
 749              	.L56:
 750 000c 00ED00E0 		.word	-536810240
 751              		.cfi_endproc
 752              	.LFE957:
 754              		.section	.text.HAL_PWR_PVDCallback,"ax",%progbits
 755              		.align	1
 756              		.weak	HAL_PWR_PVDCallback
 757              		.syntax unified
 758              		.thumb
 759              		.thumb_func
 760              		.fpu fpv4-sp-d16
 762              	HAL_PWR_PVDCallback:
 763              	.LFB958:
 691:Drivers/STM32WBxx_HAL_Driver/Src/stm32wbxx_hal_pwr.c **** 
 692:Drivers/STM32WBxx_HAL_Driver/Src/stm32wbxx_hal_pwr.c **** 
 693:Drivers/STM32WBxx_HAL_Driver/Src/stm32wbxx_hal_pwr.c **** /**
 694:Drivers/STM32WBxx_HAL_Driver/Src/stm32wbxx_hal_pwr.c ****   * @brief  PWR PVD interrupt callback
 695:Drivers/STM32WBxx_HAL_Driver/Src/stm32wbxx_hal_pwr.c ****   * @retval None
 696:Drivers/STM32WBxx_HAL_Driver/Src/stm32wbxx_hal_pwr.c ****   */
ARM GAS  /tmp/cczZhyqe.s 			page 49


 697:Drivers/STM32WBxx_HAL_Driver/Src/stm32wbxx_hal_pwr.c **** __weak void HAL_PWR_PVDCallback(void)
 698:Drivers/STM32WBxx_HAL_Driver/Src/stm32wbxx_hal_pwr.c **** {
 764              		.loc 1 698 1 is_stmt 1 view -0
 765              		.cfi_startproc
 766              		@ args = 0, pretend = 0, frame = 0
 767              		@ frame_needed = 0, uses_anonymous_args = 0
 768              		@ link register save eliminated.
 699:Drivers/STM32WBxx_HAL_Driver/Src/stm32wbxx_hal_pwr.c ****   /* NOTE : This function should not be modified; when the callback is needed,
 700:Drivers/STM32WBxx_HAL_Driver/Src/stm32wbxx_hal_pwr.c ****             the HAL_PWR_PVDCallback can be implemented in the user file
 701:Drivers/STM32WBxx_HAL_Driver/Src/stm32wbxx_hal_pwr.c ****   */
 702:Drivers/STM32WBxx_HAL_Driver/Src/stm32wbxx_hal_pwr.c **** }
 769              		.loc 1 702 1 view .LVU144
 770 0000 7047     		bx	lr
 771              		.cfi_endproc
 772              	.LFE958:
 774              		.text
 775              	.Letext0:
 776              		.file 3 "/usr/lib/gcc/arm-none-eabi/8.3.1/include/stdint.h"
 777              		.file 4 "Drivers/CMSIS/Include/core_cm4.h"
 778              		.file 5 "Drivers/CMSIS/Device/ST/STM32WBxx/Include/system_stm32wbxx.h"
 779              		.file 6 "Drivers/CMSIS/Device/ST/STM32WBxx/Include/stm32wb55xx.h"
 780              		.file 7 "Drivers/CMSIS/Device/ST/STM32WBxx/Include/stm32wbxx.h"
 781              		.file 8 "Drivers/STM32WBxx_HAL_Driver/Inc/stm32wbxx_hal_def.h"
 782              		.file 9 "Drivers/STM32WBxx_HAL_Driver/Inc/stm32wbxx_hal_flash.h"
 783              		.file 10 "Drivers/STM32WBxx_HAL_Driver/Inc/stm32wbxx_hal_pwr.h"
 784              		.file 11 "Drivers/STM32WBxx_HAL_Driver/Inc/stm32wbxx_hal_uart.h"
 785              		.file 12 "Drivers/STM32WBxx_HAL_Driver/Inc/stm32wbxx_hal.h"
 786              		.file 13 "Drivers/STM32WBxx_HAL_Driver/Inc/stm32wbxx_hal_pwr_ex.h"
ARM GAS  /tmp/cczZhyqe.s 			page 50

