ARM GAS  /tmp/ccYuDfzR.s 			page 1


   1              		.cpu cortex-m4
   2              		.eabi_attribute 27, 1
   3              		.eabi_attribute 28, 1
   4              		.eabi_attribute 20, 1
   5              		.eabi_attribute 21, 1
   6              		.eabi_attribute 23, 3
   7              		.eabi_attribute 24, 1
   8              		.eabi_attribute 25, 1
   9              		.eabi_attribute 26, 1
  10              		.eabi_attribute 30, 1
  11              		.eabi_attribute 34, 1
  12              		.eabi_attribute 18, 4
  13              		.file	"stm32wbxx_hal_exti.c"
  14              		.text
  15              	.Ltext0:
  16              		.cfi_sections	.debug_frame
  17              		.section	.text.HAL_EXTI_SetConfigLine,"ax",%progbits
  18              		.align	1
  19              		.global	HAL_EXTI_SetConfigLine
  20              		.arch armv7e-m
  21              		.syntax unified
  22              		.thumb
  23              		.thumb_func
  24              		.fpu fpv4-sp-d16
  26              	HAL_EXTI_SetConfigLine:
  27              	.LVL0:
  28              	.LFB943:
  29              		.file 1 "Drivers/STM32WBxx_HAL_Driver/Src/stm32wbxx_hal_exti.c"
   1:Drivers/STM32WBxx_HAL_Driver/Src/stm32wbxx_hal_exti.c **** /**
   2:Drivers/STM32WBxx_HAL_Driver/Src/stm32wbxx_hal_exti.c ****   ******************************************************************************
   3:Drivers/STM32WBxx_HAL_Driver/Src/stm32wbxx_hal_exti.c ****   * @file    stm32wbxx_hal_exti.c
   4:Drivers/STM32WBxx_HAL_Driver/Src/stm32wbxx_hal_exti.c ****   * @author  MCD Application Team
   5:Drivers/STM32WBxx_HAL_Driver/Src/stm32wbxx_hal_exti.c ****   * @brief   EXTI HAL module driver.
   6:Drivers/STM32WBxx_HAL_Driver/Src/stm32wbxx_hal_exti.c ****   *          This file provides firmware functions to manage the following
   7:Drivers/STM32WBxx_HAL_Driver/Src/stm32wbxx_hal_exti.c ****   *          functionalities of the General Purpose Input/Output (EXTI) peripheral:
   8:Drivers/STM32WBxx_HAL_Driver/Src/stm32wbxx_hal_exti.c ****   *           + Initialization and de-initialization functions
   9:Drivers/STM32WBxx_HAL_Driver/Src/stm32wbxx_hal_exti.c ****   *           + IO operation functions
  10:Drivers/STM32WBxx_HAL_Driver/Src/stm32wbxx_hal_exti.c ****   *
  11:Drivers/STM32WBxx_HAL_Driver/Src/stm32wbxx_hal_exti.c ****   @verbatim
  12:Drivers/STM32WBxx_HAL_Driver/Src/stm32wbxx_hal_exti.c ****   ==============================================================================
  13:Drivers/STM32WBxx_HAL_Driver/Src/stm32wbxx_hal_exti.c ****                     ##### EXTI Peripheral features #####
  14:Drivers/STM32WBxx_HAL_Driver/Src/stm32wbxx_hal_exti.c ****   ==============================================================================
  15:Drivers/STM32WBxx_HAL_Driver/Src/stm32wbxx_hal_exti.c ****   [..]
  16:Drivers/STM32WBxx_HAL_Driver/Src/stm32wbxx_hal_exti.c ****     (+) Each Exti line can be configured within this driver.
  17:Drivers/STM32WBxx_HAL_Driver/Src/stm32wbxx_hal_exti.c **** 
  18:Drivers/STM32WBxx_HAL_Driver/Src/stm32wbxx_hal_exti.c ****     (+) Exti line can be configured in 3 different modes
  19:Drivers/STM32WBxx_HAL_Driver/Src/stm32wbxx_hal_exti.c ****         (++) Interrupt
  20:Drivers/STM32WBxx_HAL_Driver/Src/stm32wbxx_hal_exti.c ****         (++) Event
  21:Drivers/STM32WBxx_HAL_Driver/Src/stm32wbxx_hal_exti.c ****         (++) Both of them
  22:Drivers/STM32WBxx_HAL_Driver/Src/stm32wbxx_hal_exti.c **** 
  23:Drivers/STM32WBxx_HAL_Driver/Src/stm32wbxx_hal_exti.c ****     (+) Configurable Exti lines can be configured with 3 different triggers
  24:Drivers/STM32WBxx_HAL_Driver/Src/stm32wbxx_hal_exti.c ****         (++) Rising
  25:Drivers/STM32WBxx_HAL_Driver/Src/stm32wbxx_hal_exti.c ****         (++) Falling
  26:Drivers/STM32WBxx_HAL_Driver/Src/stm32wbxx_hal_exti.c ****         (++) Both of them
  27:Drivers/STM32WBxx_HAL_Driver/Src/stm32wbxx_hal_exti.c **** 
  28:Drivers/STM32WBxx_HAL_Driver/Src/stm32wbxx_hal_exti.c ****     (+) When set in interrupt mode, configurable Exti lines have one
  29:Drivers/STM32WBxx_HAL_Driver/Src/stm32wbxx_hal_exti.c ****         interrupt pending register:
ARM GAS  /tmp/ccYuDfzR.s 			page 2


  30:Drivers/STM32WBxx_HAL_Driver/Src/stm32wbxx_hal_exti.c ****         (++) Trigger request occurred
  31:Drivers/STM32WBxx_HAL_Driver/Src/stm32wbxx_hal_exti.c **** 
  32:Drivers/STM32WBxx_HAL_Driver/Src/stm32wbxx_hal_exti.c ****     (+) Exti lines 0 to 15 are linked to gpio pin number 0 to 15. Gpio port can
  33:Drivers/STM32WBxx_HAL_Driver/Src/stm32wbxx_hal_exti.c ****         be selected throught multiplexer.
  34:Drivers/STM32WBxx_HAL_Driver/Src/stm32wbxx_hal_exti.c **** 
  35:Drivers/STM32WBxx_HAL_Driver/Src/stm32wbxx_hal_exti.c ****                      ##### How to use this driver #####
  36:Drivers/STM32WBxx_HAL_Driver/Src/stm32wbxx_hal_exti.c ****   ==============================================================================
  37:Drivers/STM32WBxx_HAL_Driver/Src/stm32wbxx_hal_exti.c ****   [..]
  38:Drivers/STM32WBxx_HAL_Driver/Src/stm32wbxx_hal_exti.c **** 
  39:Drivers/STM32WBxx_HAL_Driver/Src/stm32wbxx_hal_exti.c ****     (#) Configure the EXTI line using HAL_EXTI_SetConfigLine().
  40:Drivers/STM32WBxx_HAL_Driver/Src/stm32wbxx_hal_exti.c ****         (++) Choose the interrupt line number by setting "Line" member from
  41:Drivers/STM32WBxx_HAL_Driver/Src/stm32wbxx_hal_exti.c ****              EXTI_ConfigTypeDef structure.
  42:Drivers/STM32WBxx_HAL_Driver/Src/stm32wbxx_hal_exti.c ****         (++) Configure the interrupt and/or event mode using "Mode" member from
  43:Drivers/STM32WBxx_HAL_Driver/Src/stm32wbxx_hal_exti.c ****              EXTI_ConfigTypeDef structure.
  44:Drivers/STM32WBxx_HAL_Driver/Src/stm32wbxx_hal_exti.c ****         (++) For configurable lines, configure rising and/or falling trigger
  45:Drivers/STM32WBxx_HAL_Driver/Src/stm32wbxx_hal_exti.c ****              "Trigger" member from EXTI_ConfigTypeDef structure.
  46:Drivers/STM32WBxx_HAL_Driver/Src/stm32wbxx_hal_exti.c ****         (++) For Exti lines linked to gpio, choose gpio port using "GPIOSel"
  47:Drivers/STM32WBxx_HAL_Driver/Src/stm32wbxx_hal_exti.c ****              member from GPIO_InitTypeDef structure.
  48:Drivers/STM32WBxx_HAL_Driver/Src/stm32wbxx_hal_exti.c **** 
  49:Drivers/STM32WBxx_HAL_Driver/Src/stm32wbxx_hal_exti.c ****     (#) Get current Exti configuration of a dedicated line using
  50:Drivers/STM32WBxx_HAL_Driver/Src/stm32wbxx_hal_exti.c ****         HAL_EXTI_GetConfigLine().
  51:Drivers/STM32WBxx_HAL_Driver/Src/stm32wbxx_hal_exti.c ****         (++) Provide exiting handle as parameter.
  52:Drivers/STM32WBxx_HAL_Driver/Src/stm32wbxx_hal_exti.c ****         (++) Provide pointer on EXTI_ConfigTypeDef structure as second parameter.
  53:Drivers/STM32WBxx_HAL_Driver/Src/stm32wbxx_hal_exti.c **** 
  54:Drivers/STM32WBxx_HAL_Driver/Src/stm32wbxx_hal_exti.c ****     (#) Clear Exti configuration of a dedicated line using HAL_EXTI_GetConfigLine().
  55:Drivers/STM32WBxx_HAL_Driver/Src/stm32wbxx_hal_exti.c ****         (++) Provide exiting handle as parameter.
  56:Drivers/STM32WBxx_HAL_Driver/Src/stm32wbxx_hal_exti.c **** 
  57:Drivers/STM32WBxx_HAL_Driver/Src/stm32wbxx_hal_exti.c ****     (#) Register callback to treat Exti interrupts using HAL_EXTI_RegisterCallback().
  58:Drivers/STM32WBxx_HAL_Driver/Src/stm32wbxx_hal_exti.c ****         (++) Provide exiting handle as first parameter.
  59:Drivers/STM32WBxx_HAL_Driver/Src/stm32wbxx_hal_exti.c ****         (++) Provide which callback will be registered using one value from
  60:Drivers/STM32WBxx_HAL_Driver/Src/stm32wbxx_hal_exti.c ****              EXTI_CallbackIDTypeDef.
  61:Drivers/STM32WBxx_HAL_Driver/Src/stm32wbxx_hal_exti.c ****         (++) Provide callback function pointer.
  62:Drivers/STM32WBxx_HAL_Driver/Src/stm32wbxx_hal_exti.c **** 
  63:Drivers/STM32WBxx_HAL_Driver/Src/stm32wbxx_hal_exti.c ****     (#) Get interrupt pending bit using HAL_EXTI_GetPending().
  64:Drivers/STM32WBxx_HAL_Driver/Src/stm32wbxx_hal_exti.c **** 
  65:Drivers/STM32WBxx_HAL_Driver/Src/stm32wbxx_hal_exti.c ****     (#) Clear interrupt pending bit using HAL_EXTI_GetPending().
  66:Drivers/STM32WBxx_HAL_Driver/Src/stm32wbxx_hal_exti.c **** 
  67:Drivers/STM32WBxx_HAL_Driver/Src/stm32wbxx_hal_exti.c ****     (#) Generate software interrupt using HAL_EXTI_GenerateSWI().
  68:Drivers/STM32WBxx_HAL_Driver/Src/stm32wbxx_hal_exti.c **** 
  69:Drivers/STM32WBxx_HAL_Driver/Src/stm32wbxx_hal_exti.c ****   @endverbatim
  70:Drivers/STM32WBxx_HAL_Driver/Src/stm32wbxx_hal_exti.c ****   ******************************************************************************
  71:Drivers/STM32WBxx_HAL_Driver/Src/stm32wbxx_hal_exti.c ****   * @attention
  72:Drivers/STM32WBxx_HAL_Driver/Src/stm32wbxx_hal_exti.c ****   *
  73:Drivers/STM32WBxx_HAL_Driver/Src/stm32wbxx_hal_exti.c ****   * <h2><center>&copy; Copyright (c) 2019 STMicroelectronics. 
  74:Drivers/STM32WBxx_HAL_Driver/Src/stm32wbxx_hal_exti.c ****   * All rights reserved.</center></h2>
  75:Drivers/STM32WBxx_HAL_Driver/Src/stm32wbxx_hal_exti.c ****   *
  76:Drivers/STM32WBxx_HAL_Driver/Src/stm32wbxx_hal_exti.c ****   * This software component is licensed by ST under BSD 3-Clause license,
  77:Drivers/STM32WBxx_HAL_Driver/Src/stm32wbxx_hal_exti.c ****   * the "License"; You may not use this file except in compliance with the 
  78:Drivers/STM32WBxx_HAL_Driver/Src/stm32wbxx_hal_exti.c ****   * License. You may obtain a copy of the License at:
  79:Drivers/STM32WBxx_HAL_Driver/Src/stm32wbxx_hal_exti.c ****   *                        opensource.org/licenses/BSD-3-Clause
  80:Drivers/STM32WBxx_HAL_Driver/Src/stm32wbxx_hal_exti.c ****   *
  81:Drivers/STM32WBxx_HAL_Driver/Src/stm32wbxx_hal_exti.c ****   ******************************************************************************
  82:Drivers/STM32WBxx_HAL_Driver/Src/stm32wbxx_hal_exti.c ****   */
  83:Drivers/STM32WBxx_HAL_Driver/Src/stm32wbxx_hal_exti.c **** 
  84:Drivers/STM32WBxx_HAL_Driver/Src/stm32wbxx_hal_exti.c **** /* Includes ------------------------------------------------------------------*/
  85:Drivers/STM32WBxx_HAL_Driver/Src/stm32wbxx_hal_exti.c **** #include "stm32wbxx_hal.h"
  86:Drivers/STM32WBxx_HAL_Driver/Src/stm32wbxx_hal_exti.c **** 
ARM GAS  /tmp/ccYuDfzR.s 			page 3


  87:Drivers/STM32WBxx_HAL_Driver/Src/stm32wbxx_hal_exti.c **** /** @addtogroup STM32WBxx_HAL_Driver
  88:Drivers/STM32WBxx_HAL_Driver/Src/stm32wbxx_hal_exti.c ****   * @{
  89:Drivers/STM32WBxx_HAL_Driver/Src/stm32wbxx_hal_exti.c ****   */
  90:Drivers/STM32WBxx_HAL_Driver/Src/stm32wbxx_hal_exti.c **** 
  91:Drivers/STM32WBxx_HAL_Driver/Src/stm32wbxx_hal_exti.c **** /** @addtogroup EXTI
  92:Drivers/STM32WBxx_HAL_Driver/Src/stm32wbxx_hal_exti.c ****   * @{
  93:Drivers/STM32WBxx_HAL_Driver/Src/stm32wbxx_hal_exti.c ****   */
  94:Drivers/STM32WBxx_HAL_Driver/Src/stm32wbxx_hal_exti.c **** /** MISRA C:2012 deviation rule has been granted for following rule:
  95:Drivers/STM32WBxx_HAL_Driver/Src/stm32wbxx_hal_exti.c ****   * Rule-18.1_b - Medium: Array `EXTICR' 1st subscript interval [0,7] may be out
  96:Drivers/STM32WBxx_HAL_Driver/Src/stm32wbxx_hal_exti.c ****   * of bounds [0,3] in following API :
  97:Drivers/STM32WBxx_HAL_Driver/Src/stm32wbxx_hal_exti.c ****   * HAL_EXTI_SetConfigLine
  98:Drivers/STM32WBxx_HAL_Driver/Src/stm32wbxx_hal_exti.c ****   * HAL_EXTI_GetConfigLine
  99:Drivers/STM32WBxx_HAL_Driver/Src/stm32wbxx_hal_exti.c ****   * HAL_EXTI_ClearConfigLine
 100:Drivers/STM32WBxx_HAL_Driver/Src/stm32wbxx_hal_exti.c ****   */
 101:Drivers/STM32WBxx_HAL_Driver/Src/stm32wbxx_hal_exti.c **** 
 102:Drivers/STM32WBxx_HAL_Driver/Src/stm32wbxx_hal_exti.c **** #ifdef HAL_EXTI_MODULE_ENABLED
 103:Drivers/STM32WBxx_HAL_Driver/Src/stm32wbxx_hal_exti.c **** 
 104:Drivers/STM32WBxx_HAL_Driver/Src/stm32wbxx_hal_exti.c **** /* Private typedef -----------------------------------------------------------*/
 105:Drivers/STM32WBxx_HAL_Driver/Src/stm32wbxx_hal_exti.c **** /* Private defines ------------------------------------------------------------*/
 106:Drivers/STM32WBxx_HAL_Driver/Src/stm32wbxx_hal_exti.c **** /** @defgroup EXTI_Private_Constants EXTI Private Constants
 107:Drivers/STM32WBxx_HAL_Driver/Src/stm32wbxx_hal_exti.c ****   * @{
 108:Drivers/STM32WBxx_HAL_Driver/Src/stm32wbxx_hal_exti.c ****   */
 109:Drivers/STM32WBxx_HAL_Driver/Src/stm32wbxx_hal_exti.c **** #define EXTI_MODE_OFFSET                    0x04u   /* 0x10: offset between CPU IMR/EMR registers *
 110:Drivers/STM32WBxx_HAL_Driver/Src/stm32wbxx_hal_exti.c **** #define EXTI_CONFIG_OFFSET                  0x08u   /* 0x20: offset between CPU Rising/Falling conf
 111:Drivers/STM32WBxx_HAL_Driver/Src/stm32wbxx_hal_exti.c **** /**
 112:Drivers/STM32WBxx_HAL_Driver/Src/stm32wbxx_hal_exti.c ****   * @}
 113:Drivers/STM32WBxx_HAL_Driver/Src/stm32wbxx_hal_exti.c ****   */
 114:Drivers/STM32WBxx_HAL_Driver/Src/stm32wbxx_hal_exti.c **** 
 115:Drivers/STM32WBxx_HAL_Driver/Src/stm32wbxx_hal_exti.c **** /* Private macros ------------------------------------------------------------*/
 116:Drivers/STM32WBxx_HAL_Driver/Src/stm32wbxx_hal_exti.c **** /* Private variables ---------------------------------------------------------*/
 117:Drivers/STM32WBxx_HAL_Driver/Src/stm32wbxx_hal_exti.c **** /* Private function prototypes -----------------------------------------------*/
 118:Drivers/STM32WBxx_HAL_Driver/Src/stm32wbxx_hal_exti.c **** /* Exported functions --------------------------------------------------------*/
 119:Drivers/STM32WBxx_HAL_Driver/Src/stm32wbxx_hal_exti.c **** 
 120:Drivers/STM32WBxx_HAL_Driver/Src/stm32wbxx_hal_exti.c **** /** @addtogroup EXTI_Exported_Functions
 121:Drivers/STM32WBxx_HAL_Driver/Src/stm32wbxx_hal_exti.c ****   * @{
 122:Drivers/STM32WBxx_HAL_Driver/Src/stm32wbxx_hal_exti.c ****   */
 123:Drivers/STM32WBxx_HAL_Driver/Src/stm32wbxx_hal_exti.c **** 
 124:Drivers/STM32WBxx_HAL_Driver/Src/stm32wbxx_hal_exti.c **** /** @addtogroup EXTI_Exported_Functions_Group1
 125:Drivers/STM32WBxx_HAL_Driver/Src/stm32wbxx_hal_exti.c ****  *  @brief    Configuration functions
 126:Drivers/STM32WBxx_HAL_Driver/Src/stm32wbxx_hal_exti.c ****  *
 127:Drivers/STM32WBxx_HAL_Driver/Src/stm32wbxx_hal_exti.c **** @verbatim
 128:Drivers/STM32WBxx_HAL_Driver/Src/stm32wbxx_hal_exti.c ****  ===============================================================================
 129:Drivers/STM32WBxx_HAL_Driver/Src/stm32wbxx_hal_exti.c ****               ##### Configuration functions #####
 130:Drivers/STM32WBxx_HAL_Driver/Src/stm32wbxx_hal_exti.c ****  ===============================================================================
 131:Drivers/STM32WBxx_HAL_Driver/Src/stm32wbxx_hal_exti.c **** 
 132:Drivers/STM32WBxx_HAL_Driver/Src/stm32wbxx_hal_exti.c **** @endverbatim
 133:Drivers/STM32WBxx_HAL_Driver/Src/stm32wbxx_hal_exti.c ****   * @{
 134:Drivers/STM32WBxx_HAL_Driver/Src/stm32wbxx_hal_exti.c ****   */
 135:Drivers/STM32WBxx_HAL_Driver/Src/stm32wbxx_hal_exti.c **** 
 136:Drivers/STM32WBxx_HAL_Driver/Src/stm32wbxx_hal_exti.c **** /**
 137:Drivers/STM32WBxx_HAL_Driver/Src/stm32wbxx_hal_exti.c ****   * @brief  Set configuration of a dedicated Exti line.
 138:Drivers/STM32WBxx_HAL_Driver/Src/stm32wbxx_hal_exti.c ****   * @param  hexti Exti handle.
 139:Drivers/STM32WBxx_HAL_Driver/Src/stm32wbxx_hal_exti.c ****   * @param  pExtiConfig Pointer on EXTI configuration to be set.
 140:Drivers/STM32WBxx_HAL_Driver/Src/stm32wbxx_hal_exti.c ****   * @retval HAL Status.
 141:Drivers/STM32WBxx_HAL_Driver/Src/stm32wbxx_hal_exti.c ****   */
 142:Drivers/STM32WBxx_HAL_Driver/Src/stm32wbxx_hal_exti.c **** HAL_StatusTypeDef HAL_EXTI_SetConfigLine(EXTI_HandleTypeDef *hexti, EXTI_ConfigTypeDef *pExtiConfig
 143:Drivers/STM32WBxx_HAL_Driver/Src/stm32wbxx_hal_exti.c **** {
ARM GAS  /tmp/ccYuDfzR.s 			page 4


  30              		.loc 1 143 1 view -0
  31              		.cfi_startproc
  32              		@ args = 0, pretend = 0, frame = 0
  33              		@ frame_needed = 0, uses_anonymous_args = 0
  34              		@ link register save eliminated.
 144:Drivers/STM32WBxx_HAL_Driver/Src/stm32wbxx_hal_exti.c ****   __IO uint32_t *regaddr;
  35              		.loc 1 144 3 view .LVU1
 145:Drivers/STM32WBxx_HAL_Driver/Src/stm32wbxx_hal_exti.c ****   uint32_t regval;
  36              		.loc 1 145 3 view .LVU2
 146:Drivers/STM32WBxx_HAL_Driver/Src/stm32wbxx_hal_exti.c ****   uint32_t linepos;
  37              		.loc 1 146 3 view .LVU3
 147:Drivers/STM32WBxx_HAL_Driver/Src/stm32wbxx_hal_exti.c ****   uint32_t maskline;
  38              		.loc 1 147 3 view .LVU4
 148:Drivers/STM32WBxx_HAL_Driver/Src/stm32wbxx_hal_exti.c ****   uint32_t offset;
  39              		.loc 1 148 3 view .LVU5
 149:Drivers/STM32WBxx_HAL_Driver/Src/stm32wbxx_hal_exti.c **** 
 150:Drivers/STM32WBxx_HAL_Driver/Src/stm32wbxx_hal_exti.c ****   /* Check null pointer */
 151:Drivers/STM32WBxx_HAL_Driver/Src/stm32wbxx_hal_exti.c ****   if ((hexti == NULL) || (pExtiConfig == NULL))
  40              		.loc 1 151 3 view .LVU6
  41              		.loc 1 151 6 is_stmt 0 view .LVU7
  42 0000 0028     		cmp	r0, #0
  43 0002 63D0     		beq	.L12
  44              		.loc 1 151 23 discriminator 1 view .LVU8
  45 0004 0029     		cmp	r1, #0
  46 0006 63D0     		beq	.L13
 143:Drivers/STM32WBxx_HAL_Driver/Src/stm32wbxx_hal_exti.c ****   __IO uint32_t *regaddr;
  47              		.loc 1 143 1 view .LVU9
  48 0008 F0B4     		push	{r4, r5, r6, r7}
  49              	.LCFI0:
  50              		.cfi_def_cfa_offset 16
  51              		.cfi_offset 4, -16
  52              		.cfi_offset 5, -12
  53              		.cfi_offset 6, -8
  54              		.cfi_offset 7, -4
 152:Drivers/STM32WBxx_HAL_Driver/Src/stm32wbxx_hal_exti.c ****   {
 153:Drivers/STM32WBxx_HAL_Driver/Src/stm32wbxx_hal_exti.c ****     return HAL_ERROR;
 154:Drivers/STM32WBxx_HAL_Driver/Src/stm32wbxx_hal_exti.c ****   }
 155:Drivers/STM32WBxx_HAL_Driver/Src/stm32wbxx_hal_exti.c **** 
 156:Drivers/STM32WBxx_HAL_Driver/Src/stm32wbxx_hal_exti.c ****   /* Check parameters */
 157:Drivers/STM32WBxx_HAL_Driver/Src/stm32wbxx_hal_exti.c ****   assert_param(IS_EXTI_LINE(pExtiConfig->Line));
  55              		.loc 1 157 3 is_stmt 1 view .LVU10
 158:Drivers/STM32WBxx_HAL_Driver/Src/stm32wbxx_hal_exti.c ****   assert_param(IS_EXTI_MODE(pExtiConfig->Mode));
  56              		.loc 1 158 3 view .LVU11
 159:Drivers/STM32WBxx_HAL_Driver/Src/stm32wbxx_hal_exti.c **** 
 160:Drivers/STM32WBxx_HAL_Driver/Src/stm32wbxx_hal_exti.c ****   /* Assign line number to handle */
 161:Drivers/STM32WBxx_HAL_Driver/Src/stm32wbxx_hal_exti.c ****   hexti->Line = pExtiConfig->Line;
  57              		.loc 1 161 3 view .LVU12
  58              		.loc 1 161 28 is_stmt 0 view .LVU13
  59 000a 0A68     		ldr	r2, [r1]
  60              		.loc 1 161 15 view .LVU14
  61 000c 0260     		str	r2, [r0]
 162:Drivers/STM32WBxx_HAL_Driver/Src/stm32wbxx_hal_exti.c **** 
 163:Drivers/STM32WBxx_HAL_Driver/Src/stm32wbxx_hal_exti.c ****   /* compute line register offset and line mask */
 164:Drivers/STM32WBxx_HAL_Driver/Src/stm32wbxx_hal_exti.c ****   offset = ((pExtiConfig->Line & EXTI_REG_MASK) >> EXTI_REG_SHIFT);
  62              		.loc 1 164 3 is_stmt 1 view .LVU15
  63              		.loc 1 164 10 is_stmt 0 view .LVU16
  64 000e C2F30043 		ubfx	r3, r2, #16, #1
ARM GAS  /tmp/ccYuDfzR.s 			page 5


  65              	.LVL1:
 165:Drivers/STM32WBxx_HAL_Driver/Src/stm32wbxx_hal_exti.c ****   linepos = (pExtiConfig->Line & EXTI_PIN_MASK);
  66              		.loc 1 165 3 is_stmt 1 view .LVU17
  67              		.loc 1 165 11 is_stmt 0 view .LVU18
  68 0012 02F01F04 		and	r4, r2, #31
  69              	.LVL2:
 166:Drivers/STM32WBxx_HAL_Driver/Src/stm32wbxx_hal_exti.c ****   maskline = (1uL << linepos);
  70              		.loc 1 166 3 is_stmt 1 view .LVU19
  71              		.loc 1 166 12 is_stmt 0 view .LVU20
  72 0016 0120     		movs	r0, #1
  73              	.LVL3:
  74              		.loc 1 166 12 view .LVU21
  75 0018 A040     		lsls	r0, r0, r4
  76              	.LVL4:
 167:Drivers/STM32WBxx_HAL_Driver/Src/stm32wbxx_hal_exti.c **** 
 168:Drivers/STM32WBxx_HAL_Driver/Src/stm32wbxx_hal_exti.c ****   /* Configure triggers for configurable lines */
 169:Drivers/STM32WBxx_HAL_Driver/Src/stm32wbxx_hal_exti.c ****   if ((pExtiConfig->Line & EXTI_CONFIG) != 0x00u)
  77              		.loc 1 169 3 is_stmt 1 view .LVU22
  78              		.loc 1 169 6 is_stmt 0 view .LVU23
  79 001a 12F0007F 		tst	r2, #33554432
  80 001e 1CD0     		beq	.L3
 170:Drivers/STM32WBxx_HAL_Driver/Src/stm32wbxx_hal_exti.c ****   {
 171:Drivers/STM32WBxx_HAL_Driver/Src/stm32wbxx_hal_exti.c ****     assert_param(IS_EXTI_TRIGGER(pExtiConfig->Trigger));
  81              		.loc 1 171 5 is_stmt 1 view .LVU24
 172:Drivers/STM32WBxx_HAL_Driver/Src/stm32wbxx_hal_exti.c **** 
 173:Drivers/STM32WBxx_HAL_Driver/Src/stm32wbxx_hal_exti.c ****     /* Configure rising trigger */
 174:Drivers/STM32WBxx_HAL_Driver/Src/stm32wbxx_hal_exti.c ****     regaddr = (&EXTI->RTSR1 + (EXTI_CONFIG_OFFSET * offset));
  82              		.loc 1 174 5 view .LVU25
  83              		.loc 1 174 29 is_stmt 0 view .LVU26
  84 0020 5D01     		lsls	r5, r3, #5
  85              		.loc 1 174 13 view .LVU27
  86 0022 05F1B04C 		add	ip, r5, #1476395008
  87              	.LVL5:
 175:Drivers/STM32WBxx_HAL_Driver/Src/stm32wbxx_hal_exti.c ****     regval = *regaddr;
  88              		.loc 1 175 5 is_stmt 1 view .LVU28
  89              		.loc 1 175 12 is_stmt 0 view .LVU29
  90 0026 DCF80068 		ldr	r6, [ip, #2048]
  91              	.LVL6:
 176:Drivers/STM32WBxx_HAL_Driver/Src/stm32wbxx_hal_exti.c **** 
 177:Drivers/STM32WBxx_HAL_Driver/Src/stm32wbxx_hal_exti.c ****     /* Mask or set line */
 178:Drivers/STM32WBxx_HAL_Driver/Src/stm32wbxx_hal_exti.c ****     if ((pExtiConfig->Trigger & EXTI_TRIGGER_RISING) != 0x00u)
  92              		.loc 1 178 5 is_stmt 1 view .LVU30
  93              		.loc 1 178 21 is_stmt 0 view .LVU31
  94 002a 8F68     		ldr	r7, [r1, #8]
  95              		.loc 1 178 8 view .LVU32
  96 002c 17F0010F 		tst	r7, #1
  97 0030 2DD0     		beq	.L4
 179:Drivers/STM32WBxx_HAL_Driver/Src/stm32wbxx_hal_exti.c ****     {
 180:Drivers/STM32WBxx_HAL_Driver/Src/stm32wbxx_hal_exti.c ****       regval |= maskline;
  98              		.loc 1 180 7 is_stmt 1 view .LVU33
  99              		.loc 1 180 14 is_stmt 0 view .LVU34
 100 0032 0643     		orrs	r6, r6, r0
 101              	.LVL7:
 102              	.L5:
 181:Drivers/STM32WBxx_HAL_Driver/Src/stm32wbxx_hal_exti.c ****     }
 182:Drivers/STM32WBxx_HAL_Driver/Src/stm32wbxx_hal_exti.c ****     else
 183:Drivers/STM32WBxx_HAL_Driver/Src/stm32wbxx_hal_exti.c ****     {
ARM GAS  /tmp/ccYuDfzR.s 			page 6


 184:Drivers/STM32WBxx_HAL_Driver/Src/stm32wbxx_hal_exti.c ****       regval &= ~maskline;
 185:Drivers/STM32WBxx_HAL_Driver/Src/stm32wbxx_hal_exti.c ****     }
 186:Drivers/STM32WBxx_HAL_Driver/Src/stm32wbxx_hal_exti.c **** 
 187:Drivers/STM32WBxx_HAL_Driver/Src/stm32wbxx_hal_exti.c ****     /* Store rising trigger mode */
 188:Drivers/STM32WBxx_HAL_Driver/Src/stm32wbxx_hal_exti.c ****     *regaddr = regval;
 103              		.loc 1 188 5 is_stmt 1 view .LVU35
 104              		.loc 1 188 14 is_stmt 0 view .LVU36
 105 0034 CCF80068 		str	r6, [ip, #2048]
 189:Drivers/STM32WBxx_HAL_Driver/Src/stm32wbxx_hal_exti.c **** 
 190:Drivers/STM32WBxx_HAL_Driver/Src/stm32wbxx_hal_exti.c ****     /* Configure falling trigger */
 191:Drivers/STM32WBxx_HAL_Driver/Src/stm32wbxx_hal_exti.c ****     regaddr = (&EXTI->FTSR1 + (EXTI_CONFIG_OFFSET * offset));
 106              		.loc 1 191 5 is_stmt 1 view .LVU37
 107              		.loc 1 191 13 is_stmt 0 view .LVU38
 108 0038 05F1B045 		add	r5, r5, #1476395008
 109              	.LVL8:
 192:Drivers/STM32WBxx_HAL_Driver/Src/stm32wbxx_hal_exti.c ****     regval = *regaddr;
 110              		.loc 1 192 5 is_stmt 1 view .LVU39
 111              		.loc 1 192 12 is_stmt 0 view .LVU40
 112 003c D5F80468 		ldr	r6, [r5, #2052]
 113              	.LVL9:
 193:Drivers/STM32WBxx_HAL_Driver/Src/stm32wbxx_hal_exti.c **** 
 194:Drivers/STM32WBxx_HAL_Driver/Src/stm32wbxx_hal_exti.c ****     /* Mask or set line */
 195:Drivers/STM32WBxx_HAL_Driver/Src/stm32wbxx_hal_exti.c ****     if ((pExtiConfig->Trigger & EXTI_TRIGGER_FALLING) != 0x00u)
 114              		.loc 1 195 5 is_stmt 1 view .LVU41
 115              		.loc 1 195 21 is_stmt 0 view .LVU42
 116 0040 8F68     		ldr	r7, [r1, #8]
 117              		.loc 1 195 8 view .LVU43
 118 0042 17F0020F 		tst	r7, #2
 119 0046 25D0     		beq	.L6
 196:Drivers/STM32WBxx_HAL_Driver/Src/stm32wbxx_hal_exti.c ****     {
 197:Drivers/STM32WBxx_HAL_Driver/Src/stm32wbxx_hal_exti.c ****       regval |= maskline;
 120              		.loc 1 197 7 is_stmt 1 view .LVU44
 121              		.loc 1 197 14 is_stmt 0 view .LVU45
 122 0048 0643     		orrs	r6, r6, r0
 123              	.LVL10:
 124              	.L7:
 198:Drivers/STM32WBxx_HAL_Driver/Src/stm32wbxx_hal_exti.c ****     }
 199:Drivers/STM32WBxx_HAL_Driver/Src/stm32wbxx_hal_exti.c ****     else
 200:Drivers/STM32WBxx_HAL_Driver/Src/stm32wbxx_hal_exti.c ****     {
 201:Drivers/STM32WBxx_HAL_Driver/Src/stm32wbxx_hal_exti.c ****       regval &= ~maskline;
 202:Drivers/STM32WBxx_HAL_Driver/Src/stm32wbxx_hal_exti.c ****     }
 203:Drivers/STM32WBxx_HAL_Driver/Src/stm32wbxx_hal_exti.c **** 
 204:Drivers/STM32WBxx_HAL_Driver/Src/stm32wbxx_hal_exti.c ****     /* Store falling trigger mode */
 205:Drivers/STM32WBxx_HAL_Driver/Src/stm32wbxx_hal_exti.c ****     *regaddr = regval;
 125              		.loc 1 205 5 is_stmt 1 view .LVU46
 126              		.loc 1 205 14 is_stmt 0 view .LVU47
 127 004a C5F80468 		str	r6, [r5, #2052]
 206:Drivers/STM32WBxx_HAL_Driver/Src/stm32wbxx_hal_exti.c **** 
 207:Drivers/STM32WBxx_HAL_Driver/Src/stm32wbxx_hal_exti.c ****     /* Configure gpio port selection in case of gpio exti line */
 208:Drivers/STM32WBxx_HAL_Driver/Src/stm32wbxx_hal_exti.c ****     if ((pExtiConfig->Line & EXTI_GPIO) == EXTI_GPIO)
 128              		.loc 1 208 5 is_stmt 1 view .LVU48
 129              		.loc 1 208 21 is_stmt 0 view .LVU49
 130 004e 0D68     		ldr	r5, [r1]
 131              	.LVL11:
 132              		.loc 1 208 28 view .LVU50
 133 0050 05F0C065 		and	r5, r5, #100663296
 134              		.loc 1 208 8 view .LVU51
ARM GAS  /tmp/ccYuDfzR.s 			page 7


 135 0054 B5F1C06F 		cmp	r5, #100663296
 136 0058 1FD0     		beq	.L18
 137              	.LVL12:
 138              	.L3:
 209:Drivers/STM32WBxx_HAL_Driver/Src/stm32wbxx_hal_exti.c ****     {
 210:Drivers/STM32WBxx_HAL_Driver/Src/stm32wbxx_hal_exti.c ****       assert_param(IS_EXTI_GPIO_PORT(pExtiConfig->GPIOSel));
 211:Drivers/STM32WBxx_HAL_Driver/Src/stm32wbxx_hal_exti.c ****       assert_param(IS_EXTI_GPIO_PIN(linepos));
 212:Drivers/STM32WBxx_HAL_Driver/Src/stm32wbxx_hal_exti.c **** 
 213:Drivers/STM32WBxx_HAL_Driver/Src/stm32wbxx_hal_exti.c ****       regval = SYSCFG->EXTICR[linepos >> 2u];
 214:Drivers/STM32WBxx_HAL_Driver/Src/stm32wbxx_hal_exti.c ****       regval &= ~(SYSCFG_EXTICR1_EXTI0 << (SYSCFG_EXTICR1_EXTI1_Pos * (linepos & 0x03u)));
 215:Drivers/STM32WBxx_HAL_Driver/Src/stm32wbxx_hal_exti.c ****       regval |= (pExtiConfig->GPIOSel << (SYSCFG_EXTICR1_EXTI1_Pos * (linepos & 0x03u)));
 216:Drivers/STM32WBxx_HAL_Driver/Src/stm32wbxx_hal_exti.c ****       SYSCFG->EXTICR[linepos >> 2u] = regval;
 217:Drivers/STM32WBxx_HAL_Driver/Src/stm32wbxx_hal_exti.c ****     }
 218:Drivers/STM32WBxx_HAL_Driver/Src/stm32wbxx_hal_exti.c ****   }
 219:Drivers/STM32WBxx_HAL_Driver/Src/stm32wbxx_hal_exti.c **** 
 220:Drivers/STM32WBxx_HAL_Driver/Src/stm32wbxx_hal_exti.c ****   /* Configure interrupt mode : read current mode */
 221:Drivers/STM32WBxx_HAL_Driver/Src/stm32wbxx_hal_exti.c ****   regaddr = (&EXTI->IMR1 + (EXTI_MODE_OFFSET * offset));
 139              		.loc 1 221 3 is_stmt 1 view .LVU52
 140              		.loc 1 221 26 is_stmt 0 view .LVU53
 141 005a 1B01     		lsls	r3, r3, #4
 142              	.LVL13:
 143              		.loc 1 221 11 view .LVU54
 144 005c 03F1B044 		add	r4, r3, #1476395008
 145              	.LVL14:
 222:Drivers/STM32WBxx_HAL_Driver/Src/stm32wbxx_hal_exti.c ****   regval = *regaddr;
 146              		.loc 1 222 3 is_stmt 1 view .LVU55
 147              		.loc 1 222 10 is_stmt 0 view .LVU56
 148 0060 D4F88028 		ldr	r2, [r4, #2176]
 149              	.LVL15:
 223:Drivers/STM32WBxx_HAL_Driver/Src/stm32wbxx_hal_exti.c **** 
 224:Drivers/STM32WBxx_HAL_Driver/Src/stm32wbxx_hal_exti.c ****   /* Mask or set line */
 225:Drivers/STM32WBxx_HAL_Driver/Src/stm32wbxx_hal_exti.c ****   if ((pExtiConfig->Mode & EXTI_MODE_INTERRUPT) != 0x00u)
 150              		.loc 1 225 3 is_stmt 1 view .LVU57
 151              		.loc 1 225 19 is_stmt 0 view .LVU58
 152 0064 4D68     		ldr	r5, [r1, #4]
 153              		.loc 1 225 6 view .LVU59
 154 0066 15F0010F 		tst	r5, #1
 155 006a 29D0     		beq	.L8
 226:Drivers/STM32WBxx_HAL_Driver/Src/stm32wbxx_hal_exti.c ****   {
 227:Drivers/STM32WBxx_HAL_Driver/Src/stm32wbxx_hal_exti.c ****     regval |= maskline;
 156              		.loc 1 227 5 is_stmt 1 view .LVU60
 157              		.loc 1 227 12 is_stmt 0 view .LVU61
 158 006c 0243     		orrs	r2, r2, r0
 159              	.LVL16:
 160              	.L9:
 228:Drivers/STM32WBxx_HAL_Driver/Src/stm32wbxx_hal_exti.c ****   }
 229:Drivers/STM32WBxx_HAL_Driver/Src/stm32wbxx_hal_exti.c ****   else
 230:Drivers/STM32WBxx_HAL_Driver/Src/stm32wbxx_hal_exti.c ****   {
 231:Drivers/STM32WBxx_HAL_Driver/Src/stm32wbxx_hal_exti.c ****     regval &= ~maskline;
 232:Drivers/STM32WBxx_HAL_Driver/Src/stm32wbxx_hal_exti.c ****   }
 233:Drivers/STM32WBxx_HAL_Driver/Src/stm32wbxx_hal_exti.c **** 
 234:Drivers/STM32WBxx_HAL_Driver/Src/stm32wbxx_hal_exti.c ****   /* Store interrupt mode */
 235:Drivers/STM32WBxx_HAL_Driver/Src/stm32wbxx_hal_exti.c ****   *regaddr = regval;
 161              		.loc 1 235 3 is_stmt 1 view .LVU62
 162              		.loc 1 235 12 is_stmt 0 view .LVU63
 163 006e C4F88028 		str	r2, [r4, #2176]
 236:Drivers/STM32WBxx_HAL_Driver/Src/stm32wbxx_hal_exti.c **** 
ARM GAS  /tmp/ccYuDfzR.s 			page 8


 237:Drivers/STM32WBxx_HAL_Driver/Src/stm32wbxx_hal_exti.c ****   /* The event mode cannot be configured if the line does not support it */
 238:Drivers/STM32WBxx_HAL_Driver/Src/stm32wbxx_hal_exti.c ****   assert_param(((pExtiConfig->Line & EXTI_EVENT) == EXTI_EVENT) || ((pExtiConfig->Mode & EXTI_MODE_
 164              		.loc 1 238 3 is_stmt 1 view .LVU64
 239:Drivers/STM32WBxx_HAL_Driver/Src/stm32wbxx_hal_exti.c ****   
 240:Drivers/STM32WBxx_HAL_Driver/Src/stm32wbxx_hal_exti.c ****   /* Configure event mode : read current mode */
 241:Drivers/STM32WBxx_HAL_Driver/Src/stm32wbxx_hal_exti.c ****   regaddr = (&EXTI->EMR1 + (EXTI_MODE_OFFSET * offset));
 165              		.loc 1 241 3 view .LVU65
 166              		.loc 1 241 11 is_stmt 0 view .LVU66
 167 0072 03F1B043 		add	r3, r3, #1476395008
 168              	.LVL17:
 242:Drivers/STM32WBxx_HAL_Driver/Src/stm32wbxx_hal_exti.c ****   regval = *regaddr;
 169              		.loc 1 242 3 is_stmt 1 view .LVU67
 170              		.loc 1 242 10 is_stmt 0 view .LVU68
 171 0076 D3F88428 		ldr	r2, [r3, #2180]
 172              	.LVL18:
 243:Drivers/STM32WBxx_HAL_Driver/Src/stm32wbxx_hal_exti.c **** 
 244:Drivers/STM32WBxx_HAL_Driver/Src/stm32wbxx_hal_exti.c ****   /* Mask or set line */
 245:Drivers/STM32WBxx_HAL_Driver/Src/stm32wbxx_hal_exti.c ****   if ((pExtiConfig->Mode & EXTI_MODE_EVENT) != 0x00u)
 173              		.loc 1 245 3 is_stmt 1 view .LVU69
 174              		.loc 1 245 19 is_stmt 0 view .LVU70
 175 007a 4968     		ldr	r1, [r1, #4]
 176              	.LVL19:
 177              		.loc 1 245 6 view .LVU71
 178 007c 11F0020F 		tst	r1, #2
 179 0080 21D0     		beq	.L10
 246:Drivers/STM32WBxx_HAL_Driver/Src/stm32wbxx_hal_exti.c ****   {
 247:Drivers/STM32WBxx_HAL_Driver/Src/stm32wbxx_hal_exti.c ****     regval |= maskline;
 180              		.loc 1 247 5 is_stmt 1 view .LVU72
 181              		.loc 1 247 12 is_stmt 0 view .LVU73
 182 0082 1043     		orrs	r0, r0, r2
 183              	.LVL20:
 184              	.L11:
 248:Drivers/STM32WBxx_HAL_Driver/Src/stm32wbxx_hal_exti.c ****   }
 249:Drivers/STM32WBxx_HAL_Driver/Src/stm32wbxx_hal_exti.c ****   else
 250:Drivers/STM32WBxx_HAL_Driver/Src/stm32wbxx_hal_exti.c ****   {
 251:Drivers/STM32WBxx_HAL_Driver/Src/stm32wbxx_hal_exti.c ****     regval &= ~maskline;
 252:Drivers/STM32WBxx_HAL_Driver/Src/stm32wbxx_hal_exti.c ****   }
 253:Drivers/STM32WBxx_HAL_Driver/Src/stm32wbxx_hal_exti.c **** 
 254:Drivers/STM32WBxx_HAL_Driver/Src/stm32wbxx_hal_exti.c ****   /* Store event mode */
 255:Drivers/STM32WBxx_HAL_Driver/Src/stm32wbxx_hal_exti.c ****   *regaddr = regval;
 185              		.loc 1 255 3 is_stmt 1 view .LVU74
 186              		.loc 1 255 12 is_stmt 0 view .LVU75
 187 0084 C3F88408 		str	r0, [r3, #2180]
 256:Drivers/STM32WBxx_HAL_Driver/Src/stm32wbxx_hal_exti.c **** 
 257:Drivers/STM32WBxx_HAL_Driver/Src/stm32wbxx_hal_exti.c ****   return HAL_OK;
 188              		.loc 1 257 3 is_stmt 1 view .LVU76
 189              		.loc 1 257 10 is_stmt 0 view .LVU77
 190 0088 0020     		movs	r0, #0
 191              	.LVL21:
 258:Drivers/STM32WBxx_HAL_Driver/Src/stm32wbxx_hal_exti.c **** }
 192              		.loc 1 258 1 view .LVU78
 193 008a F0BC     		pop	{r4, r5, r6, r7}
 194              	.LCFI1:
 195              		.cfi_remember_state
 196              		.cfi_restore 7
 197              		.cfi_restore 6
 198              		.cfi_restore 5
ARM GAS  /tmp/ccYuDfzR.s 			page 9


 199              		.cfi_restore 4
 200              		.cfi_def_cfa_offset 0
 201 008c 7047     		bx	lr
 202              	.LVL22:
 203              	.L4:
 204              	.LCFI2:
 205              		.cfi_restore_state
 184:Drivers/STM32WBxx_HAL_Driver/Src/stm32wbxx_hal_exti.c ****     }
 206              		.loc 1 184 7 is_stmt 1 view .LVU79
 184:Drivers/STM32WBxx_HAL_Driver/Src/stm32wbxx_hal_exti.c ****     }
 207              		.loc 1 184 14 is_stmt 0 view .LVU80
 208 008e 26EA0006 		bic	r6, r6, r0
 209              	.LVL23:
 184:Drivers/STM32WBxx_HAL_Driver/Src/stm32wbxx_hal_exti.c ****     }
 210              		.loc 1 184 14 view .LVU81
 211 0092 CFE7     		b	.L5
 212              	.LVL24:
 213              	.L6:
 201:Drivers/STM32WBxx_HAL_Driver/Src/stm32wbxx_hal_exti.c ****     }
 214              		.loc 1 201 7 is_stmt 1 view .LVU82
 201:Drivers/STM32WBxx_HAL_Driver/Src/stm32wbxx_hal_exti.c ****     }
 215              		.loc 1 201 14 is_stmt 0 view .LVU83
 216 0094 26EA0006 		bic	r6, r6, r0
 217              	.LVL25:
 201:Drivers/STM32WBxx_HAL_Driver/Src/stm32wbxx_hal_exti.c ****     }
 218              		.loc 1 201 14 view .LVU84
 219 0098 D7E7     		b	.L7
 220              	.LVL26:
 221              	.L18:
 210:Drivers/STM32WBxx_HAL_Driver/Src/stm32wbxx_hal_exti.c ****       assert_param(IS_EXTI_GPIO_PIN(linepos));
 222              		.loc 1 210 7 is_stmt 1 view .LVU85
 211:Drivers/STM32WBxx_HAL_Driver/Src/stm32wbxx_hal_exti.c **** 
 223              		.loc 1 211 7 view .LVU86
 213:Drivers/STM32WBxx_HAL_Driver/Src/stm32wbxx_hal_exti.c ****       regval &= ~(SYSCFG_EXTICR1_EXTI0 << (SYSCFG_EXTICR1_EXTI1_Pos * (linepos & 0x03u)));
 224              		.loc 1 213 7 view .LVU87
 213:Drivers/STM32WBxx_HAL_Driver/Src/stm32wbxx_hal_exti.c ****       regval &= ~(SYSCFG_EXTICR1_EXTI0 << (SYSCFG_EXTICR1_EXTI1_Pos * (linepos & 0x03u)));
 225              		.loc 1 213 39 is_stmt 0 view .LVU88
 226 009a A408     		lsrs	r4, r4, #2
 227              	.LVL27:
 213:Drivers/STM32WBxx_HAL_Driver/Src/stm32wbxx_hal_exti.c ****       regval &= ~(SYSCFG_EXTICR1_EXTI0 << (SYSCFG_EXTICR1_EXTI1_Pos * (linepos & 0x03u)));
 228              		.loc 1 213 14 view .LVU89
 229 009c 0D4F     		ldr	r7, .L19
 230 009e 0234     		adds	r4, r4, #2
 231 00a0 57F82460 		ldr	r6, [r7, r4, lsl #2]
 232              	.LVL28:
 214:Drivers/STM32WBxx_HAL_Driver/Src/stm32wbxx_hal_exti.c ****       regval |= (pExtiConfig->GPIOSel << (SYSCFG_EXTICR1_EXTI1_Pos * (linepos & 0x03u)));
 233              		.loc 1 214 7 is_stmt 1 view .LVU90
 214:Drivers/STM32WBxx_HAL_Driver/Src/stm32wbxx_hal_exti.c ****       regval |= (pExtiConfig->GPIOSel << (SYSCFG_EXTICR1_EXTI1_Pos * (linepos & 0x03u)));
 234              		.loc 1 214 80 is_stmt 0 view .LVU91
 235 00a4 02F00302 		and	r2, r2, #3
 236              	.LVL29:
 214:Drivers/STM32WBxx_HAL_Driver/Src/stm32wbxx_hal_exti.c ****       regval |= (pExtiConfig->GPIOSel << (SYSCFG_EXTICR1_EXTI1_Pos * (linepos & 0x03u)));
 237              		.loc 1 214 69 view .LVU92
 238 00a8 9200     		lsls	r2, r2, #2
 214:Drivers/STM32WBxx_HAL_Driver/Src/stm32wbxx_hal_exti.c ****       regval |= (pExtiConfig->GPIOSel << (SYSCFG_EXTICR1_EXTI1_Pos * (linepos & 0x03u)));
 239              		.loc 1 214 40 view .LVU93
 240 00aa 0725     		movs	r5, #7
ARM GAS  /tmp/ccYuDfzR.s 			page 10


 241 00ac 9540     		lsls	r5, r5, r2
 214:Drivers/STM32WBxx_HAL_Driver/Src/stm32wbxx_hal_exti.c ****       regval |= (pExtiConfig->GPIOSel << (SYSCFG_EXTICR1_EXTI1_Pos * (linepos & 0x03u)));
 242              		.loc 1 214 14 view .LVU94
 243 00ae 26EA0506 		bic	r6, r6, r5
 244              	.LVL30:
 215:Drivers/STM32WBxx_HAL_Driver/Src/stm32wbxx_hal_exti.c ****       SYSCFG->EXTICR[linepos >> 2u] = regval;
 245              		.loc 1 215 7 is_stmt 1 view .LVU95
 215:Drivers/STM32WBxx_HAL_Driver/Src/stm32wbxx_hal_exti.c ****       SYSCFG->EXTICR[linepos >> 2u] = regval;
 246              		.loc 1 215 29 is_stmt 0 view .LVU96
 247 00b2 CD68     		ldr	r5, [r1, #12]
 215:Drivers/STM32WBxx_HAL_Driver/Src/stm32wbxx_hal_exti.c ****       SYSCFG->EXTICR[linepos >> 2u] = regval;
 248              		.loc 1 215 39 view .LVU97
 249 00b4 05FA02F2 		lsl	r2, r5, r2
 215:Drivers/STM32WBxx_HAL_Driver/Src/stm32wbxx_hal_exti.c ****       SYSCFG->EXTICR[linepos >> 2u] = regval;
 250              		.loc 1 215 14 view .LVU98
 251 00b8 3243     		orrs	r2, r2, r6
 252              	.LVL31:
 216:Drivers/STM32WBxx_HAL_Driver/Src/stm32wbxx_hal_exti.c ****     }
 253              		.loc 1 216 7 is_stmt 1 view .LVU99
 216:Drivers/STM32WBxx_HAL_Driver/Src/stm32wbxx_hal_exti.c ****     }
 254              		.loc 1 216 37 is_stmt 0 view .LVU100
 255 00ba 47F82420 		str	r2, [r7, r4, lsl #2]
 256 00be CCE7     		b	.L3
 257              	.LVL32:
 258              	.L8:
 231:Drivers/STM32WBxx_HAL_Driver/Src/stm32wbxx_hal_exti.c ****   }
 259              		.loc 1 231 5 is_stmt 1 view .LVU101
 231:Drivers/STM32WBxx_HAL_Driver/Src/stm32wbxx_hal_exti.c ****   }
 260              		.loc 1 231 12 is_stmt 0 view .LVU102
 261 00c0 22EA0002 		bic	r2, r2, r0
 262              	.LVL33:
 231:Drivers/STM32WBxx_HAL_Driver/Src/stm32wbxx_hal_exti.c ****   }
 263              		.loc 1 231 12 view .LVU103
 264 00c4 D3E7     		b	.L9
 265              	.LVL34:
 266              	.L10:
 251:Drivers/STM32WBxx_HAL_Driver/Src/stm32wbxx_hal_exti.c ****   }
 267              		.loc 1 251 5 is_stmt 1 view .LVU104
 251:Drivers/STM32WBxx_HAL_Driver/Src/stm32wbxx_hal_exti.c ****   }
 268              		.loc 1 251 12 is_stmt 0 view .LVU105
 269 00c6 22EA0000 		bic	r0, r2, r0
 270              	.LVL35:
 251:Drivers/STM32WBxx_HAL_Driver/Src/stm32wbxx_hal_exti.c ****   }
 271              		.loc 1 251 12 view .LVU106
 272 00ca DBE7     		b	.L11
 273              	.LVL36:
 274              	.L12:
 275              	.LCFI3:
 276              		.cfi_def_cfa_offset 0
 277              		.cfi_restore 4
 278              		.cfi_restore 5
 279              		.cfi_restore 6
 280              		.cfi_restore 7
 153:Drivers/STM32WBxx_HAL_Driver/Src/stm32wbxx_hal_exti.c ****   }
 281              		.loc 1 153 12 view .LVU107
 282 00cc 0120     		movs	r0, #1
 283              	.LVL37:
ARM GAS  /tmp/ccYuDfzR.s 			page 11


 153:Drivers/STM32WBxx_HAL_Driver/Src/stm32wbxx_hal_exti.c ****   }
 284              		.loc 1 153 12 view .LVU108
 285 00ce 7047     		bx	lr
 286              	.LVL38:
 287              	.L13:
 153:Drivers/STM32WBxx_HAL_Driver/Src/stm32wbxx_hal_exti.c ****   }
 288              		.loc 1 153 12 view .LVU109
 289 00d0 0120     		movs	r0, #1
 290              	.LVL39:
 291              		.loc 1 258 1 view .LVU110
 292 00d2 7047     		bx	lr
 293              	.L20:
 294              		.align	2
 295              	.L19:
 296 00d4 00000140 		.word	1073807360
 297              		.cfi_endproc
 298              	.LFE943:
 300              		.section	.text.HAL_EXTI_GetConfigLine,"ax",%progbits
 301              		.align	1
 302              		.global	HAL_EXTI_GetConfigLine
 303              		.syntax unified
 304              		.thumb
 305              		.thumb_func
 306              		.fpu fpv4-sp-d16
 308              	HAL_EXTI_GetConfigLine:
 309              	.LVL40:
 310              	.LFB944:
 259:Drivers/STM32WBxx_HAL_Driver/Src/stm32wbxx_hal_exti.c **** 
 260:Drivers/STM32WBxx_HAL_Driver/Src/stm32wbxx_hal_exti.c **** 
 261:Drivers/STM32WBxx_HAL_Driver/Src/stm32wbxx_hal_exti.c **** /**
 262:Drivers/STM32WBxx_HAL_Driver/Src/stm32wbxx_hal_exti.c ****   * @brief  Get configuration of a dedicated Exti line.
 263:Drivers/STM32WBxx_HAL_Driver/Src/stm32wbxx_hal_exti.c ****   * @param  hexti Exti handle.
 264:Drivers/STM32WBxx_HAL_Driver/Src/stm32wbxx_hal_exti.c ****   * @param  pExtiConfig Pointer on structure to store Exti configuration.
 265:Drivers/STM32WBxx_HAL_Driver/Src/stm32wbxx_hal_exti.c ****   * @retval HAL Status.
 266:Drivers/STM32WBxx_HAL_Driver/Src/stm32wbxx_hal_exti.c ****   */
 267:Drivers/STM32WBxx_HAL_Driver/Src/stm32wbxx_hal_exti.c **** HAL_StatusTypeDef HAL_EXTI_GetConfigLine(EXTI_HandleTypeDef *hexti, EXTI_ConfigTypeDef *pExtiConfig
 268:Drivers/STM32WBxx_HAL_Driver/Src/stm32wbxx_hal_exti.c **** {
 311              		.loc 1 268 1 is_stmt 1 view -0
 312              		.cfi_startproc
 313              		@ args = 0, pretend = 0, frame = 0
 314              		@ frame_needed = 0, uses_anonymous_args = 0
 315              		@ link register save eliminated.
 269:Drivers/STM32WBxx_HAL_Driver/Src/stm32wbxx_hal_exti.c ****   __IO uint32_t *regaddr;
 316              		.loc 1 269 3 view .LVU112
 270:Drivers/STM32WBxx_HAL_Driver/Src/stm32wbxx_hal_exti.c ****   uint32_t regval;
 317              		.loc 1 270 3 view .LVU113
 271:Drivers/STM32WBxx_HAL_Driver/Src/stm32wbxx_hal_exti.c ****   uint32_t linepos;
 318              		.loc 1 271 3 view .LVU114
 272:Drivers/STM32WBxx_HAL_Driver/Src/stm32wbxx_hal_exti.c ****   uint32_t maskline;
 319              		.loc 1 272 3 view .LVU115
 273:Drivers/STM32WBxx_HAL_Driver/Src/stm32wbxx_hal_exti.c ****   uint32_t offset;
 320              		.loc 1 273 3 view .LVU116
 274:Drivers/STM32WBxx_HAL_Driver/Src/stm32wbxx_hal_exti.c **** 
 275:Drivers/STM32WBxx_HAL_Driver/Src/stm32wbxx_hal_exti.c ****   /* Check null pointer */
 276:Drivers/STM32WBxx_HAL_Driver/Src/stm32wbxx_hal_exti.c ****   if ((hexti == NULL) || (pExtiConfig == NULL))
 321              		.loc 1 276 3 view .LVU117
 322              		.loc 1 276 6 is_stmt 0 view .LVU118
ARM GAS  /tmp/ccYuDfzR.s 			page 12


 323 0000 0028     		cmp	r0, #0
 324 0002 4FD0     		beq	.L28
 325              		.loc 1 276 23 discriminator 1 view .LVU119
 326 0004 0029     		cmp	r1, #0
 327 0006 4FD0     		beq	.L29
 268:Drivers/STM32WBxx_HAL_Driver/Src/stm32wbxx_hal_exti.c ****   __IO uint32_t *regaddr;
 328              		.loc 1 268 1 view .LVU120
 329 0008 70B4     		push	{r4, r5, r6}
 330              	.LCFI4:
 331              		.cfi_def_cfa_offset 12
 332              		.cfi_offset 4, -12
 333              		.cfi_offset 5, -8
 334              		.cfi_offset 6, -4
 277:Drivers/STM32WBxx_HAL_Driver/Src/stm32wbxx_hal_exti.c ****   {
 278:Drivers/STM32WBxx_HAL_Driver/Src/stm32wbxx_hal_exti.c ****     return HAL_ERROR;
 279:Drivers/STM32WBxx_HAL_Driver/Src/stm32wbxx_hal_exti.c ****   }
 280:Drivers/STM32WBxx_HAL_Driver/Src/stm32wbxx_hal_exti.c **** 
 281:Drivers/STM32WBxx_HAL_Driver/Src/stm32wbxx_hal_exti.c ****   /* Check the parameter */
 282:Drivers/STM32WBxx_HAL_Driver/Src/stm32wbxx_hal_exti.c ****   assert_param(IS_EXTI_LINE(hexti->Line));
 335              		.loc 1 282 3 is_stmt 1 view .LVU121
 283:Drivers/STM32WBxx_HAL_Driver/Src/stm32wbxx_hal_exti.c **** 
 284:Drivers/STM32WBxx_HAL_Driver/Src/stm32wbxx_hal_exti.c ****   /* Store handle line number to configiguration structure */
 285:Drivers/STM32WBxx_HAL_Driver/Src/stm32wbxx_hal_exti.c ****   pExtiConfig->Line = hexti->Line;
 336              		.loc 1 285 3 view .LVU122
 337              		.loc 1 285 28 is_stmt 0 view .LVU123
 338 000a 0368     		ldr	r3, [r0]
 339              		.loc 1 285 21 view .LVU124
 340 000c 0B60     		str	r3, [r1]
 286:Drivers/STM32WBxx_HAL_Driver/Src/stm32wbxx_hal_exti.c **** 
 287:Drivers/STM32WBxx_HAL_Driver/Src/stm32wbxx_hal_exti.c ****   /* compute line register offset and line mask */
 288:Drivers/STM32WBxx_HAL_Driver/Src/stm32wbxx_hal_exti.c ****   offset = ((pExtiConfig->Line & EXTI_REG_MASK) >> EXTI_REG_SHIFT);
 341              		.loc 1 288 3 is_stmt 1 view .LVU125
 342              		.loc 1 288 10 is_stmt 0 view .LVU126
 343 000e C3F30040 		ubfx	r0, r3, #16, #1
 344              	.LVL41:
 289:Drivers/STM32WBxx_HAL_Driver/Src/stm32wbxx_hal_exti.c ****   linepos = (pExtiConfig->Line & EXTI_PIN_MASK);
 345              		.loc 1 289 3 is_stmt 1 view .LVU127
 346              		.loc 1 289 11 is_stmt 0 view .LVU128
 347 0012 03F01F05 		and	r5, r3, #31
 348              	.LVL42:
 290:Drivers/STM32WBxx_HAL_Driver/Src/stm32wbxx_hal_exti.c ****   maskline = (1uL << linepos);
 349              		.loc 1 290 3 is_stmt 1 view .LVU129
 350              		.loc 1 290 12 is_stmt 0 view .LVU130
 351 0016 0122     		movs	r2, #1
 352 0018 AA40     		lsls	r2, r2, r5
 353              	.LVL43:
 291:Drivers/STM32WBxx_HAL_Driver/Src/stm32wbxx_hal_exti.c **** 
 292:Drivers/STM32WBxx_HAL_Driver/Src/stm32wbxx_hal_exti.c ****   /* 1] Get core mode : interrupt */
 293:Drivers/STM32WBxx_HAL_Driver/Src/stm32wbxx_hal_exti.c ****   regaddr = (&EXTI->IMR1 + (EXTI_MODE_OFFSET * offset));
 354              		.loc 1 293 3 is_stmt 1 view .LVU131
 355              		.loc 1 293 26 is_stmt 0 view .LVU132
 356 001a 0401     		lsls	r4, r0, #4
 357              		.loc 1 293 11 view .LVU133
 358 001c 04F1B046 		add	r6, r4, #1476395008
 359              	.LVL44:
 294:Drivers/STM32WBxx_HAL_Driver/Src/stm32wbxx_hal_exti.c ****   regval = *regaddr;
 360              		.loc 1 294 3 is_stmt 1 view .LVU134
ARM GAS  /tmp/ccYuDfzR.s 			page 13


 361              		.loc 1 294 10 is_stmt 0 view .LVU135
 362 0020 D6F88068 		ldr	r6, [r6, #2176]
 363              	.LVL45:
 295:Drivers/STM32WBxx_HAL_Driver/Src/stm32wbxx_hal_exti.c **** 
 296:Drivers/STM32WBxx_HAL_Driver/Src/stm32wbxx_hal_exti.c ****   /* Check if selected line is enable */
 297:Drivers/STM32WBxx_HAL_Driver/Src/stm32wbxx_hal_exti.c ****   if ((regval & maskline) != 0x00u)
 364              		.loc 1 297 3 is_stmt 1 view .LVU136
 365              		.loc 1 297 6 is_stmt 0 view .LVU137
 366 0024 3242     		tst	r2, r6
 367 0026 2BD0     		beq	.L23
 298:Drivers/STM32WBxx_HAL_Driver/Src/stm32wbxx_hal_exti.c ****   {
 299:Drivers/STM32WBxx_HAL_Driver/Src/stm32wbxx_hal_exti.c ****     pExtiConfig->Mode = EXTI_MODE_INTERRUPT;
 368              		.loc 1 299 5 is_stmt 1 view .LVU138
 369              		.loc 1 299 23 is_stmt 0 view .LVU139
 370 0028 0126     		movs	r6, #1
 371              	.LVL46:
 372              		.loc 1 299 23 view .LVU140
 373 002a 4E60     		str	r6, [r1, #4]
 374              	.L24:
 300:Drivers/STM32WBxx_HAL_Driver/Src/stm32wbxx_hal_exti.c ****   }
 301:Drivers/STM32WBxx_HAL_Driver/Src/stm32wbxx_hal_exti.c ****   else
 302:Drivers/STM32WBxx_HAL_Driver/Src/stm32wbxx_hal_exti.c ****   {
 303:Drivers/STM32WBxx_HAL_Driver/Src/stm32wbxx_hal_exti.c ****     pExtiConfig->Mode = EXTI_MODE_NONE;
 304:Drivers/STM32WBxx_HAL_Driver/Src/stm32wbxx_hal_exti.c ****   }
 305:Drivers/STM32WBxx_HAL_Driver/Src/stm32wbxx_hal_exti.c **** 
 306:Drivers/STM32WBxx_HAL_Driver/Src/stm32wbxx_hal_exti.c ****   /* Get event mode */
 307:Drivers/STM32WBxx_HAL_Driver/Src/stm32wbxx_hal_exti.c ****   regaddr = (&EXTI->EMR1 + (EXTI_MODE_OFFSET * offset));
 375              		.loc 1 307 3 is_stmt 1 view .LVU141
 376              		.loc 1 307 11 is_stmt 0 view .LVU142
 377 002c 04F1B044 		add	r4, r4, #1476395008
 378              	.LVL47:
 308:Drivers/STM32WBxx_HAL_Driver/Src/stm32wbxx_hal_exti.c ****   regval = *regaddr;
 379              		.loc 1 308 3 is_stmt 1 view .LVU143
 380              		.loc 1 308 10 is_stmt 0 view .LVU144
 381 0030 D4F88448 		ldr	r4, [r4, #2180]
 382              	.LVL48:
 309:Drivers/STM32WBxx_HAL_Driver/Src/stm32wbxx_hal_exti.c **** 
 310:Drivers/STM32WBxx_HAL_Driver/Src/stm32wbxx_hal_exti.c ****   /* Check if selected line is enable */
 311:Drivers/STM32WBxx_HAL_Driver/Src/stm32wbxx_hal_exti.c ****   if ((regval & maskline) != 0x00u)
 383              		.loc 1 311 3 is_stmt 1 view .LVU145
 384              		.loc 1 311 6 is_stmt 0 view .LVU146
 385 0034 2242     		tst	r2, r4
 386 0036 03D0     		beq	.L25
 312:Drivers/STM32WBxx_HAL_Driver/Src/stm32wbxx_hal_exti.c ****   {
 313:Drivers/STM32WBxx_HAL_Driver/Src/stm32wbxx_hal_exti.c ****     pExtiConfig->Mode |= EXTI_MODE_EVENT;
 387              		.loc 1 313 5 is_stmt 1 view .LVU147
 388              		.loc 1 313 23 is_stmt 0 view .LVU148
 389 0038 4C68     		ldr	r4, [r1, #4]
 390              	.LVL49:
 391              		.loc 1 313 23 view .LVU149
 392 003a 44F00204 		orr	r4, r4, #2
 393 003e 4C60     		str	r4, [r1, #4]
 394              	.L25:
 314:Drivers/STM32WBxx_HAL_Driver/Src/stm32wbxx_hal_exti.c ****   }
 315:Drivers/STM32WBxx_HAL_Driver/Src/stm32wbxx_hal_exti.c **** 
 316:Drivers/STM32WBxx_HAL_Driver/Src/stm32wbxx_hal_exti.c ****   /* Get default Trigger and GPIOSel configuration */
 317:Drivers/STM32WBxx_HAL_Driver/Src/stm32wbxx_hal_exti.c ****   pExtiConfig->Trigger = EXTI_TRIGGER_NONE;
ARM GAS  /tmp/ccYuDfzR.s 			page 14


 395              		.loc 1 317 3 is_stmt 1 view .LVU150
 396              		.loc 1 317 24 is_stmt 0 view .LVU151
 397 0040 0024     		movs	r4, #0
 398 0042 8C60     		str	r4, [r1, #8]
 318:Drivers/STM32WBxx_HAL_Driver/Src/stm32wbxx_hal_exti.c ****   pExtiConfig->GPIOSel = 0x00u;
 399              		.loc 1 318 3 is_stmt 1 view .LVU152
 400              		.loc 1 318 24 is_stmt 0 view .LVU153
 401 0044 CC60     		str	r4, [r1, #12]
 319:Drivers/STM32WBxx_HAL_Driver/Src/stm32wbxx_hal_exti.c **** 
 320:Drivers/STM32WBxx_HAL_Driver/Src/stm32wbxx_hal_exti.c ****   /* 2] Get trigger for configurable lines : rising */
 321:Drivers/STM32WBxx_HAL_Driver/Src/stm32wbxx_hal_exti.c ****   if ((pExtiConfig->Line & EXTI_CONFIG) != 0x00u)
 402              		.loc 1 321 3 is_stmt 1 view .LVU154
 403              		.loc 1 321 6 is_stmt 0 view .LVU155
 404 0046 13F0007F 		tst	r3, #33554432
 405 004a 2FD0     		beq	.L30
 322:Drivers/STM32WBxx_HAL_Driver/Src/stm32wbxx_hal_exti.c ****   {
 323:Drivers/STM32WBxx_HAL_Driver/Src/stm32wbxx_hal_exti.c ****     regaddr = (&EXTI->RTSR1 + (EXTI_CONFIG_OFFSET * offset));
 406              		.loc 1 323 5 is_stmt 1 view .LVU156
 407              		.loc 1 323 29 is_stmt 0 view .LVU157
 408 004c 4001     		lsls	r0, r0, #5
 409              	.LVL50:
 410              		.loc 1 323 13 view .LVU158
 411 004e 00F1B044 		add	r4, r0, #1476395008
 412              	.LVL51:
 324:Drivers/STM32WBxx_HAL_Driver/Src/stm32wbxx_hal_exti.c ****     regval = *regaddr;
 413              		.loc 1 324 5 is_stmt 1 view .LVU159
 414              		.loc 1 324 12 is_stmt 0 view .LVU160
 415 0052 D4F80048 		ldr	r4, [r4, #2048]
 416              	.LVL52:
 325:Drivers/STM32WBxx_HAL_Driver/Src/stm32wbxx_hal_exti.c **** 
 326:Drivers/STM32WBxx_HAL_Driver/Src/stm32wbxx_hal_exti.c ****     /* Check if configuration of selected line is enable */
 327:Drivers/STM32WBxx_HAL_Driver/Src/stm32wbxx_hal_exti.c ****     if ((regval & maskline) != 0x00u)
 417              		.loc 1 327 5 is_stmt 1 view .LVU161
 418              		.loc 1 327 8 is_stmt 0 view .LVU162
 419 0056 2242     		tst	r2, r4
 420 0058 01D0     		beq	.L26
 328:Drivers/STM32WBxx_HAL_Driver/Src/stm32wbxx_hal_exti.c ****     {
 329:Drivers/STM32WBxx_HAL_Driver/Src/stm32wbxx_hal_exti.c ****       pExtiConfig->Trigger = EXTI_TRIGGER_RISING;
 421              		.loc 1 329 7 is_stmt 1 view .LVU163
 422              		.loc 1 329 28 is_stmt 0 view .LVU164
 423 005a 0124     		movs	r4, #1
 424              	.LVL53:
 425              		.loc 1 329 28 view .LVU165
 426 005c 8C60     		str	r4, [r1, #8]
 427              	.L26:
 330:Drivers/STM32WBxx_HAL_Driver/Src/stm32wbxx_hal_exti.c ****     }
 331:Drivers/STM32WBxx_HAL_Driver/Src/stm32wbxx_hal_exti.c **** 
 332:Drivers/STM32WBxx_HAL_Driver/Src/stm32wbxx_hal_exti.c ****     /* Get falling configuration */
 333:Drivers/STM32WBxx_HAL_Driver/Src/stm32wbxx_hal_exti.c ****     regaddr = (&EXTI->FTSR1 + (EXTI_CONFIG_OFFSET * offset));
 428              		.loc 1 333 5 is_stmt 1 view .LVU166
 429              		.loc 1 333 13 is_stmt 0 view .LVU167
 430 005e 00F1B040 		add	r0, r0, #1476395008
 431              	.LVL54:
 334:Drivers/STM32WBxx_HAL_Driver/Src/stm32wbxx_hal_exti.c ****     regval = *regaddr;
 432              		.loc 1 334 5 is_stmt 1 view .LVU168
 433              		.loc 1 334 12 is_stmt 0 view .LVU169
 434 0062 D0F80408 		ldr	r0, [r0, #2052]
ARM GAS  /tmp/ccYuDfzR.s 			page 15


 435              	.LVL55:
 335:Drivers/STM32WBxx_HAL_Driver/Src/stm32wbxx_hal_exti.c **** 
 336:Drivers/STM32WBxx_HAL_Driver/Src/stm32wbxx_hal_exti.c ****     /* Check if configuration of selected line is enable */
 337:Drivers/STM32WBxx_HAL_Driver/Src/stm32wbxx_hal_exti.c ****     if ((regval & maskline) != 0x00u)
 436              		.loc 1 337 5 is_stmt 1 view .LVU170
 437              		.loc 1 337 8 is_stmt 0 view .LVU171
 438 0066 0242     		tst	r2, r0
 439 0068 03D0     		beq	.L27
 338:Drivers/STM32WBxx_HAL_Driver/Src/stm32wbxx_hal_exti.c ****     {
 339:Drivers/STM32WBxx_HAL_Driver/Src/stm32wbxx_hal_exti.c ****       pExtiConfig->Trigger |= EXTI_TRIGGER_FALLING;
 440              		.loc 1 339 7 is_stmt 1 view .LVU172
 441              		.loc 1 339 28 is_stmt 0 view .LVU173
 442 006a 8A68     		ldr	r2, [r1, #8]
 443              	.LVL56:
 444              		.loc 1 339 28 view .LVU174
 445 006c 42F00202 		orr	r2, r2, #2
 446 0070 8A60     		str	r2, [r1, #8]
 447              	.L27:
 340:Drivers/STM32WBxx_HAL_Driver/Src/stm32wbxx_hal_exti.c ****     }
 341:Drivers/STM32WBxx_HAL_Driver/Src/stm32wbxx_hal_exti.c **** 
 342:Drivers/STM32WBxx_HAL_Driver/Src/stm32wbxx_hal_exti.c ****     /* Get Gpio port selection for gpio lines */
 343:Drivers/STM32WBxx_HAL_Driver/Src/stm32wbxx_hal_exti.c ****     if ((pExtiConfig->Line & EXTI_GPIO) == EXTI_GPIO)
 448              		.loc 1 343 5 is_stmt 1 view .LVU175
 449              		.loc 1 343 28 is_stmt 0 view .LVU176
 450 0072 03F0C063 		and	r3, r3, #100663296
 451              	.LVL57:
 452              		.loc 1 343 8 view .LVU177
 453 0076 B3F1C06F 		cmp	r3, #100663296
 454 007a 04D0     		beq	.L36
 344:Drivers/STM32WBxx_HAL_Driver/Src/stm32wbxx_hal_exti.c ****     {
 345:Drivers/STM32WBxx_HAL_Driver/Src/stm32wbxx_hal_exti.c ****       assert_param(IS_EXTI_GPIO_PIN(linepos));
 346:Drivers/STM32WBxx_HAL_Driver/Src/stm32wbxx_hal_exti.c **** 
 347:Drivers/STM32WBxx_HAL_Driver/Src/stm32wbxx_hal_exti.c ****       regval = SYSCFG->EXTICR[linepos >> 2u];
 348:Drivers/STM32WBxx_HAL_Driver/Src/stm32wbxx_hal_exti.c ****       pExtiConfig->GPIOSel = ((regval << (SYSCFG_EXTICR1_EXTI1_Pos * (3uL - (linepos & 0x03u)))) >>
 349:Drivers/STM32WBxx_HAL_Driver/Src/stm32wbxx_hal_exti.c ****     }
 350:Drivers/STM32WBxx_HAL_Driver/Src/stm32wbxx_hal_exti.c ****   }
 351:Drivers/STM32WBxx_HAL_Driver/Src/stm32wbxx_hal_exti.c **** 
 352:Drivers/STM32WBxx_HAL_Driver/Src/stm32wbxx_hal_exti.c ****   return HAL_OK;
 455              		.loc 1 352 10 view .LVU178
 456 007c 0020     		movs	r0, #0
 457              	.LVL58:
 458              		.loc 1 352 10 view .LVU179
 459 007e 16E0     		b	.L22
 460              	.LVL59:
 461              	.L23:
 303:Drivers/STM32WBxx_HAL_Driver/Src/stm32wbxx_hal_exti.c ****   }
 462              		.loc 1 303 5 is_stmt 1 view .LVU180
 303:Drivers/STM32WBxx_HAL_Driver/Src/stm32wbxx_hal_exti.c ****   }
 463              		.loc 1 303 23 is_stmt 0 view .LVU181
 464 0080 0026     		movs	r6, #0
 465              	.LVL60:
 303:Drivers/STM32WBxx_HAL_Driver/Src/stm32wbxx_hal_exti.c ****   }
 466              		.loc 1 303 23 view .LVU182
 467 0082 4E60     		str	r6, [r1, #4]
 468 0084 D2E7     		b	.L24
 469              	.LVL61:
 470              	.L36:
ARM GAS  /tmp/ccYuDfzR.s 			page 16


 345:Drivers/STM32WBxx_HAL_Driver/Src/stm32wbxx_hal_exti.c **** 
 471              		.loc 1 345 7 is_stmt 1 view .LVU183
 347:Drivers/STM32WBxx_HAL_Driver/Src/stm32wbxx_hal_exti.c ****       pExtiConfig->GPIOSel = ((regval << (SYSCFG_EXTICR1_EXTI1_Pos * (3uL - (linepos & 0x03u)))) >>
 472              		.loc 1 347 7 view .LVU184
 347:Drivers/STM32WBxx_HAL_Driver/Src/stm32wbxx_hal_exti.c ****       pExtiConfig->GPIOSel = ((regval << (SYSCFG_EXTICR1_EXTI1_Pos * (3uL - (linepos & 0x03u)))) >>
 473              		.loc 1 347 39 is_stmt 0 view .LVU185
 474 0086 AB08     		lsrs	r3, r5, #2
 347:Drivers/STM32WBxx_HAL_Driver/Src/stm32wbxx_hal_exti.c ****       pExtiConfig->GPIOSel = ((regval << (SYSCFG_EXTICR1_EXTI1_Pos * (3uL - (linepos & 0x03u)))) >>
 475              		.loc 1 347 14 view .LVU186
 476 0088 0233     		adds	r3, r3, #2
 477 008a 0A4A     		ldr	r2, .L37
 478 008c 52F82330 		ldr	r3, [r2, r3, lsl #2]
 479              	.LVL62:
 348:Drivers/STM32WBxx_HAL_Driver/Src/stm32wbxx_hal_exti.c ****     }
 480              		.loc 1 348 7 is_stmt 1 view .LVU187
 348:Drivers/STM32WBxx_HAL_Driver/Src/stm32wbxx_hal_exti.c ****     }
 481              		.loc 1 348 75 is_stmt 0 view .LVU188
 482 0090 ED43     		mvns	r5, r5
 483              	.LVL63:
 348:Drivers/STM32WBxx_HAL_Driver/Src/stm32wbxx_hal_exti.c ****     }
 484              		.loc 1 348 75 view .LVU189
 485 0092 05F00305 		and	r5, r5, #3
 486              	.LVL64:
 348:Drivers/STM32WBxx_HAL_Driver/Src/stm32wbxx_hal_exti.c ****     }
 487              		.loc 1 348 68 view .LVU190
 488 0096 AD00     		lsls	r5, r5, #2
 348:Drivers/STM32WBxx_HAL_Driver/Src/stm32wbxx_hal_exti.c ****     }
 489              		.loc 1 348 39 view .LVU191
 490 0098 03FA05F5 		lsl	r5, r3, r5
 348:Drivers/STM32WBxx_HAL_Driver/Src/stm32wbxx_hal_exti.c ****     }
 491              		.loc 1 348 98 view .LVU192
 492 009c 2D0E     		lsrs	r5, r5, #24
 348:Drivers/STM32WBxx_HAL_Driver/Src/stm32wbxx_hal_exti.c ****     }
 493              		.loc 1 348 28 view .LVU193
 494 009e CD60     		str	r5, [r1, #12]
 495              		.loc 1 352 10 view .LVU194
 496 00a0 0020     		movs	r0, #0
 497 00a2 04E0     		b	.L22
 498              	.LVL65:
 499              	.L28:
 500              	.LCFI5:
 501              		.cfi_def_cfa_offset 0
 502              		.cfi_restore 4
 503              		.cfi_restore 5
 504              		.cfi_restore 6
 278:Drivers/STM32WBxx_HAL_Driver/Src/stm32wbxx_hal_exti.c ****   }
 505              		.loc 1 278 12 view .LVU195
 506 00a4 0120     		movs	r0, #1
 507              	.LVL66:
 278:Drivers/STM32WBxx_HAL_Driver/Src/stm32wbxx_hal_exti.c ****   }
 508              		.loc 1 278 12 view .LVU196
 509 00a6 7047     		bx	lr
 510              	.LVL67:
 511              	.L29:
 278:Drivers/STM32WBxx_HAL_Driver/Src/stm32wbxx_hal_exti.c ****   }
 512              		.loc 1 278 12 view .LVU197
 513 00a8 0120     		movs	r0, #1
ARM GAS  /tmp/ccYuDfzR.s 			page 17


 514              	.LVL68:
 353:Drivers/STM32WBxx_HAL_Driver/Src/stm32wbxx_hal_exti.c **** }
 515              		.loc 1 353 1 view .LVU198
 516 00aa 7047     		bx	lr
 517              	.LVL69:
 518              	.L30:
 519              	.LCFI6:
 520              		.cfi_def_cfa_offset 12
 521              		.cfi_offset 4, -12
 522              		.cfi_offset 5, -8
 523              		.cfi_offset 6, -4
 352:Drivers/STM32WBxx_HAL_Driver/Src/stm32wbxx_hal_exti.c **** }
 524              		.loc 1 352 10 view .LVU199
 525 00ac 0020     		movs	r0, #0
 526              	.LVL70:
 527              	.L22:
 528              		.loc 1 353 1 view .LVU200
 529 00ae 70BC     		pop	{r4, r5, r6}
 530              	.LCFI7:
 531              		.cfi_restore 6
 532              		.cfi_restore 5
 533              		.cfi_restore 4
 534              		.cfi_def_cfa_offset 0
 535 00b0 7047     		bx	lr
 536              	.L38:
 537 00b2 00BF     		.align	2
 538              	.L37:
 539 00b4 00000140 		.word	1073807360
 540              		.cfi_endproc
 541              	.LFE944:
 543              		.section	.text.HAL_EXTI_ClearConfigLine,"ax",%progbits
 544              		.align	1
 545              		.global	HAL_EXTI_ClearConfigLine
 546              		.syntax unified
 547              		.thumb
 548              		.thumb_func
 549              		.fpu fpv4-sp-d16
 551              	HAL_EXTI_ClearConfigLine:
 552              	.LVL71:
 553              	.LFB945:
 354:Drivers/STM32WBxx_HAL_Driver/Src/stm32wbxx_hal_exti.c **** 
 355:Drivers/STM32WBxx_HAL_Driver/Src/stm32wbxx_hal_exti.c **** 
 356:Drivers/STM32WBxx_HAL_Driver/Src/stm32wbxx_hal_exti.c **** /**
 357:Drivers/STM32WBxx_HAL_Driver/Src/stm32wbxx_hal_exti.c ****   * @brief  Clear whole configuration of a dedicated Exti line.
 358:Drivers/STM32WBxx_HAL_Driver/Src/stm32wbxx_hal_exti.c ****   * @param  hexti Exti handle.
 359:Drivers/STM32WBxx_HAL_Driver/Src/stm32wbxx_hal_exti.c ****   * @retval HAL Status.
 360:Drivers/STM32WBxx_HAL_Driver/Src/stm32wbxx_hal_exti.c ****   */
 361:Drivers/STM32WBxx_HAL_Driver/Src/stm32wbxx_hal_exti.c **** HAL_StatusTypeDef HAL_EXTI_ClearConfigLine(EXTI_HandleTypeDef *hexti)
 362:Drivers/STM32WBxx_HAL_Driver/Src/stm32wbxx_hal_exti.c **** {
 554              		.loc 1 362 1 is_stmt 1 view -0
 555              		.cfi_startproc
 556              		@ args = 0, pretend = 0, frame = 0
 557              		@ frame_needed = 0, uses_anonymous_args = 0
 558              		@ link register save eliminated.
 363:Drivers/STM32WBxx_HAL_Driver/Src/stm32wbxx_hal_exti.c ****   __IO uint32_t *regaddr;
 559              		.loc 1 363 3 view .LVU202
 364:Drivers/STM32WBxx_HAL_Driver/Src/stm32wbxx_hal_exti.c ****   uint32_t regval;
ARM GAS  /tmp/ccYuDfzR.s 			page 18


 560              		.loc 1 364 3 view .LVU203
 365:Drivers/STM32WBxx_HAL_Driver/Src/stm32wbxx_hal_exti.c ****   uint32_t linepos;
 561              		.loc 1 365 3 view .LVU204
 366:Drivers/STM32WBxx_HAL_Driver/Src/stm32wbxx_hal_exti.c ****   uint32_t maskline;
 562              		.loc 1 366 3 view .LVU205
 367:Drivers/STM32WBxx_HAL_Driver/Src/stm32wbxx_hal_exti.c ****   uint32_t offset;
 563              		.loc 1 367 3 view .LVU206
 368:Drivers/STM32WBxx_HAL_Driver/Src/stm32wbxx_hal_exti.c **** 
 369:Drivers/STM32WBxx_HAL_Driver/Src/stm32wbxx_hal_exti.c ****   /* Check null pointer */
 370:Drivers/STM32WBxx_HAL_Driver/Src/stm32wbxx_hal_exti.c ****   if (hexti == NULL)
 564              		.loc 1 370 3 view .LVU207
 565              		.loc 1 370 6 is_stmt 0 view .LVU208
 566 0000 0028     		cmp	r0, #0
 567 0002 40D0     		beq	.L41
 362:Drivers/STM32WBxx_HAL_Driver/Src/stm32wbxx_hal_exti.c ****   __IO uint32_t *regaddr;
 568              		.loc 1 362 1 view .LVU209
 569 0004 70B4     		push	{r4, r5, r6}
 570              	.LCFI8:
 571              		.cfi_def_cfa_offset 12
 572              		.cfi_offset 4, -12
 573              		.cfi_offset 5, -8
 574              		.cfi_offset 6, -4
 575 0006 0546     		mov	r5, r0
 371:Drivers/STM32WBxx_HAL_Driver/Src/stm32wbxx_hal_exti.c ****   {
 372:Drivers/STM32WBxx_HAL_Driver/Src/stm32wbxx_hal_exti.c ****     return HAL_ERROR;
 373:Drivers/STM32WBxx_HAL_Driver/Src/stm32wbxx_hal_exti.c ****   }
 374:Drivers/STM32WBxx_HAL_Driver/Src/stm32wbxx_hal_exti.c **** 
 375:Drivers/STM32WBxx_HAL_Driver/Src/stm32wbxx_hal_exti.c ****   /* Check the parameter */
 376:Drivers/STM32WBxx_HAL_Driver/Src/stm32wbxx_hal_exti.c ****   assert_param(IS_EXTI_LINE(hexti->Line));
 576              		.loc 1 376 3 is_stmt 1 view .LVU210
 377:Drivers/STM32WBxx_HAL_Driver/Src/stm32wbxx_hal_exti.c **** 
 378:Drivers/STM32WBxx_HAL_Driver/Src/stm32wbxx_hal_exti.c ****   /* compute line register offset and line mask */
 379:Drivers/STM32WBxx_HAL_Driver/Src/stm32wbxx_hal_exti.c ****   offset = ((hexti->Line & EXTI_REG_MASK) >> EXTI_REG_SHIFT);
 577              		.loc 1 379 3 view .LVU211
 578              		.loc 1 379 19 is_stmt 0 view .LVU212
 579 0008 0468     		ldr	r4, [r0]
 580              		.loc 1 379 10 view .LVU213
 581 000a C4F30041 		ubfx	r1, r4, #16, #1
 582              	.LVL72:
 380:Drivers/STM32WBxx_HAL_Driver/Src/stm32wbxx_hal_exti.c ****   linepos = (hexti->Line & EXTI_PIN_MASK);
 583              		.loc 1 380 3 is_stmt 1 view .LVU214
 584              		.loc 1 380 11 is_stmt 0 view .LVU215
 585 000e 04F01F06 		and	r6, r4, #31
 586              	.LVL73:
 381:Drivers/STM32WBxx_HAL_Driver/Src/stm32wbxx_hal_exti.c ****   maskline = (1uL << linepos);
 587              		.loc 1 381 3 is_stmt 1 view .LVU216
 588              		.loc 1 381 12 is_stmt 0 view .LVU217
 589 0012 0123     		movs	r3, #1
 590 0014 B340     		lsls	r3, r3, r6
 591              	.LVL74:
 382:Drivers/STM32WBxx_HAL_Driver/Src/stm32wbxx_hal_exti.c **** 
 383:Drivers/STM32WBxx_HAL_Driver/Src/stm32wbxx_hal_exti.c ****   /* 1] Clear interrupt mode */
 384:Drivers/STM32WBxx_HAL_Driver/Src/stm32wbxx_hal_exti.c ****   regaddr = (&EXTI->IMR1 + (EXTI_MODE_OFFSET * offset));
 592              		.loc 1 384 3 is_stmt 1 view .LVU218
 593              		.loc 1 384 26 is_stmt 0 view .LVU219
 594 0016 0A01     		lsls	r2, r1, #4
 595              		.loc 1 384 11 view .LVU220
ARM GAS  /tmp/ccYuDfzR.s 			page 19


 596 0018 02F1B042 		add	r2, r2, #1476395008
 597              	.LVL75:
 385:Drivers/STM32WBxx_HAL_Driver/Src/stm32wbxx_hal_exti.c ****   regval = (*regaddr & ~maskline);
 598              		.loc 1 385 3 is_stmt 1 view .LVU221
 599              		.loc 1 385 13 is_stmt 0 view .LVU222
 600 001c D2F88008 		ldr	r0, [r2, #2176]
 601              	.LVL76:
 602              		.loc 1 385 24 view .LVU223
 603 0020 DB43     		mvns	r3, r3
 604              	.LVL77:
 605              		.loc 1 385 10 view .LVU224
 606 0022 1840     		ands	r0, r0, r3
 607              	.LVL78:
 386:Drivers/STM32WBxx_HAL_Driver/Src/stm32wbxx_hal_exti.c ****   *regaddr = regval;
 608              		.loc 1 386 3 is_stmt 1 view .LVU225
 609              		.loc 1 386 12 is_stmt 0 view .LVU226
 610 0024 C2F88008 		str	r0, [r2, #2176]
 387:Drivers/STM32WBxx_HAL_Driver/Src/stm32wbxx_hal_exti.c **** 
 388:Drivers/STM32WBxx_HAL_Driver/Src/stm32wbxx_hal_exti.c ****   /* 2] Clear event mode */
 389:Drivers/STM32WBxx_HAL_Driver/Src/stm32wbxx_hal_exti.c ****   regaddr = (&EXTI->EMR1 + (EXTI_MODE_OFFSET * offset));
 611              		.loc 1 389 3 is_stmt 1 view .LVU227
 612              	.LVL79:
 390:Drivers/STM32WBxx_HAL_Driver/Src/stm32wbxx_hal_exti.c ****   regval = (*regaddr & ~maskline);
 613              		.loc 1 390 3 view .LVU228
 614              		.loc 1 390 13 is_stmt 0 view .LVU229
 615 0028 D2F88408 		ldr	r0, [r2, #2180]
 616              	.LVL80:
 617              		.loc 1 390 10 view .LVU230
 618 002c 1840     		ands	r0, r0, r3
 619              	.LVL81:
 391:Drivers/STM32WBxx_HAL_Driver/Src/stm32wbxx_hal_exti.c ****   *regaddr = regval;
 620              		.loc 1 391 3 is_stmt 1 view .LVU231
 621              		.loc 1 391 12 is_stmt 0 view .LVU232
 622 002e C2F88408 		str	r0, [r2, #2180]
 392:Drivers/STM32WBxx_HAL_Driver/Src/stm32wbxx_hal_exti.c **** 
 393:Drivers/STM32WBxx_HAL_Driver/Src/stm32wbxx_hal_exti.c ****   /* 3] Clear triggers in case of configurable lines */
 394:Drivers/STM32WBxx_HAL_Driver/Src/stm32wbxx_hal_exti.c ****   if ((hexti->Line & EXTI_CONFIG) != 0x00u)
 623              		.loc 1 394 3 is_stmt 1 view .LVU233
 624              		.loc 1 394 13 is_stmt 0 view .LVU234
 625 0032 2A68     		ldr	r2, [r5]
 626              	.LVL82:
 627              		.loc 1 394 6 view .LVU235
 628 0034 12F0007F 		tst	r2, #33554432
 629 0038 27D0     		beq	.L42
 395:Drivers/STM32WBxx_HAL_Driver/Src/stm32wbxx_hal_exti.c ****   {
 396:Drivers/STM32WBxx_HAL_Driver/Src/stm32wbxx_hal_exti.c ****     regaddr = (&EXTI->RTSR1 + (EXTI_CONFIG_OFFSET * offset));
 630              		.loc 1 396 5 is_stmt 1 view .LVU236
 631              		.loc 1 396 29 is_stmt 0 view .LVU237
 632 003a 4901     		lsls	r1, r1, #5
 633              	.LVL83:
 634              		.loc 1 396 13 view .LVU238
 635 003c 01F1B041 		add	r1, r1, #1476395008
 636              	.LVL84:
 397:Drivers/STM32WBxx_HAL_Driver/Src/stm32wbxx_hal_exti.c ****     regval = (*regaddr & ~maskline);
 637              		.loc 1 397 5 is_stmt 1 view .LVU239
 638              		.loc 1 397 15 is_stmt 0 view .LVU240
 639 0040 D1F80028 		ldr	r2, [r1, #2048]
ARM GAS  /tmp/ccYuDfzR.s 			page 20


 640              		.loc 1 397 12 view .LVU241
 641 0044 1A40     		ands	r2, r2, r3
 642              	.LVL85:
 398:Drivers/STM32WBxx_HAL_Driver/Src/stm32wbxx_hal_exti.c ****     *regaddr = regval;
 643              		.loc 1 398 5 is_stmt 1 view .LVU242
 644              		.loc 1 398 14 is_stmt 0 view .LVU243
 645 0046 C1F80028 		str	r2, [r1, #2048]
 399:Drivers/STM32WBxx_HAL_Driver/Src/stm32wbxx_hal_exti.c **** 
 400:Drivers/STM32WBxx_HAL_Driver/Src/stm32wbxx_hal_exti.c ****     regaddr = (&EXTI->FTSR1 + (EXTI_CONFIG_OFFSET * offset));
 646              		.loc 1 400 5 is_stmt 1 view .LVU244
 647              	.LVL86:
 401:Drivers/STM32WBxx_HAL_Driver/Src/stm32wbxx_hal_exti.c ****     regval = (*regaddr & ~maskline);
 648              		.loc 1 401 5 view .LVU245
 649              		.loc 1 401 15 is_stmt 0 view .LVU246
 650 004a D1F80428 		ldr	r2, [r1, #2052]
 651              	.LVL87:
 652              		.loc 1 401 12 view .LVU247
 653 004e 1340     		ands	r3, r3, r2
 654              	.LVL88:
 402:Drivers/STM32WBxx_HAL_Driver/Src/stm32wbxx_hal_exti.c ****     *regaddr = regval;
 655              		.loc 1 402 5 is_stmt 1 view .LVU248
 656              		.loc 1 402 14 is_stmt 0 view .LVU249
 657 0050 C1F80438 		str	r3, [r1, #2052]
 403:Drivers/STM32WBxx_HAL_Driver/Src/stm32wbxx_hal_exti.c **** 
 404:Drivers/STM32WBxx_HAL_Driver/Src/stm32wbxx_hal_exti.c ****     /* Get Gpio port selection for gpio lines */
 405:Drivers/STM32WBxx_HAL_Driver/Src/stm32wbxx_hal_exti.c ****     if ((hexti->Line & EXTI_GPIO) == EXTI_GPIO)
 658              		.loc 1 405 5 is_stmt 1 view .LVU250
 659              		.loc 1 405 15 is_stmt 0 view .LVU251
 660 0054 2B68     		ldr	r3, [r5]
 661              	.LVL89:
 662              		.loc 1 405 22 view .LVU252
 663 0056 03F0C063 		and	r3, r3, #100663296
 664              		.loc 1 405 8 view .LVU253
 665 005a B3F1C06F 		cmp	r3, #100663296
 666 005e 01D0     		beq	.L48
 406:Drivers/STM32WBxx_HAL_Driver/Src/stm32wbxx_hal_exti.c ****     {
 407:Drivers/STM32WBxx_HAL_Driver/Src/stm32wbxx_hal_exti.c ****       assert_param(IS_EXTI_GPIO_PIN(linepos));
 408:Drivers/STM32WBxx_HAL_Driver/Src/stm32wbxx_hal_exti.c **** 
 409:Drivers/STM32WBxx_HAL_Driver/Src/stm32wbxx_hal_exti.c ****       regval = SYSCFG->EXTICR[linepos >> 2u];
 410:Drivers/STM32WBxx_HAL_Driver/Src/stm32wbxx_hal_exti.c ****       regval &= ~(SYSCFG_EXTICR1_EXTI0 << (SYSCFG_EXTICR1_EXTI1_Pos * (linepos & 0x03u)));
 411:Drivers/STM32WBxx_HAL_Driver/Src/stm32wbxx_hal_exti.c ****       SYSCFG->EXTICR[linepos >> 2u] = regval;
 412:Drivers/STM32WBxx_HAL_Driver/Src/stm32wbxx_hal_exti.c ****     }
 413:Drivers/STM32WBxx_HAL_Driver/Src/stm32wbxx_hal_exti.c ****   }
 414:Drivers/STM32WBxx_HAL_Driver/Src/stm32wbxx_hal_exti.c **** 
 415:Drivers/STM32WBxx_HAL_Driver/Src/stm32wbxx_hal_exti.c ****   return HAL_OK;
 667              		.loc 1 415 10 view .LVU254
 668 0060 0020     		movs	r0, #0
 669 0062 13E0     		b	.L40
 670              	.L48:
 407:Drivers/STM32WBxx_HAL_Driver/Src/stm32wbxx_hal_exti.c **** 
 671              		.loc 1 407 7 is_stmt 1 view .LVU255
 409:Drivers/STM32WBxx_HAL_Driver/Src/stm32wbxx_hal_exti.c ****       regval &= ~(SYSCFG_EXTICR1_EXTI0 << (SYSCFG_EXTICR1_EXTI1_Pos * (linepos & 0x03u)));
 672              		.loc 1 409 7 view .LVU256
 409:Drivers/STM32WBxx_HAL_Driver/Src/stm32wbxx_hal_exti.c ****       regval &= ~(SYSCFG_EXTICR1_EXTI0 << (SYSCFG_EXTICR1_EXTI1_Pos * (linepos & 0x03u)));
 673              		.loc 1 409 39 is_stmt 0 view .LVU257
 674 0064 B608     		lsrs	r6, r6, #2
 675              	.LVL90:
ARM GAS  /tmp/ccYuDfzR.s 			page 21


 409:Drivers/STM32WBxx_HAL_Driver/Src/stm32wbxx_hal_exti.c ****       regval &= ~(SYSCFG_EXTICR1_EXTI0 << (SYSCFG_EXTICR1_EXTI1_Pos * (linepos & 0x03u)));
 676              		.loc 1 409 14 view .LVU258
 677 0066 0A49     		ldr	r1, .L49
 678              	.LVL91:
 409:Drivers/STM32WBxx_HAL_Driver/Src/stm32wbxx_hal_exti.c ****       regval &= ~(SYSCFG_EXTICR1_EXTI0 << (SYSCFG_EXTICR1_EXTI1_Pos * (linepos & 0x03u)));
 679              		.loc 1 409 14 view .LVU259
 680 0068 0236     		adds	r6, r6, #2
 681 006a 51F82630 		ldr	r3, [r1, r6, lsl #2]
 682              	.LVL92:
 410:Drivers/STM32WBxx_HAL_Driver/Src/stm32wbxx_hal_exti.c ****       SYSCFG->EXTICR[linepos >> 2u] = regval;
 683              		.loc 1 410 7 is_stmt 1 view .LVU260
 410:Drivers/STM32WBxx_HAL_Driver/Src/stm32wbxx_hal_exti.c ****       SYSCFG->EXTICR[linepos >> 2u] = regval;
 684              		.loc 1 410 80 is_stmt 0 view .LVU261
 685 006e 04F00304 		and	r4, r4, #3
 686              	.LVL93:
 410:Drivers/STM32WBxx_HAL_Driver/Src/stm32wbxx_hal_exti.c ****       SYSCFG->EXTICR[linepos >> 2u] = regval;
 687              		.loc 1 410 69 view .LVU262
 688 0072 A400     		lsls	r4, r4, #2
 410:Drivers/STM32WBxx_HAL_Driver/Src/stm32wbxx_hal_exti.c ****       SYSCFG->EXTICR[linepos >> 2u] = regval;
 689              		.loc 1 410 40 view .LVU263
 690 0074 0722     		movs	r2, #7
 691 0076 02FA04F4 		lsl	r4, r2, r4
 410:Drivers/STM32WBxx_HAL_Driver/Src/stm32wbxx_hal_exti.c ****       SYSCFG->EXTICR[linepos >> 2u] = regval;
 692              		.loc 1 410 14 view .LVU264
 693 007a 23EA0404 		bic	r4, r3, r4
 694              	.LVL94:
 411:Drivers/STM32WBxx_HAL_Driver/Src/stm32wbxx_hal_exti.c ****     }
 695              		.loc 1 411 7 is_stmt 1 view .LVU265
 411:Drivers/STM32WBxx_HAL_Driver/Src/stm32wbxx_hal_exti.c ****     }
 696              		.loc 1 411 37 is_stmt 0 view .LVU266
 697 007e 41F82640 		str	r4, [r1, r6, lsl #2]
 698              		.loc 1 415 10 view .LVU267
 699 0082 0020     		movs	r0, #0
 700 0084 02E0     		b	.L40
 701              	.LVL95:
 702              	.L41:
 703              	.LCFI9:
 704              		.cfi_def_cfa_offset 0
 705              		.cfi_restore 4
 706              		.cfi_restore 5
 707              		.cfi_restore 6
 372:Drivers/STM32WBxx_HAL_Driver/Src/stm32wbxx_hal_exti.c ****   }
 708              		.loc 1 372 12 view .LVU268
 709 0086 0120     		movs	r0, #1
 710              	.LVL96:
 416:Drivers/STM32WBxx_HAL_Driver/Src/stm32wbxx_hal_exti.c **** }
 711              		.loc 1 416 1 view .LVU269
 712 0088 7047     		bx	lr
 713              	.LVL97:
 714              	.L42:
 715              	.LCFI10:
 716              		.cfi_def_cfa_offset 12
 717              		.cfi_offset 4, -12
 718              		.cfi_offset 5, -8
 719              		.cfi_offset 6, -4
 415:Drivers/STM32WBxx_HAL_Driver/Src/stm32wbxx_hal_exti.c **** }
 720              		.loc 1 415 10 view .LVU270
ARM GAS  /tmp/ccYuDfzR.s 			page 22


 721 008a 0020     		movs	r0, #0
 722              	.LVL98:
 723              	.L40:
 724              		.loc 1 416 1 view .LVU271
 725 008c 70BC     		pop	{r4, r5, r6}
 726              	.LCFI11:
 727              		.cfi_restore 6
 728              		.cfi_restore 5
 729              		.cfi_restore 4
 730              		.cfi_def_cfa_offset 0
 731              	.LVL99:
 732              		.loc 1 416 1 view .LVU272
 733 008e 7047     		bx	lr
 734              	.L50:
 735              		.align	2
 736              	.L49:
 737 0090 00000140 		.word	1073807360
 738              		.cfi_endproc
 739              	.LFE945:
 741              		.section	.text.HAL_EXTI_RegisterCallback,"ax",%progbits
 742              		.align	1
 743              		.global	HAL_EXTI_RegisterCallback
 744              		.syntax unified
 745              		.thumb
 746              		.thumb_func
 747              		.fpu fpv4-sp-d16
 749              	HAL_EXTI_RegisterCallback:
 750              	.LVL100:
 751              	.LFB946:
 417:Drivers/STM32WBxx_HAL_Driver/Src/stm32wbxx_hal_exti.c **** 
 418:Drivers/STM32WBxx_HAL_Driver/Src/stm32wbxx_hal_exti.c **** 
 419:Drivers/STM32WBxx_HAL_Driver/Src/stm32wbxx_hal_exti.c **** /**
 420:Drivers/STM32WBxx_HAL_Driver/Src/stm32wbxx_hal_exti.c ****   * @brief  Register callback for a dedicaated Exti line.
 421:Drivers/STM32WBxx_HAL_Driver/Src/stm32wbxx_hal_exti.c ****   * @param  hexti Exti handle.
 422:Drivers/STM32WBxx_HAL_Driver/Src/stm32wbxx_hal_exti.c ****   * @param  CallbackID User callback identifier.
 423:Drivers/STM32WBxx_HAL_Driver/Src/stm32wbxx_hal_exti.c ****   *         This parameter can be one of @arg @ref EXTI_CallbackIDTypeDef values.
 424:Drivers/STM32WBxx_HAL_Driver/Src/stm32wbxx_hal_exti.c ****   * @param  pPendingCbfn function pointer to be stored as callback.
 425:Drivers/STM32WBxx_HAL_Driver/Src/stm32wbxx_hal_exti.c ****   * @retval HAL Status.
 426:Drivers/STM32WBxx_HAL_Driver/Src/stm32wbxx_hal_exti.c ****   */
 427:Drivers/STM32WBxx_HAL_Driver/Src/stm32wbxx_hal_exti.c **** HAL_StatusTypeDef HAL_EXTI_RegisterCallback(EXTI_HandleTypeDef *hexti, EXTI_CallbackIDTypeDef Callb
 428:Drivers/STM32WBxx_HAL_Driver/Src/stm32wbxx_hal_exti.c **** {
 752              		.loc 1 428 1 is_stmt 1 view -0
 753              		.cfi_startproc
 754              		@ args = 0, pretend = 0, frame = 0
 755              		@ frame_needed = 0, uses_anonymous_args = 0
 756              		@ link register save eliminated.
 429:Drivers/STM32WBxx_HAL_Driver/Src/stm32wbxx_hal_exti.c ****   HAL_StatusTypeDef status = HAL_OK;
 757              		.loc 1 429 3 view .LVU274
 430:Drivers/STM32WBxx_HAL_Driver/Src/stm32wbxx_hal_exti.c **** 
 431:Drivers/STM32WBxx_HAL_Driver/Src/stm32wbxx_hal_exti.c ****   switch (CallbackID)
 758              		.loc 1 431 3 view .LVU275
 759 0000 11B9     		cbnz	r1, .L53
 432:Drivers/STM32WBxx_HAL_Driver/Src/stm32wbxx_hal_exti.c ****   {
 433:Drivers/STM32WBxx_HAL_Driver/Src/stm32wbxx_hal_exti.c ****     case  HAL_EXTI_COMMON_CB_ID:
 434:Drivers/STM32WBxx_HAL_Driver/Src/stm32wbxx_hal_exti.c ****       hexti->PendingCallback = pPendingCbfn;
 760              		.loc 1 434 7 view .LVU276
 761              		.loc 1 434 30 is_stmt 0 view .LVU277
ARM GAS  /tmp/ccYuDfzR.s 			page 23


 762 0002 4260     		str	r2, [r0, #4]
 435:Drivers/STM32WBxx_HAL_Driver/Src/stm32wbxx_hal_exti.c ****       break;
 763              		.loc 1 435 7 is_stmt 1 view .LVU278
 429:Drivers/STM32WBxx_HAL_Driver/Src/stm32wbxx_hal_exti.c **** 
 764              		.loc 1 429 21 is_stmt 0 view .LVU279
 765 0004 0846     		mov	r0, r1
 766              	.LVL101:
 767              		.loc 1 435 7 view .LVU280
 768 0006 7047     		bx	lr
 769              	.LVL102:
 770              	.L53:
 436:Drivers/STM32WBxx_HAL_Driver/Src/stm32wbxx_hal_exti.c **** 
 437:Drivers/STM32WBxx_HAL_Driver/Src/stm32wbxx_hal_exti.c ****     default:
 438:Drivers/STM32WBxx_HAL_Driver/Src/stm32wbxx_hal_exti.c ****       status = HAL_ERROR;
 771              		.loc 1 438 14 view .LVU281
 772 0008 0120     		movs	r0, #1
 773              	.LVL103:
 439:Drivers/STM32WBxx_HAL_Driver/Src/stm32wbxx_hal_exti.c ****       break;
 440:Drivers/STM32WBxx_HAL_Driver/Src/stm32wbxx_hal_exti.c ****   }
 441:Drivers/STM32WBxx_HAL_Driver/Src/stm32wbxx_hal_exti.c **** 
 442:Drivers/STM32WBxx_HAL_Driver/Src/stm32wbxx_hal_exti.c ****   return status;
 774              		.loc 1 442 3 is_stmt 1 view .LVU282
 443:Drivers/STM32WBxx_HAL_Driver/Src/stm32wbxx_hal_exti.c **** }
 775              		.loc 1 443 1 is_stmt 0 view .LVU283
 776 000a 7047     		bx	lr
 777              		.cfi_endproc
 778              	.LFE946:
 780              		.section	.text.HAL_EXTI_GetHandle,"ax",%progbits
 781              		.align	1
 782              		.global	HAL_EXTI_GetHandle
 783              		.syntax unified
 784              		.thumb
 785              		.thumb_func
 786              		.fpu fpv4-sp-d16
 788              	HAL_EXTI_GetHandle:
 789              	.LVL104:
 790              	.LFB947:
 444:Drivers/STM32WBxx_HAL_Driver/Src/stm32wbxx_hal_exti.c **** 
 445:Drivers/STM32WBxx_HAL_Driver/Src/stm32wbxx_hal_exti.c **** 
 446:Drivers/STM32WBxx_HAL_Driver/Src/stm32wbxx_hal_exti.c **** /**
 447:Drivers/STM32WBxx_HAL_Driver/Src/stm32wbxx_hal_exti.c ****   * @brief  Store line number as handle private field.
 448:Drivers/STM32WBxx_HAL_Driver/Src/stm32wbxx_hal_exti.c ****   * @param  hexti Exti handle.
 449:Drivers/STM32WBxx_HAL_Driver/Src/stm32wbxx_hal_exti.c ****   * @param  ExtiLine Exti line number.
 450:Drivers/STM32WBxx_HAL_Driver/Src/stm32wbxx_hal_exti.c ****   *         This parameter can be from 0 to @ref EXTI_LINE_NB.
 451:Drivers/STM32WBxx_HAL_Driver/Src/stm32wbxx_hal_exti.c ****   * @retval HAL Status.
 452:Drivers/STM32WBxx_HAL_Driver/Src/stm32wbxx_hal_exti.c ****   */
 453:Drivers/STM32WBxx_HAL_Driver/Src/stm32wbxx_hal_exti.c **** HAL_StatusTypeDef HAL_EXTI_GetHandle(EXTI_HandleTypeDef *hexti, uint32_t ExtiLine)
 454:Drivers/STM32WBxx_HAL_Driver/Src/stm32wbxx_hal_exti.c **** {
 791              		.loc 1 454 1 is_stmt 1 view -0
 792              		.cfi_startproc
 793              		@ args = 0, pretend = 0, frame = 0
 794              		@ frame_needed = 0, uses_anonymous_args = 0
 795              		@ link register save eliminated.
 455:Drivers/STM32WBxx_HAL_Driver/Src/stm32wbxx_hal_exti.c ****   /* Check the parameters */
 456:Drivers/STM32WBxx_HAL_Driver/Src/stm32wbxx_hal_exti.c ****   assert_param(IS_EXTI_LINE(ExtiLine));
 796              		.loc 1 456 3 view .LVU285
 457:Drivers/STM32WBxx_HAL_Driver/Src/stm32wbxx_hal_exti.c **** 
ARM GAS  /tmp/ccYuDfzR.s 			page 24


 458:Drivers/STM32WBxx_HAL_Driver/Src/stm32wbxx_hal_exti.c ****   /* Check null pointer */
 459:Drivers/STM32WBxx_HAL_Driver/Src/stm32wbxx_hal_exti.c ****   if (hexti == NULL)
 797              		.loc 1 459 3 view .LVU286
 798              		.loc 1 459 6 is_stmt 0 view .LVU287
 799 0000 10B1     		cbz	r0, .L56
 460:Drivers/STM32WBxx_HAL_Driver/Src/stm32wbxx_hal_exti.c ****   {
 461:Drivers/STM32WBxx_HAL_Driver/Src/stm32wbxx_hal_exti.c ****     return HAL_ERROR;
 462:Drivers/STM32WBxx_HAL_Driver/Src/stm32wbxx_hal_exti.c ****   }
 463:Drivers/STM32WBxx_HAL_Driver/Src/stm32wbxx_hal_exti.c ****   else
 464:Drivers/STM32WBxx_HAL_Driver/Src/stm32wbxx_hal_exti.c ****   {
 465:Drivers/STM32WBxx_HAL_Driver/Src/stm32wbxx_hal_exti.c ****     /* Store line number as handle private field */
 466:Drivers/STM32WBxx_HAL_Driver/Src/stm32wbxx_hal_exti.c ****     hexti->Line = ExtiLine;
 800              		.loc 1 466 5 is_stmt 1 view .LVU288
 801              		.loc 1 466 17 is_stmt 0 view .LVU289
 802 0002 0160     		str	r1, [r0]
 467:Drivers/STM32WBxx_HAL_Driver/Src/stm32wbxx_hal_exti.c **** 
 468:Drivers/STM32WBxx_HAL_Driver/Src/stm32wbxx_hal_exti.c ****     return HAL_OK;
 803              		.loc 1 468 5 is_stmt 1 view .LVU290
 804              		.loc 1 468 12 is_stmt 0 view .LVU291
 805 0004 0020     		movs	r0, #0
 806              	.LVL105:
 807              		.loc 1 468 12 view .LVU292
 808 0006 7047     		bx	lr
 809              	.LVL106:
 810              	.L56:
 461:Drivers/STM32WBxx_HAL_Driver/Src/stm32wbxx_hal_exti.c ****   }
 811              		.loc 1 461 12 view .LVU293
 812 0008 0120     		movs	r0, #1
 813              	.LVL107:
 469:Drivers/STM32WBxx_HAL_Driver/Src/stm32wbxx_hal_exti.c ****   }
 470:Drivers/STM32WBxx_HAL_Driver/Src/stm32wbxx_hal_exti.c **** }
 814              		.loc 1 470 1 view .LVU294
 815 000a 7047     		bx	lr
 816              		.cfi_endproc
 817              	.LFE947:
 819              		.section	.text.HAL_EXTI_IRQHandler,"ax",%progbits
 820              		.align	1
 821              		.global	HAL_EXTI_IRQHandler
 822              		.syntax unified
 823              		.thumb
 824              		.thumb_func
 825              		.fpu fpv4-sp-d16
 827              	HAL_EXTI_IRQHandler:
 828              	.LVL108:
 829              	.LFB948:
 471:Drivers/STM32WBxx_HAL_Driver/Src/stm32wbxx_hal_exti.c **** 
 472:Drivers/STM32WBxx_HAL_Driver/Src/stm32wbxx_hal_exti.c **** 
 473:Drivers/STM32WBxx_HAL_Driver/Src/stm32wbxx_hal_exti.c **** /**
 474:Drivers/STM32WBxx_HAL_Driver/Src/stm32wbxx_hal_exti.c ****   * @}
 475:Drivers/STM32WBxx_HAL_Driver/Src/stm32wbxx_hal_exti.c ****   */
 476:Drivers/STM32WBxx_HAL_Driver/Src/stm32wbxx_hal_exti.c **** 
 477:Drivers/STM32WBxx_HAL_Driver/Src/stm32wbxx_hal_exti.c **** /** @addtogroup EXTI_Exported_Functions_Group2
 478:Drivers/STM32WBxx_HAL_Driver/Src/stm32wbxx_hal_exti.c ****  *  @brief EXTI IO functions.
 479:Drivers/STM32WBxx_HAL_Driver/Src/stm32wbxx_hal_exti.c ****  *
 480:Drivers/STM32WBxx_HAL_Driver/Src/stm32wbxx_hal_exti.c **** @verbatim
 481:Drivers/STM32WBxx_HAL_Driver/Src/stm32wbxx_hal_exti.c ****  ===============================================================================
 482:Drivers/STM32WBxx_HAL_Driver/Src/stm32wbxx_hal_exti.c ****                        ##### IO operation functions #####
ARM GAS  /tmp/ccYuDfzR.s 			page 25


 483:Drivers/STM32WBxx_HAL_Driver/Src/stm32wbxx_hal_exti.c ****  ===============================================================================
 484:Drivers/STM32WBxx_HAL_Driver/Src/stm32wbxx_hal_exti.c **** 
 485:Drivers/STM32WBxx_HAL_Driver/Src/stm32wbxx_hal_exti.c **** @endverbatim
 486:Drivers/STM32WBxx_HAL_Driver/Src/stm32wbxx_hal_exti.c ****   * @{
 487:Drivers/STM32WBxx_HAL_Driver/Src/stm32wbxx_hal_exti.c ****   */
 488:Drivers/STM32WBxx_HAL_Driver/Src/stm32wbxx_hal_exti.c **** 
 489:Drivers/STM32WBxx_HAL_Driver/Src/stm32wbxx_hal_exti.c **** /**
 490:Drivers/STM32WBxx_HAL_Driver/Src/stm32wbxx_hal_exti.c ****   * @brief  Handle EXTI interrupt request.
 491:Drivers/STM32WBxx_HAL_Driver/Src/stm32wbxx_hal_exti.c ****   * @param  hexti Exti handle.
 492:Drivers/STM32WBxx_HAL_Driver/Src/stm32wbxx_hal_exti.c ****   * @retval none.
 493:Drivers/STM32WBxx_HAL_Driver/Src/stm32wbxx_hal_exti.c ****   */
 494:Drivers/STM32WBxx_HAL_Driver/Src/stm32wbxx_hal_exti.c **** void HAL_EXTI_IRQHandler(EXTI_HandleTypeDef *hexti)
 495:Drivers/STM32WBxx_HAL_Driver/Src/stm32wbxx_hal_exti.c **** {
 830              		.loc 1 495 1 is_stmt 1 view -0
 831              		.cfi_startproc
 832              		@ args = 0, pretend = 0, frame = 0
 833              		@ frame_needed = 0, uses_anonymous_args = 0
 834              		.loc 1 495 1 is_stmt 0 view .LVU296
 835 0000 08B5     		push	{r3, lr}
 836              	.LCFI12:
 837              		.cfi_def_cfa_offset 8
 838              		.cfi_offset 3, -8
 839              		.cfi_offset 14, -4
 496:Drivers/STM32WBxx_HAL_Driver/Src/stm32wbxx_hal_exti.c ****   __IO uint32_t *regaddr;
 840              		.loc 1 496 3 is_stmt 1 view .LVU297
 497:Drivers/STM32WBxx_HAL_Driver/Src/stm32wbxx_hal_exti.c ****   uint32_t regval;
 841              		.loc 1 497 3 view .LVU298
 498:Drivers/STM32WBxx_HAL_Driver/Src/stm32wbxx_hal_exti.c ****   uint32_t maskline;
 842              		.loc 1 498 3 view .LVU299
 499:Drivers/STM32WBxx_HAL_Driver/Src/stm32wbxx_hal_exti.c ****   uint32_t offset;
 843              		.loc 1 499 3 view .LVU300
 500:Drivers/STM32WBxx_HAL_Driver/Src/stm32wbxx_hal_exti.c **** 
 501:Drivers/STM32WBxx_HAL_Driver/Src/stm32wbxx_hal_exti.c ****   /* Compute line register offset and line mask */
 502:Drivers/STM32WBxx_HAL_Driver/Src/stm32wbxx_hal_exti.c ****   offset = ((hexti->Line & EXTI_REG_MASK) >> EXTI_REG_SHIFT);
 844              		.loc 1 502 3 view .LVU301
 845              		.loc 1 502 19 is_stmt 0 view .LVU302
 846 0002 0268     		ldr	r2, [r0]
 847              		.loc 1 502 10 view .LVU303
 848 0004 C2F30043 		ubfx	r3, r2, #16, #1
 849              	.LVL109:
 503:Drivers/STM32WBxx_HAL_Driver/Src/stm32wbxx_hal_exti.c ****   maskline = (1uL << (hexti->Line & EXTI_PIN_MASK));
 850              		.loc 1 503 3 is_stmt 1 view .LVU304
 851              		.loc 1 503 35 is_stmt 0 view .LVU305
 852 0008 02F01F02 		and	r2, r2, #31
 853              		.loc 1 503 12 view .LVU306
 854 000c 0121     		movs	r1, #1
 855 000e 01FA02F2 		lsl	r2, r1, r2
 856              	.LVL110:
 504:Drivers/STM32WBxx_HAL_Driver/Src/stm32wbxx_hal_exti.c **** 
 505:Drivers/STM32WBxx_HAL_Driver/Src/stm32wbxx_hal_exti.c ****   /* Get pending bit  */
 506:Drivers/STM32WBxx_HAL_Driver/Src/stm32wbxx_hal_exti.c ****   regaddr = (&EXTI->PR1 + (EXTI_CONFIG_OFFSET * offset));
 857              		.loc 1 506 3 is_stmt 1 view .LVU307
 858              		.loc 1 506 25 is_stmt 0 view .LVU308
 859 0012 5B01     		lsls	r3, r3, #5
 860              	.LVL111:
 861              		.loc 1 506 11 view .LVU309
 862 0014 03F1B043 		add	r3, r3, #1476395008
ARM GAS  /tmp/ccYuDfzR.s 			page 26


 863              	.LVL112:
 507:Drivers/STM32WBxx_HAL_Driver/Src/stm32wbxx_hal_exti.c ****   regval = (*regaddr & maskline);
 864              		.loc 1 507 3 is_stmt 1 view .LVU310
 865              		.loc 1 507 13 is_stmt 0 view .LVU311
 866 0018 D3F80C18 		ldr	r1, [r3, #2060]
 867              	.LVL113:
 508:Drivers/STM32WBxx_HAL_Driver/Src/stm32wbxx_hal_exti.c **** 
 509:Drivers/STM32WBxx_HAL_Driver/Src/stm32wbxx_hal_exti.c ****   if (regval != 0x00u)
 868              		.loc 1 509 3 is_stmt 1 view .LVU312
 869              		.loc 1 509 6 is_stmt 0 view .LVU313
 870 001c 1142     		tst	r1, r2
 871 001e 04D0     		beq	.L57
 510:Drivers/STM32WBxx_HAL_Driver/Src/stm32wbxx_hal_exti.c ****   {
 511:Drivers/STM32WBxx_HAL_Driver/Src/stm32wbxx_hal_exti.c ****     /* Clear pending bit */
 512:Drivers/STM32WBxx_HAL_Driver/Src/stm32wbxx_hal_exti.c ****     *regaddr = maskline;
 872              		.loc 1 512 5 is_stmt 1 view .LVU314
 873              		.loc 1 512 14 is_stmt 0 view .LVU315
 874 0020 C3F80C28 		str	r2, [r3, #2060]
 875              	.LVL114:
 513:Drivers/STM32WBxx_HAL_Driver/Src/stm32wbxx_hal_exti.c **** 
 514:Drivers/STM32WBxx_HAL_Driver/Src/stm32wbxx_hal_exti.c ****     /* Call callback */
 515:Drivers/STM32WBxx_HAL_Driver/Src/stm32wbxx_hal_exti.c ****     if (hexti->PendingCallback != NULL)
 876              		.loc 1 515 5 is_stmt 1 view .LVU316
 877              		.loc 1 515 14 is_stmt 0 view .LVU317
 878 0024 4368     		ldr	r3, [r0, #4]
 879              	.LVL115:
 880              		.loc 1 515 8 view .LVU318
 881 0026 03B1     		cbz	r3, .L57
 516:Drivers/STM32WBxx_HAL_Driver/Src/stm32wbxx_hal_exti.c ****     {
 517:Drivers/STM32WBxx_HAL_Driver/Src/stm32wbxx_hal_exti.c ****       hexti->PendingCallback();
 882              		.loc 1 517 7 is_stmt 1 view .LVU319
 883 0028 9847     		blx	r3
 884              	.LVL116:
 885              	.L57:
 518:Drivers/STM32WBxx_HAL_Driver/Src/stm32wbxx_hal_exti.c ****     }
 519:Drivers/STM32WBxx_HAL_Driver/Src/stm32wbxx_hal_exti.c ****   }
 520:Drivers/STM32WBxx_HAL_Driver/Src/stm32wbxx_hal_exti.c **** }
 886              		.loc 1 520 1 is_stmt 0 view .LVU320
 887 002a 08BD     		pop	{r3, pc}
 888              		.cfi_endproc
 889              	.LFE948:
 891              		.section	.text.HAL_EXTI_GetPending,"ax",%progbits
 892              		.align	1
 893              		.global	HAL_EXTI_GetPending
 894              		.syntax unified
 895              		.thumb
 896              		.thumb_func
 897              		.fpu fpv4-sp-d16
 899              	HAL_EXTI_GetPending:
 900              	.LVL117:
 901              	.LFB949:
 521:Drivers/STM32WBxx_HAL_Driver/Src/stm32wbxx_hal_exti.c **** 
 522:Drivers/STM32WBxx_HAL_Driver/Src/stm32wbxx_hal_exti.c **** 
 523:Drivers/STM32WBxx_HAL_Driver/Src/stm32wbxx_hal_exti.c **** /**
 524:Drivers/STM32WBxx_HAL_Driver/Src/stm32wbxx_hal_exti.c ****   * @brief  Get interrupt pending bit of a dedicated line.
 525:Drivers/STM32WBxx_HAL_Driver/Src/stm32wbxx_hal_exti.c ****   * @param  hexti Exti handle.
 526:Drivers/STM32WBxx_HAL_Driver/Src/stm32wbxx_hal_exti.c ****   * @param  Edge Specify which pending edge as to be checked.
ARM GAS  /tmp/ccYuDfzR.s 			page 27


 527:Drivers/STM32WBxx_HAL_Driver/Src/stm32wbxx_hal_exti.c ****   *         This parameter can be one of the following values:
 528:Drivers/STM32WBxx_HAL_Driver/Src/stm32wbxx_hal_exti.c ****   *           @arg @ref EXTI_TRIGGER_RISING_FALLING
 529:Drivers/STM32WBxx_HAL_Driver/Src/stm32wbxx_hal_exti.c ****   *         This parameter is kept for compatibility with other series.
 530:Drivers/STM32WBxx_HAL_Driver/Src/stm32wbxx_hal_exti.c ****   * @retval 1 if interrupt is pending else 0.
 531:Drivers/STM32WBxx_HAL_Driver/Src/stm32wbxx_hal_exti.c ****   */
 532:Drivers/STM32WBxx_HAL_Driver/Src/stm32wbxx_hal_exti.c **** uint32_t HAL_EXTI_GetPending(EXTI_HandleTypeDef *hexti, uint32_t Edge)
 533:Drivers/STM32WBxx_HAL_Driver/Src/stm32wbxx_hal_exti.c **** {
 902              		.loc 1 533 1 is_stmt 1 view -0
 903              		.cfi_startproc
 904              		@ args = 0, pretend = 0, frame = 0
 905              		@ frame_needed = 0, uses_anonymous_args = 0
 906              		@ link register save eliminated.
 534:Drivers/STM32WBxx_HAL_Driver/Src/stm32wbxx_hal_exti.c ****   __IO uint32_t *regaddr;
 907              		.loc 1 534 3 view .LVU322
 535:Drivers/STM32WBxx_HAL_Driver/Src/stm32wbxx_hal_exti.c ****   uint32_t regval;
 908              		.loc 1 535 3 view .LVU323
 536:Drivers/STM32WBxx_HAL_Driver/Src/stm32wbxx_hal_exti.c ****   uint32_t linepos;
 909              		.loc 1 536 3 view .LVU324
 537:Drivers/STM32WBxx_HAL_Driver/Src/stm32wbxx_hal_exti.c ****   uint32_t maskline;
 910              		.loc 1 537 3 view .LVU325
 538:Drivers/STM32WBxx_HAL_Driver/Src/stm32wbxx_hal_exti.c ****   uint32_t offset;
 911              		.loc 1 538 3 view .LVU326
 539:Drivers/STM32WBxx_HAL_Driver/Src/stm32wbxx_hal_exti.c **** 
 540:Drivers/STM32WBxx_HAL_Driver/Src/stm32wbxx_hal_exti.c ****   /* Check parameters */
 541:Drivers/STM32WBxx_HAL_Driver/Src/stm32wbxx_hal_exti.c ****   assert_param(IS_EXTI_LINE(hexti->Line));
 912              		.loc 1 541 3 view .LVU327
 542:Drivers/STM32WBxx_HAL_Driver/Src/stm32wbxx_hal_exti.c ****   assert_param(IS_EXTI_CONFIG_LINE(hexti->Line));
 913              		.loc 1 542 3 view .LVU328
 543:Drivers/STM32WBxx_HAL_Driver/Src/stm32wbxx_hal_exti.c ****   assert_param(IS_EXTI_PENDING_EDGE(Edge));
 914              		.loc 1 543 3 view .LVU329
 544:Drivers/STM32WBxx_HAL_Driver/Src/stm32wbxx_hal_exti.c **** 
 545:Drivers/STM32WBxx_HAL_Driver/Src/stm32wbxx_hal_exti.c ****   /* compute line register offset and line mask */
 546:Drivers/STM32WBxx_HAL_Driver/Src/stm32wbxx_hal_exti.c ****   offset = ((hexti->Line & EXTI_REG_MASK) >> EXTI_REG_SHIFT);
 915              		.loc 1 546 3 view .LVU330
 916              		.loc 1 546 19 is_stmt 0 view .LVU331
 917 0000 0368     		ldr	r3, [r0]
 918              		.loc 1 546 10 view .LVU332
 919 0002 C3F30042 		ubfx	r2, r3, #16, #1
 920              	.LVL118:
 547:Drivers/STM32WBxx_HAL_Driver/Src/stm32wbxx_hal_exti.c ****   linepos = (hexti->Line & EXTI_PIN_MASK);
 921              		.loc 1 547 3 is_stmt 1 view .LVU333
 922              		.loc 1 547 11 is_stmt 0 view .LVU334
 923 0006 03F01F03 		and	r3, r3, #31
 924              	.LVL119:
 548:Drivers/STM32WBxx_HAL_Driver/Src/stm32wbxx_hal_exti.c ****   maskline = (1uL << linepos);
 925              		.loc 1 548 3 is_stmt 1 view .LVU335
 926              		.loc 1 548 12 is_stmt 0 view .LVU336
 927 000a 0120     		movs	r0, #1
 928              	.LVL120:
 929              		.loc 1 548 12 view .LVU337
 930 000c 00FA03F1 		lsl	r1, r0, r3
 931              	.LVL121:
 549:Drivers/STM32WBxx_HAL_Driver/Src/stm32wbxx_hal_exti.c **** 
 550:Drivers/STM32WBxx_HAL_Driver/Src/stm32wbxx_hal_exti.c ****   /* Get pending bit */
 551:Drivers/STM32WBxx_HAL_Driver/Src/stm32wbxx_hal_exti.c ****   regaddr = (&EXTI->PR1 + (EXTI_CONFIG_OFFSET * offset));
 932              		.loc 1 551 3 is_stmt 1 view .LVU338
 933              		.loc 1 551 25 is_stmt 0 view .LVU339
ARM GAS  /tmp/ccYuDfzR.s 			page 28


 934 0010 5201     		lsls	r2, r2, #5
 935              	.LVL122:
 936              		.loc 1 551 11 view .LVU340
 937 0012 02F1B042 		add	r2, r2, #1476395008
 938              	.LVL123:
 552:Drivers/STM32WBxx_HAL_Driver/Src/stm32wbxx_hal_exti.c **** 
 553:Drivers/STM32WBxx_HAL_Driver/Src/stm32wbxx_hal_exti.c ****   /* return 1 if bit is set else 0 */
 554:Drivers/STM32WBxx_HAL_Driver/Src/stm32wbxx_hal_exti.c ****   regval = ((*regaddr & maskline) >> linepos);
 939              		.loc 1 554 3 is_stmt 1 view .LVU341
 940              		.loc 1 554 14 is_stmt 0 view .LVU342
 941 0016 D2F80C08 		ldr	r0, [r2, #2060]
 942              		.loc 1 554 23 view .LVU343
 943 001a 0840     		ands	r0, r0, r1
 944              	.LVL124:
 555:Drivers/STM32WBxx_HAL_Driver/Src/stm32wbxx_hal_exti.c ****   return regval;
 945              		.loc 1 555 3 is_stmt 1 view .LVU344
 556:Drivers/STM32WBxx_HAL_Driver/Src/stm32wbxx_hal_exti.c **** }
 946              		.loc 1 556 1 is_stmt 0 view .LVU345
 947 001c D840     		lsrs	r0, r0, r3
 948              	.LVL125:
 949              		.loc 1 556 1 view .LVU346
 950 001e 7047     		bx	lr
 951              		.cfi_endproc
 952              	.LFE949:
 954              		.section	.text.HAL_EXTI_ClearPending,"ax",%progbits
 955              		.align	1
 956              		.global	HAL_EXTI_ClearPending
 957              		.syntax unified
 958              		.thumb
 959              		.thumb_func
 960              		.fpu fpv4-sp-d16
 962              	HAL_EXTI_ClearPending:
 963              	.LVL126:
 964              	.LFB950:
 557:Drivers/STM32WBxx_HAL_Driver/Src/stm32wbxx_hal_exti.c **** 
 558:Drivers/STM32WBxx_HAL_Driver/Src/stm32wbxx_hal_exti.c **** 
 559:Drivers/STM32WBxx_HAL_Driver/Src/stm32wbxx_hal_exti.c **** /**
 560:Drivers/STM32WBxx_HAL_Driver/Src/stm32wbxx_hal_exti.c ****   * @brief  Clear interrupt pending bit of a dedicated line.
 561:Drivers/STM32WBxx_HAL_Driver/Src/stm32wbxx_hal_exti.c ****   * @param  hexti Exti handle.
 562:Drivers/STM32WBxx_HAL_Driver/Src/stm32wbxx_hal_exti.c ****   * @param  Edge Specify which pending edge as to be clear.
 563:Drivers/STM32WBxx_HAL_Driver/Src/stm32wbxx_hal_exti.c ****   *         This parameter can be one of the following values:
 564:Drivers/STM32WBxx_HAL_Driver/Src/stm32wbxx_hal_exti.c ****   *           @arg @ref EXTI_TRIGGER_RISING_FALLING
 565:Drivers/STM32WBxx_HAL_Driver/Src/stm32wbxx_hal_exti.c ****   *         This parameter is kept for compatibility with other series.
 566:Drivers/STM32WBxx_HAL_Driver/Src/stm32wbxx_hal_exti.c ****   * @retval None.
 567:Drivers/STM32WBxx_HAL_Driver/Src/stm32wbxx_hal_exti.c ****   */
 568:Drivers/STM32WBxx_HAL_Driver/Src/stm32wbxx_hal_exti.c **** void HAL_EXTI_ClearPending(EXTI_HandleTypeDef *hexti, uint32_t Edge)
 569:Drivers/STM32WBxx_HAL_Driver/Src/stm32wbxx_hal_exti.c **** {
 965              		.loc 1 569 1 is_stmt 1 view -0
 966              		.cfi_startproc
 967              		@ args = 0, pretend = 0, frame = 0
 968              		@ frame_needed = 0, uses_anonymous_args = 0
 969              		@ link register save eliminated.
 570:Drivers/STM32WBxx_HAL_Driver/Src/stm32wbxx_hal_exti.c ****   __IO uint32_t *regaddr;
 970              		.loc 1 570 3 view .LVU348
 571:Drivers/STM32WBxx_HAL_Driver/Src/stm32wbxx_hal_exti.c ****   uint32_t maskline;
 971              		.loc 1 571 3 view .LVU349
 572:Drivers/STM32WBxx_HAL_Driver/Src/stm32wbxx_hal_exti.c ****   uint32_t offset;
ARM GAS  /tmp/ccYuDfzR.s 			page 29


 972              		.loc 1 572 3 view .LVU350
 573:Drivers/STM32WBxx_HAL_Driver/Src/stm32wbxx_hal_exti.c **** 
 574:Drivers/STM32WBxx_HAL_Driver/Src/stm32wbxx_hal_exti.c ****   /* Check parameters */
 575:Drivers/STM32WBxx_HAL_Driver/Src/stm32wbxx_hal_exti.c ****   assert_param(IS_EXTI_LINE(hexti->Line));
 973              		.loc 1 575 3 view .LVU351
 576:Drivers/STM32WBxx_HAL_Driver/Src/stm32wbxx_hal_exti.c ****   assert_param(IS_EXTI_CONFIG_LINE(hexti->Line));
 974              		.loc 1 576 3 view .LVU352
 577:Drivers/STM32WBxx_HAL_Driver/Src/stm32wbxx_hal_exti.c ****   assert_param(IS_EXTI_PENDING_EDGE(Edge));
 975              		.loc 1 577 3 view .LVU353
 578:Drivers/STM32WBxx_HAL_Driver/Src/stm32wbxx_hal_exti.c **** 
 579:Drivers/STM32WBxx_HAL_Driver/Src/stm32wbxx_hal_exti.c ****   /* compute line register offset and line mask */
 580:Drivers/STM32WBxx_HAL_Driver/Src/stm32wbxx_hal_exti.c ****   offset = ((hexti->Line & EXTI_REG_MASK) >> EXTI_REG_SHIFT);
 976              		.loc 1 580 3 view .LVU354
 977              		.loc 1 580 19 is_stmt 0 view .LVU355
 978 0000 0268     		ldr	r2, [r0]
 979              		.loc 1 580 10 view .LVU356
 980 0002 C2F30043 		ubfx	r3, r2, #16, #1
 981              	.LVL127:
 581:Drivers/STM32WBxx_HAL_Driver/Src/stm32wbxx_hal_exti.c ****   maskline = (1uL << (hexti->Line & EXTI_PIN_MASK));
 982              		.loc 1 581 3 is_stmt 1 view .LVU357
 983              		.loc 1 581 35 is_stmt 0 view .LVU358
 984 0006 02F01F02 		and	r2, r2, #31
 985              		.loc 1 581 12 view .LVU359
 986 000a 0121     		movs	r1, #1
 987              	.LVL128:
 988              		.loc 1 581 12 view .LVU360
 989 000c 01FA02F2 		lsl	r2, r1, r2
 990              	.LVL129:
 582:Drivers/STM32WBxx_HAL_Driver/Src/stm32wbxx_hal_exti.c **** 
 583:Drivers/STM32WBxx_HAL_Driver/Src/stm32wbxx_hal_exti.c ****   /* Get pending register address */
 584:Drivers/STM32WBxx_HAL_Driver/Src/stm32wbxx_hal_exti.c ****   regaddr = (&EXTI->PR1 + (EXTI_CONFIG_OFFSET * offset));
 991              		.loc 1 584 3 is_stmt 1 view .LVU361
 992              		.loc 1 584 25 is_stmt 0 view .LVU362
 993 0010 5B01     		lsls	r3, r3, #5
 994              	.LVL130:
 995              		.loc 1 584 11 view .LVU363
 996 0012 03F1B043 		add	r3, r3, #1476395008
 997              	.LVL131:
 585:Drivers/STM32WBxx_HAL_Driver/Src/stm32wbxx_hal_exti.c **** 
 586:Drivers/STM32WBxx_HAL_Driver/Src/stm32wbxx_hal_exti.c ****   /* Clear Pending bit */
 587:Drivers/STM32WBxx_HAL_Driver/Src/stm32wbxx_hal_exti.c ****   *regaddr =  maskline;
 998              		.loc 1 587 3 is_stmt 1 view .LVU364
 999              		.loc 1 587 12 is_stmt 0 view .LVU365
 1000 0016 C3F80C28 		str	r2, [r3, #2060]
 1001              	.LVL132:
 588:Drivers/STM32WBxx_HAL_Driver/Src/stm32wbxx_hal_exti.c **** }
 1002              		.loc 1 588 1 view .LVU366
 1003 001a 7047     		bx	lr
 1004              		.cfi_endproc
 1005              	.LFE950:
 1007              		.section	.text.HAL_EXTI_GenerateSWI,"ax",%progbits
 1008              		.align	1
 1009              		.global	HAL_EXTI_GenerateSWI
 1010              		.syntax unified
 1011              		.thumb
 1012              		.thumb_func
 1013              		.fpu fpv4-sp-d16
ARM GAS  /tmp/ccYuDfzR.s 			page 30


 1015              	HAL_EXTI_GenerateSWI:
 1016              	.LVL133:
 1017              	.LFB951:
 589:Drivers/STM32WBxx_HAL_Driver/Src/stm32wbxx_hal_exti.c **** 
 590:Drivers/STM32WBxx_HAL_Driver/Src/stm32wbxx_hal_exti.c **** 
 591:Drivers/STM32WBxx_HAL_Driver/Src/stm32wbxx_hal_exti.c **** /**
 592:Drivers/STM32WBxx_HAL_Driver/Src/stm32wbxx_hal_exti.c ****   * @brief  Generate a software interrupt for a dedicated line.
 593:Drivers/STM32WBxx_HAL_Driver/Src/stm32wbxx_hal_exti.c ****   * @param  hexti Exti handle.
 594:Drivers/STM32WBxx_HAL_Driver/Src/stm32wbxx_hal_exti.c ****   * @retval None.
 595:Drivers/STM32WBxx_HAL_Driver/Src/stm32wbxx_hal_exti.c ****   */
 596:Drivers/STM32WBxx_HAL_Driver/Src/stm32wbxx_hal_exti.c **** void HAL_EXTI_GenerateSWI(EXTI_HandleTypeDef *hexti)
 597:Drivers/STM32WBxx_HAL_Driver/Src/stm32wbxx_hal_exti.c **** {
 1018              		.loc 1 597 1 is_stmt 1 view -0
 1019              		.cfi_startproc
 1020              		@ args = 0, pretend = 0, frame = 0
 1021              		@ frame_needed = 0, uses_anonymous_args = 0
 1022              		@ link register save eliminated.
 598:Drivers/STM32WBxx_HAL_Driver/Src/stm32wbxx_hal_exti.c ****   __IO uint32_t *regaddr;
 1023              		.loc 1 598 3 view .LVU368
 599:Drivers/STM32WBxx_HAL_Driver/Src/stm32wbxx_hal_exti.c ****   uint32_t maskline;
 1024              		.loc 1 599 3 view .LVU369
 600:Drivers/STM32WBxx_HAL_Driver/Src/stm32wbxx_hal_exti.c ****   uint32_t offset;
 1025              		.loc 1 600 3 view .LVU370
 601:Drivers/STM32WBxx_HAL_Driver/Src/stm32wbxx_hal_exti.c **** 
 602:Drivers/STM32WBxx_HAL_Driver/Src/stm32wbxx_hal_exti.c ****   /* Check parameters */
 603:Drivers/STM32WBxx_HAL_Driver/Src/stm32wbxx_hal_exti.c ****   assert_param(IS_EXTI_LINE(hexti->Line));
 1026              		.loc 1 603 3 view .LVU371
 604:Drivers/STM32WBxx_HAL_Driver/Src/stm32wbxx_hal_exti.c ****   assert_param(IS_EXTI_CONFIG_LINE(hexti->Line));
 1027              		.loc 1 604 3 view .LVU372
 605:Drivers/STM32WBxx_HAL_Driver/Src/stm32wbxx_hal_exti.c **** 
 606:Drivers/STM32WBxx_HAL_Driver/Src/stm32wbxx_hal_exti.c ****   /* compute line register offset and line mask */
 607:Drivers/STM32WBxx_HAL_Driver/Src/stm32wbxx_hal_exti.c ****   offset = ((hexti->Line & EXTI_REG_MASK) >> EXTI_REG_SHIFT);
 1028              		.loc 1 607 3 view .LVU373
 1029              		.loc 1 607 19 is_stmt 0 view .LVU374
 1030 0000 0268     		ldr	r2, [r0]
 1031              		.loc 1 607 10 view .LVU375
 1032 0002 C2F30043 		ubfx	r3, r2, #16, #1
 1033              	.LVL134:
 608:Drivers/STM32WBxx_HAL_Driver/Src/stm32wbxx_hal_exti.c ****   maskline = (1uL << (hexti->Line & EXTI_PIN_MASK));
 1034              		.loc 1 608 3 is_stmt 1 view .LVU376
 1035              		.loc 1 608 35 is_stmt 0 view .LVU377
 1036 0006 02F01F02 		and	r2, r2, #31
 1037              		.loc 1 608 12 view .LVU378
 1038 000a 0121     		movs	r1, #1
 1039 000c 01FA02F2 		lsl	r2, r1, r2
 1040              	.LVL135:
 609:Drivers/STM32WBxx_HAL_Driver/Src/stm32wbxx_hal_exti.c **** 
 610:Drivers/STM32WBxx_HAL_Driver/Src/stm32wbxx_hal_exti.c ****   regaddr = (&EXTI->SWIER1 + (EXTI_CONFIG_OFFSET * offset));
 1041              		.loc 1 610 3 is_stmt 1 view .LVU379
 1042              		.loc 1 610 28 is_stmt 0 view .LVU380
 1043 0010 5B01     		lsls	r3, r3, #5
 1044              	.LVL136:
 1045              		.loc 1 610 11 view .LVU381
 1046 0012 03F1B043 		add	r3, r3, #1476395008
 1047              	.LVL137:
 611:Drivers/STM32WBxx_HAL_Driver/Src/stm32wbxx_hal_exti.c ****   *regaddr = maskline;
 1048              		.loc 1 611 3 is_stmt 1 view .LVU382
ARM GAS  /tmp/ccYuDfzR.s 			page 31


 1049              		.loc 1 611 12 is_stmt 0 view .LVU383
 1050 0016 C3F80828 		str	r2, [r3, #2056]
 1051              	.LVL138:
 612:Drivers/STM32WBxx_HAL_Driver/Src/stm32wbxx_hal_exti.c **** }
 1052              		.loc 1 612 1 view .LVU384
 1053 001a 7047     		bx	lr
 1054              		.cfi_endproc
 1055              	.LFE951:
 1057              		.text
 1058              	.Letext0:
 1059              		.file 2 "/usr/lib/gcc/arm-none-eabi/8.3.1/include/stdint.h"
 1060              		.file 3 "Drivers/CMSIS/Include/core_cm4.h"
 1061              		.file 4 "Drivers/CMSIS/Device/ST/STM32WBxx/Include/system_stm32wbxx.h"
 1062              		.file 5 "Drivers/CMSIS/Device/ST/STM32WBxx/Include/stm32wb55xx.h"
 1063              		.file 6 "Drivers/STM32WBxx_HAL_Driver/Inc/stm32wbxx_hal_def.h"
 1064              		.file 7 "Drivers/STM32WBxx_HAL_Driver/Inc/stm32wbxx_hal_exti.h"
 1065              		.file 8 "Drivers/STM32WBxx_HAL_Driver/Inc/stm32wbxx_hal_flash.h"
 1066              		.file 9 "Drivers/STM32WBxx_HAL_Driver/Inc/stm32wbxx_hal_uart.h"
 1067              		.file 10 "Drivers/STM32WBxx_HAL_Driver/Inc/stm32wbxx_hal.h"
ARM GAS  /tmp/ccYuDfzR.s 			page 32

