Archive member included to satisfy reference by file (symbol)

/usr/lib/gcc/arm-none-eabi/8.3.1/../../../arm-none-eabi/lib/thumb/v7e-m+fp/hard/libc_nano.a(lib_a-abort.o)
                              secp256k1/src/libsecp256k1_la-secp256k1.o (abort)
/usr/lib/gcc/arm-none-eabi/8.3.1/../../../arm-none-eabi/lib/thumb/v7e-m+fp/hard/libc_nano.a(lib_a-atexit.o)
                              /usr/lib/gcc/arm-none-eabi/8.3.1/../../../arm-none-eabi/lib/thumb/v7e-m+fp/hard/crt0.o (atexit)
/usr/lib/gcc/arm-none-eabi/8.3.1/../../../arm-none-eabi/lib/thumb/v7e-m+fp/hard/libc_nano.a(lib_a-errno.o)
                              build/retarget.o (__errno)
/usr/lib/gcc/arm-none-eabi/8.3.1/../../../arm-none-eabi/lib/thumb/v7e-m+fp/hard/libc_nano.a(lib_a-exit.o)
                              /usr/lib/gcc/arm-none-eabi/8.3.1/../../../arm-none-eabi/lib/thumb/v7e-m+fp/hard/crt0.o (exit)
/usr/lib/gcc/arm-none-eabi/8.3.1/../../../arm-none-eabi/lib/thumb/v7e-m+fp/hard/libc_nano.a(lib_a-fini.o)
                              /usr/lib/gcc/arm-none-eabi/8.3.1/../../../arm-none-eabi/lib/thumb/v7e-m+fp/hard/crt0.o (__libc_fini_array)
/usr/lib/gcc/arm-none-eabi/8.3.1/../../../arm-none-eabi/lib/thumb/v7e-m+fp/hard/libc_nano.a(lib_a-fprintf.o)
                              secp256k1/src/libsecp256k1_la-secp256k1.o (fprintf)
/usr/lib/gcc/arm-none-eabi/8.3.1/../../../arm-none-eabi/lib/thumb/v7e-m+fp/hard/libc_nano.a(lib_a-getchar.o)
                              build/main.o (getchar)
/usr/lib/gcc/arm-none-eabi/8.3.1/../../../arm-none-eabi/lib/thumb/v7e-m+fp/hard/libc_nano.a(lib_a-impure.o)
                              /usr/lib/gcc/arm-none-eabi/8.3.1/../../../arm-none-eabi/lib/thumb/v7e-m+fp/hard/libc_nano.a(lib_a-exit.o) (_global_impure_ptr)
/usr/lib/gcc/arm-none-eabi/8.3.1/../../../arm-none-eabi/lib/thumb/v7e-m+fp/hard/libc_nano.a(lib_a-init.o)
                              /usr/lib/gcc/arm-none-eabi/8.3.1/../../../arm-none-eabi/lib/thumb/v7e-m+fp/hard/crt0.o (__libc_init_array)
/usr/lib/gcc/arm-none-eabi/8.3.1/../../../arm-none-eabi/lib/thumb/v7e-m+fp/hard/libc_nano.a(lib_a-malloc.o)
                              build/run.o (malloc)
/usr/lib/gcc/arm-none-eabi/8.3.1/../../../arm-none-eabi/lib/thumb/v7e-m+fp/hard/libc_nano.a(lib_a-memchr.o)
                              build/run.o (memchr)
/usr/lib/gcc/arm-none-eabi/8.3.1/../../../arm-none-eabi/lib/thumb/v7e-m+fp/hard/libc_nano.a(lib_a-memcmp.o)
                              build/encrypt.o (memcmp)
/usr/lib/gcc/arm-none-eabi/8.3.1/../../../arm-none-eabi/lib/thumb/v7e-m+fp/hard/libc_nano.a(lib_a-memcpy.o)
                              build/queue.o (memcpy)
/usr/lib/gcc/arm-none-eabi/8.3.1/../../../arm-none-eabi/lib/thumb/v7e-m+fp/hard/libc_nano.a(lib_a-memset.o)
                              /usr/lib/gcc/arm-none-eabi/8.3.1/../../../arm-none-eabi/lib/thumb/v7e-m+fp/hard/crt0.o (memset)
/usr/lib/gcc/arm-none-eabi/8.3.1/../../../arm-none-eabi/lib/thumb/v7e-m+fp/hard/libc_nano.a(lib_a-nano-freer.o)
                              /usr/lib/gcc/arm-none-eabi/8.3.1/../../../arm-none-eabi/lib/thumb/v7e-m+fp/hard/libc_nano.a(lib_a-malloc.o) (_free_r)
/usr/lib/gcc/arm-none-eabi/8.3.1/../../../arm-none-eabi/lib/thumb/v7e-m+fp/hard/libc_nano.a(lib_a-nano-mallocr.o)
                              /usr/lib/gcc/arm-none-eabi/8.3.1/../../../arm-none-eabi/lib/thumb/v7e-m+fp/hard/libc_nano.a(lib_a-malloc.o) (_malloc_r)
/usr/lib/gcc/arm-none-eabi/8.3.1/../../../arm-none-eabi/lib/thumb/v7e-m+fp/hard/libc_nano.a(lib_a-nano-vfprintf.o)
                              /usr/lib/gcc/arm-none-eabi/8.3.1/../../../arm-none-eabi/lib/thumb/v7e-m+fp/hard/libc_nano.a(lib_a-fprintf.o) (_vfprintf_r)
/usr/lib/gcc/arm-none-eabi/8.3.1/../../../arm-none-eabi/lib/thumb/v7e-m+fp/hard/libc_nano.a(lib_a-nano-vfprintf_float.o)
                              /usr/lib/gcc/arm-none-eabi/8.3.1/../../../arm-none-eabi/lib/thumb/v7e-m+fp/hard/libc_nano.a(lib_a-nano-vfprintf.o) (_printf_float)
/usr/lib/gcc/arm-none-eabi/8.3.1/../../../arm-none-eabi/lib/thumb/v7e-m+fp/hard/libc_nano.a(lib_a-nano-vfprintf_i.o)
                              /usr/lib/gcc/arm-none-eabi/8.3.1/../../../arm-none-eabi/lib/thumb/v7e-m+fp/hard/libc_nano.a(lib_a-nano-vfprintf_float.o) (_printf_common)
/usr/lib/gcc/arm-none-eabi/8.3.1/../../../arm-none-eabi/lib/thumb/v7e-m+fp/hard/libc_nano.a(lib_a-printf.o)
                              build/run.o (printf)
/usr/lib/gcc/arm-none-eabi/8.3.1/../../../arm-none-eabi/lib/thumb/v7e-m+fp/hard/libc_nano.a(lib_a-putchar.o)
                              build/run.o (putchar)
/usr/lib/gcc/arm-none-eabi/8.3.1/../../../arm-none-eabi/lib/thumb/v7e-m+fp/hard/libc_nano.a(lib_a-puts.o)
                              build/run.o (puts)
/usr/lib/gcc/arm-none-eabi/8.3.1/../../../arm-none-eabi/lib/thumb/v7e-m+fp/hard/libc_nano.a(lib_a-sbrkr.o)
                              /usr/lib/gcc/arm-none-eabi/8.3.1/../../../arm-none-eabi/lib/thumb/v7e-m+fp/hard/libc_nano.a(lib_a-nano-mallocr.o) (_sbrk_r)
/usr/lib/gcc/arm-none-eabi/8.3.1/../../../arm-none-eabi/lib/thumb/v7e-m+fp/hard/libc_nano.a(lib_a-setvbuf.o)
                              build/retarget.o (setvbuf)
/usr/lib/gcc/arm-none-eabi/8.3.1/../../../arm-none-eabi/lib/thumb/v7e-m+fp/hard/libc_nano.a(lib_a-signal.o)
                              /usr/lib/gcc/arm-none-eabi/8.3.1/../../../arm-none-eabi/lib/thumb/v7e-m+fp/hard/libc_nano.a(lib_a-abort.o) (raise)
/usr/lib/gcc/arm-none-eabi/8.3.1/../../../arm-none-eabi/lib/thumb/v7e-m+fp/hard/libc_nano.a(lib_a-signalr.o)
                              /usr/lib/gcc/arm-none-eabi/8.3.1/../../../arm-none-eabi/lib/thumb/v7e-m+fp/hard/libc_nano.a(lib_a-signal.o) (_kill_r)
/usr/lib/gcc/arm-none-eabi/8.3.1/../../../arm-none-eabi/lib/thumb/v7e-m+fp/hard/libc_nano.a(lib_a-sprintf.o)
                              build/sha256.o (sprintf)
/usr/lib/gcc/arm-none-eabi/8.3.1/../../../arm-none-eabi/lib/thumb/v7e-m+fp/hard/libc_nano.a(lib_a-strcat.o)
                              build/sha256.o (strcat)
/usr/lib/gcc/arm-none-eabi/8.3.1/../../../arm-none-eabi/lib/thumb/v7e-m+fp/hard/libc_nano.a(lib_a-strcpy.o)
                              /usr/lib/gcc/arm-none-eabi/8.3.1/../../../arm-none-eabi/lib/thumb/v7e-m+fp/hard/libc_nano.a(lib_a-strcat.o) (strcpy)
/usr/lib/gcc/arm-none-eabi/8.3.1/../../../arm-none-eabi/lib/thumb/v7e-m+fp/hard/libc_nano.a(lib_a-strlen.o)
                              build/run.o (strlen)
/usr/lib/gcc/arm-none-eabi/8.3.1/../../../arm-none-eabi/lib/thumb/v7e-m+fp/hard/libc_nano.a(lib_a-strncmp.o)
                              build/run.o (strncmp)
/usr/lib/gcc/arm-none-eabi/8.3.1/../../../arm-none-eabi/lib/thumb/v7e-m+fp/hard/libc_nano.a(lib_a-strncpy.o)
                              build/run.o (strncpy)
/usr/lib/gcc/arm-none-eabi/8.3.1/../../../arm-none-eabi/lib/thumb/v7e-m+fp/hard/libc_nano.a(lib_a-strtoul.o)
                              build/run.o (strtoul)
/usr/lib/gcc/arm-none-eabi/8.3.1/../../../arm-none-eabi/lib/thumb/v7e-m+fp/hard/libc_nano.a(lib_a-wbuf.o)
                              /usr/lib/gcc/arm-none-eabi/8.3.1/../../../arm-none-eabi/lib/thumb/v7e-m+fp/hard/libc_nano.a(lib_a-nano-vfprintf.o) (__swbuf_r)
/usr/lib/gcc/arm-none-eabi/8.3.1/../../../arm-none-eabi/lib/thumb/v7e-m+fp/hard/libc_nano.a(lib_a-wsetup.o)
                              /usr/lib/gcc/arm-none-eabi/8.3.1/../../../arm-none-eabi/lib/thumb/v7e-m+fp/hard/libc_nano.a(lib_a-nano-vfprintf.o) (__swsetup_r)
/usr/lib/gcc/arm-none-eabi/8.3.1/../../../arm-none-eabi/lib/thumb/v7e-m+fp/hard/libc_nano.a(lib_a-__atexit.o)
                              /usr/lib/gcc/arm-none-eabi/8.3.1/../../../arm-none-eabi/lib/thumb/v7e-m+fp/hard/libc_nano.a(lib_a-atexit.o) (__register_exitproc)
/usr/lib/gcc/arm-none-eabi/8.3.1/../../../arm-none-eabi/lib/thumb/v7e-m+fp/hard/libc_nano.a(lib_a-__call_atexit.o)
                              /usr/lib/gcc/arm-none-eabi/8.3.1/../../../arm-none-eabi/lib/thumb/v7e-m+fp/hard/libc_nano.a(lib_a-__atexit.o) (__call_exitprocs)
/usr/lib/gcc/arm-none-eabi/8.3.1/../../../arm-none-eabi/lib/thumb/v7e-m+fp/hard/libc_nano.a(lib_a-ctype_.o)
                              /usr/lib/gcc/arm-none-eabi/8.3.1/../../../arm-none-eabi/lib/thumb/v7e-m+fp/hard/libc_nano.a(lib_a-strtoul.o) (_ctype_)
/usr/lib/gcc/arm-none-eabi/8.3.1/../../../arm-none-eabi/lib/thumb/v7e-m+fp/hard/libc_nano.a(lib_a-dtoa.o)
                              /usr/lib/gcc/arm-none-eabi/8.3.1/../../../arm-none-eabi/lib/thumb/v7e-m+fp/hard/libc_nano.a(lib_a-nano-vfprintf_float.o) (_dtoa_r)
/usr/lib/gcc/arm-none-eabi/8.3.1/../../../arm-none-eabi/lib/thumb/v7e-m+fp/hard/libc_nano.a(lib_a-fflush.o)
                              /usr/lib/gcc/arm-none-eabi/8.3.1/../../../arm-none-eabi/lib/thumb/v7e-m+fp/hard/libc_nano.a(lib_a-setvbuf.o) (_fflush_r)
/usr/lib/gcc/arm-none-eabi/8.3.1/../../../arm-none-eabi/lib/thumb/v7e-m+fp/hard/libc_nano.a(lib_a-findfp.o)
                              /usr/lib/gcc/arm-none-eabi/8.3.1/../../../arm-none-eabi/lib/thumb/v7e-m+fp/hard/libc_nano.a(lib_a-getchar.o) (__sinit)
/usr/lib/gcc/arm-none-eabi/8.3.1/../../../arm-none-eabi/lib/thumb/v7e-m+fp/hard/libc_nano.a(lib_a-fvwrite.o)
                              /usr/lib/gcc/arm-none-eabi/8.3.1/../../../arm-none-eabi/lib/thumb/v7e-m+fp/hard/libc_nano.a(lib_a-nano-vfprintf.o) (__sfvwrite_r)
/usr/lib/gcc/arm-none-eabi/8.3.1/../../../arm-none-eabi/lib/thumb/v7e-m+fp/hard/libc_nano.a(lib_a-fwalk.o)
                              /usr/lib/gcc/arm-none-eabi/8.3.1/../../../arm-none-eabi/lib/thumb/v7e-m+fp/hard/libc_nano.a(lib_a-findfp.o) (_fwalk)
/usr/lib/gcc/arm-none-eabi/8.3.1/../../../arm-none-eabi/lib/thumb/v7e-m+fp/hard/libc_nano.a(lib_a-getc.o)
                              /usr/lib/gcc/arm-none-eabi/8.3.1/../../../arm-none-eabi/lib/thumb/v7e-m+fp/hard/libc_nano.a(lib_a-getchar.o) (_getc_r)
/usr/lib/gcc/arm-none-eabi/8.3.1/../../../arm-none-eabi/lib/thumb/v7e-m+fp/hard/libc_nano.a(lib_a-localeconv.o)
                              /usr/lib/gcc/arm-none-eabi/8.3.1/../../../arm-none-eabi/lib/thumb/v7e-m+fp/hard/libc_nano.a(lib_a-nano-vfprintf_float.o) (_localeconv_r)
/usr/lib/gcc/arm-none-eabi/8.3.1/../../../arm-none-eabi/lib/thumb/v7e-m+fp/hard/libc_nano.a(lib_a-makebuf.o)
                              /usr/lib/gcc/arm-none-eabi/8.3.1/../../../arm-none-eabi/lib/thumb/v7e-m+fp/hard/libc_nano.a(lib_a-setvbuf.o) (__swhatbuf_r)
/usr/lib/gcc/arm-none-eabi/8.3.1/../../../arm-none-eabi/lib/thumb/v7e-m+fp/hard/libc_nano.a(lib_a-memmove.o)
                              /usr/lib/gcc/arm-none-eabi/8.3.1/../../../arm-none-eabi/lib/thumb/v7e-m+fp/hard/libc_nano.a(lib_a-fvwrite.o) (memmove)
/usr/lib/gcc/arm-none-eabi/8.3.1/../../../arm-none-eabi/lib/thumb/v7e-m+fp/hard/libc_nano.a(lib_a-mlock.o)
                              /usr/lib/gcc/arm-none-eabi/8.3.1/../../../arm-none-eabi/lib/thumb/v7e-m+fp/hard/libc_nano.a(lib_a-nano-freer.o) (__malloc_lock)
/usr/lib/gcc/arm-none-eabi/8.3.1/../../../arm-none-eabi/lib/thumb/v7e-m+fp/hard/libc_nano.a(lib_a-mprec.o)
                              /usr/lib/gcc/arm-none-eabi/8.3.1/../../../arm-none-eabi/lib/thumb/v7e-m+fp/hard/libc_nano.a(lib_a-dtoa.o) (_Balloc)
/usr/lib/gcc/arm-none-eabi/8.3.1/../../../arm-none-eabi/lib/thumb/v7e-m+fp/hard/libc_nano.a(lib_a-nano-callocr.o)
                              /usr/lib/gcc/arm-none-eabi/8.3.1/../../../arm-none-eabi/lib/thumb/v7e-m+fp/hard/libc_nano.a(lib_a-mprec.o) (_calloc_r)
/usr/lib/gcc/arm-none-eabi/8.3.1/../../../arm-none-eabi/lib/thumb/v7e-m+fp/hard/libc_nano.a(lib_a-nano-reallocr.o)
                              /usr/lib/gcc/arm-none-eabi/8.3.1/../../../arm-none-eabi/lib/thumb/v7e-m+fp/hard/libc_nano.a(lib_a-fvwrite.o) (_realloc_r)
/usr/lib/gcc/arm-none-eabi/8.3.1/../../../arm-none-eabi/lib/thumb/v7e-m+fp/hard/libc_nano.a(lib_a-nano-svfprintf.o)
                              /usr/lib/gcc/arm-none-eabi/8.3.1/../../../arm-none-eabi/lib/thumb/v7e-m+fp/hard/libc_nano.a(lib_a-sprintf.o) (_svfprintf_r)
/usr/lib/gcc/arm-none-eabi/8.3.1/../../../arm-none-eabi/lib/thumb/v7e-m+fp/hard/libc_nano.a(lib_a-putc.o)
                              /usr/lib/gcc/arm-none-eabi/8.3.1/../../../arm-none-eabi/lib/thumb/v7e-m+fp/hard/libc_nano.a(lib_a-putchar.o) (_putc_r)
/usr/lib/gcc/arm-none-eabi/8.3.1/../../../arm-none-eabi/lib/thumb/v7e-m+fp/hard/libc_nano.a(lib_a-reent.o)
                              /usr/lib/gcc/arm-none-eabi/8.3.1/../../../arm-none-eabi/lib/thumb/v7e-m+fp/hard/libc_nano.a(lib_a-sbrkr.o) (errno)
/usr/lib/gcc/arm-none-eabi/8.3.1/../../../arm-none-eabi/lib/thumb/v7e-m+fp/hard/libc_nano.a(lib_a-rget.o)
                              /usr/lib/gcc/arm-none-eabi/8.3.1/../../../arm-none-eabi/lib/thumb/v7e-m+fp/hard/libc_nano.a(lib_a-getc.o) (__srget_r)
/usr/lib/gcc/arm-none-eabi/8.3.1/../../../arm-none-eabi/lib/thumb/v7e-m+fp/hard/libc_nano.a(lib_a-stdio.o)
                              /usr/lib/gcc/arm-none-eabi/8.3.1/../../../arm-none-eabi/lib/thumb/v7e-m+fp/hard/libc_nano.a(lib_a-findfp.o) (__sread)
/usr/lib/gcc/arm-none-eabi/8.3.1/../../../arm-none-eabi/lib/thumb/v7e-m+fp/hard/libc_nano.a(lib_a-writer.o)
                              /usr/lib/gcc/arm-none-eabi/8.3.1/../../../arm-none-eabi/lib/thumb/v7e-m+fp/hard/libc_nano.a(lib_a-stdio.o) (_write_r)
/usr/lib/gcc/arm-none-eabi/8.3.1/../../../arm-none-eabi/lib/thumb/v7e-m+fp/hard/libc_nano.a(lib_a-assert.o)
                              /usr/lib/gcc/arm-none-eabi/8.3.1/../../../arm-none-eabi/lib/thumb/v7e-m+fp/hard/libc_nano.a(lib_a-dtoa.o) (__assert_func)
/usr/lib/gcc/arm-none-eabi/8.3.1/../../../arm-none-eabi/lib/thumb/v7e-m+fp/hard/libc_nano.a(lib_a-closer.o)
                              /usr/lib/gcc/arm-none-eabi/8.3.1/../../../arm-none-eabi/lib/thumb/v7e-m+fp/hard/libc_nano.a(lib_a-stdio.o) (_close_r)
/usr/lib/gcc/arm-none-eabi/8.3.1/../../../arm-none-eabi/lib/thumb/v7e-m+fp/hard/libc_nano.a(lib_a-fstatr.o)
                              /usr/lib/gcc/arm-none-eabi/8.3.1/../../../arm-none-eabi/lib/thumb/v7e-m+fp/hard/libc_nano.a(lib_a-makebuf.o) (_fstat_r)
/usr/lib/gcc/arm-none-eabi/8.3.1/../../../arm-none-eabi/lib/thumb/v7e-m+fp/hard/libc_nano.a(lib_a-isattyr.o)
                              /usr/lib/gcc/arm-none-eabi/8.3.1/../../../arm-none-eabi/lib/thumb/v7e-m+fp/hard/libc_nano.a(lib_a-makebuf.o) (_isatty_r)
/usr/lib/gcc/arm-none-eabi/8.3.1/../../../arm-none-eabi/lib/thumb/v7e-m+fp/hard/libc_nano.a(lib_a-locale.o)
                              /usr/lib/gcc/arm-none-eabi/8.3.1/../../../arm-none-eabi/lib/thumb/v7e-m+fp/hard/libc_nano.a(lib_a-localeconv.o) (__global_locale)
/usr/lib/gcc/arm-none-eabi/8.3.1/../../../arm-none-eabi/lib/thumb/v7e-m+fp/hard/libc_nano.a(lib_a-lseekr.o)
                              /usr/lib/gcc/arm-none-eabi/8.3.1/../../../arm-none-eabi/lib/thumb/v7e-m+fp/hard/libc_nano.a(lib_a-stdio.o) (_lseek_r)
/usr/lib/gcc/arm-none-eabi/8.3.1/../../../arm-none-eabi/lib/thumb/v7e-m+fp/hard/libc_nano.a(lib_a-mbtowc_r.o)
                              /usr/lib/gcc/arm-none-eabi/8.3.1/../../../arm-none-eabi/lib/thumb/v7e-m+fp/hard/libc_nano.a(lib_a-locale.o) (__ascii_mbtowc)
/usr/lib/gcc/arm-none-eabi/8.3.1/../../../arm-none-eabi/lib/thumb/v7e-m+fp/hard/libc_nano.a(lib_a-nano-msizer.o)
                              /usr/lib/gcc/arm-none-eabi/8.3.1/../../../arm-none-eabi/lib/thumb/v7e-m+fp/hard/libc_nano.a(lib_a-nano-reallocr.o) (_malloc_usable_size_r)
/usr/lib/gcc/arm-none-eabi/8.3.1/../../../arm-none-eabi/lib/thumb/v7e-m+fp/hard/libc_nano.a(lib_a-readr.o)
                              /usr/lib/gcc/arm-none-eabi/8.3.1/../../../arm-none-eabi/lib/thumb/v7e-m+fp/hard/libc_nano.a(lib_a-stdio.o) (_read_r)
/usr/lib/gcc/arm-none-eabi/8.3.1/../../../arm-none-eabi/lib/thumb/v7e-m+fp/hard/libc_nano.a(lib_a-refill.o)
                              /usr/lib/gcc/arm-none-eabi/8.3.1/../../../arm-none-eabi/lib/thumb/v7e-m+fp/hard/libc_nano.a(lib_a-rget.o) (__srefill_r)
/usr/lib/gcc/arm-none-eabi/8.3.1/../../../arm-none-eabi/lib/thumb/v7e-m+fp/hard/libc_nano.a(lib_a-strcmp.o)
                              /usr/lib/gcc/arm-none-eabi/8.3.1/../../../arm-none-eabi/lib/thumb/v7e-m+fp/hard/libc_nano.a(lib_a-locale.o) (strcmp)
/usr/lib/gcc/arm-none-eabi/8.3.1/../../../arm-none-eabi/lib/thumb/v7e-m+fp/hard/libc_nano.a(lib_a-wctomb_r.o)
                              /usr/lib/gcc/arm-none-eabi/8.3.1/../../../arm-none-eabi/lib/thumb/v7e-m+fp/hard/libc_nano.a(lib_a-locale.o) (__ascii_wctomb)
/usr/lib/gcc/arm-none-eabi/8.3.1/../../../arm-none-eabi/lib/thumb/v7e-m+fp/hard/libnosys.a(getpid.o)
                              /usr/lib/gcc/arm-none-eabi/8.3.1/../../../arm-none-eabi/lib/thumb/v7e-m+fp/hard/libc_nano.a(lib_a-signalr.o) (_getpid)
/usr/lib/gcc/arm-none-eabi/8.3.1/../../../arm-none-eabi/lib/thumb/v7e-m+fp/hard/libnosys.a(kill.o)
                              /usr/lib/gcc/arm-none-eabi/8.3.1/../../../arm-none-eabi/lib/thumb/v7e-m+fp/hard/libc_nano.a(lib_a-signalr.o) (_kill)
/usr/lib/gcc/arm-none-eabi/8.3.1/../../../arm-none-eabi/lib/thumb/v7e-m+fp/hard/libnosys.a(sbrk.o)
                              /usr/lib/gcc/arm-none-eabi/8.3.1/../../../arm-none-eabi/lib/thumb/v7e-m+fp/hard/libc_nano.a(lib_a-sbrkr.o) (_sbrk)
/usr/lib/gcc/arm-none-eabi/8.3.1/../../../arm-none-eabi/lib/thumb/v7e-m+fp/hard/libnosys.a(_exit.o)
                              /usr/lib/gcc/arm-none-eabi/8.3.1/../../../arm-none-eabi/lib/thumb/v7e-m+fp/hard/libc_nano.a(lib_a-abort.o) (_exit)
/usr/lib/gcc/arm-none-eabi/8.3.1/thumb/v7e-m+fp/hard/libgcc.a(_arm_addsubdf3.o)
                              /usr/lib/gcc/arm-none-eabi/8.3.1/../../../arm-none-eabi/lib/thumb/v7e-m+fp/hard/libc_nano.a(lib_a-dtoa.o) (__aeabi_dsub)
/usr/lib/gcc/arm-none-eabi/8.3.1/thumb/v7e-m+fp/hard/libgcc.a(_arm_muldivdf3.o)
                              /usr/lib/gcc/arm-none-eabi/8.3.1/../../../arm-none-eabi/lib/thumb/v7e-m+fp/hard/libc_nano.a(lib_a-dtoa.o) (__aeabi_dmul)
/usr/lib/gcc/arm-none-eabi/8.3.1/thumb/v7e-m+fp/hard/libgcc.a(_arm_cmpdf2.o)
                              /usr/lib/gcc/arm-none-eabi/8.3.1/../../../arm-none-eabi/lib/thumb/v7e-m+fp/hard/libc_nano.a(lib_a-nano-vfprintf_float.o) (__aeabi_dcmpeq)
/usr/lib/gcc/arm-none-eabi/8.3.1/thumb/v7e-m+fp/hard/libgcc.a(_arm_unorddf2.o)
                              /usr/lib/gcc/arm-none-eabi/8.3.1/../../../arm-none-eabi/lib/thumb/v7e-m+fp/hard/libc_nano.a(lib_a-nano-vfprintf_float.o) (__aeabi_dcmpun)
/usr/lib/gcc/arm-none-eabi/8.3.1/thumb/v7e-m+fp/hard/libgcc.a(_arm_fixdfsi.o)
                              /usr/lib/gcc/arm-none-eabi/8.3.1/../../../arm-none-eabi/lib/thumb/v7e-m+fp/hard/libc_nano.a(lib_a-dtoa.o) (__aeabi_d2iz)
/usr/lib/gcc/arm-none-eabi/8.3.1/thumb/v7e-m+fp/hard/libgcc.a(_aeabi_uldivmod.o)
                              build/stm32wbxx_hal_uart.o (__aeabi_uldivmod)
/usr/lib/gcc/arm-none-eabi/8.3.1/thumb/v7e-m+fp/hard/libgcc.a(_udivmoddi4.o)
                              /usr/lib/gcc/arm-none-eabi/8.3.1/thumb/v7e-m+fp/hard/libgcc.a(_aeabi_uldivmod.o) (__udivmoddi4)
/usr/lib/gcc/arm-none-eabi/8.3.1/thumb/v7e-m+fp/hard/libgcc.a(_dvmd_tls.o)
                              /usr/lib/gcc/arm-none-eabi/8.3.1/thumb/v7e-m+fp/hard/libgcc.a(_aeabi_uldivmod.o) (__aeabi_ldiv0)

Allocating common symbols
Common symbol       size              file

dat                 0x61              build/run.o
defaultTaskHandle   0x4               build/main.o
gHuart              0x4               build/retarget.o
errno               0x4               /usr/lib/gcc/arm-none-eabi/8.3.1/../../../arm-none-eabi/lib/thumb/v7e-m+fp/hard/libc_nano.a(lib_a-reent.o)
uwTick              0x4               build/stm32wbxx_hal.o
xQueueRegistry      0x40              build/queue.o
huart1              0x90              build/main.o
htim1               0x4c              build/stm32wbxx_hal_timebase_tim.o

Discarded input sections

 .text          0x0000000000000000        0x0 /usr/lib/gcc/arm-none-eabi/8.3.1/thumb/v7e-m+fp/hard/crti.o
 .data          0x0000000000000000        0x0 /usr/lib/gcc/arm-none-eabi/8.3.1/thumb/v7e-m+fp/hard/crti.o
 .bss           0x0000000000000000        0x0 /usr/lib/gcc/arm-none-eabi/8.3.1/thumb/v7e-m+fp/hard/crti.o
 .data          0x0000000000000000        0x4 /usr/lib/gcc/arm-none-eabi/8.3.1/thumb/v7e-m+fp/hard/crtbegin.o
 .text          0x0000000000000000       0x70 /usr/lib/gcc/arm-none-eabi/8.3.1/../../../arm-none-eabi/lib/thumb/v7e-m+fp/hard/crt0.o
 .data          0x0000000000000000        0x0 /usr/lib/gcc/arm-none-eabi/8.3.1/../../../arm-none-eabi/lib/thumb/v7e-m+fp/hard/crt0.o
 .bss           0x0000000000000000        0x0 /usr/lib/gcc/arm-none-eabi/8.3.1/../../../arm-none-eabi/lib/thumb/v7e-m+fp/hard/crt0.o
 .ARM.extab     0x0000000000000000        0x0 /usr/lib/gcc/arm-none-eabi/8.3.1/../../../arm-none-eabi/lib/thumb/v7e-m+fp/hard/crt0.o
 .ARM.exidx     0x0000000000000000       0x10 /usr/lib/gcc/arm-none-eabi/8.3.1/../../../arm-none-eabi/lib/thumb/v7e-m+fp/hard/crt0.o
 .debug_line    0x0000000000000000       0x87 /usr/lib/gcc/arm-none-eabi/8.3.1/../../../arm-none-eabi/lib/thumb/v7e-m+fp/hard/crt0.o
 .debug_info    0x0000000000000000       0x26 /usr/lib/gcc/arm-none-eabi/8.3.1/../../../arm-none-eabi/lib/thumb/v7e-m+fp/hard/crt0.o
 .debug_abbrev  0x0000000000000000       0x14 /usr/lib/gcc/arm-none-eabi/8.3.1/../../../arm-none-eabi/lib/thumb/v7e-m+fp/hard/crt0.o
 .debug_aranges
                0x0000000000000000       0x20 /usr/lib/gcc/arm-none-eabi/8.3.1/../../../arm-none-eabi/lib/thumb/v7e-m+fp/hard/crt0.o
 .debug_str     0x0000000000000000       0x9b /usr/lib/gcc/arm-none-eabi/8.3.1/../../../arm-none-eabi/lib/thumb/v7e-m+fp/hard/crt0.o
 .ARM.attributes
                0x0000000000000000       0x1c /usr/lib/gcc/arm-none-eabi/8.3.1/../../../arm-none-eabi/lib/thumb/v7e-m+fp/hard/crt0.o
 .text          0x0000000000000000        0x0 build/run.o
 .data          0x0000000000000000        0x0 build/run.o
 .bss           0x0000000000000000        0x0 build/run.o
 .text          0x0000000000000000        0x0 build/retarget.o
 .data          0x0000000000000000        0x0 build/retarget.o
 .bss           0x0000000000000000        0x0 build/retarget.o
 .text          0x0000000000000000        0x0 build/main.o
 .data          0x0000000000000000        0x0 build/main.o
 .bss           0x0000000000000000        0x0 build/main.o
 .text.Random   0x0000000000000000        0x2 build/main.o
 .text.save_flash
                0x0000000000000000        0x2 build/main.o
 .text.get_program_signature
                0x0000000000000000        0x2 build/main.o
 .text.get_user_signature
                0x0000000000000000        0x2 build/main.o
 .text          0x0000000000000000        0x0 build/encrypt.o
 .data          0x0000000000000000        0x0 build/encrypt.o
 .bss           0x0000000000000000        0x0 build/encrypt.o
 .text.encrypt  0x0000000000000000       0x82 build/encrypt.o
 .text          0x0000000000000000        0x0 build/sha256.o
 .data          0x0000000000000000        0x0 build/sha256.o
 .bss           0x0000000000000000        0x0 build/sha256.o
 .text.SHA256_hex
                0x0000000000000000       0x5c build/sha256.o
 .rodata.SHA256_hex.str1.4
                0x0000000000000000        0x5 build/sha256.o
 .text          0x0000000000000000        0x0 build/aes.o
 .data          0x0000000000000000        0x0 build/aes.o
 .bss           0x0000000000000000        0x0 build/aes.o
 .text          0x0000000000000000        0x0 build/app_freertos.o
 .data          0x0000000000000000        0x0 build/app_freertos.o
 .bss           0x0000000000000000        0x0 build/app_freertos.o
 .debug_info    0x0000000000000000      0x26e build/app_freertos.o
 .debug_abbrev  0x0000000000000000       0xb7 build/app_freertos.o
 .debug_aranges
                0x0000000000000000       0x18 build/app_freertos.o
 .debug_line    0x0000000000000000      0x14f build/app_freertos.o
 .debug_str     0x0000000000000000      0x30c build/app_freertos.o
 .comment       0x0000000000000000       0x52 build/app_freertos.o
 .ARM.attributes
                0x0000000000000000       0x39 build/app_freertos.o
 .text          0x0000000000000000        0x0 build/stm32wbxx_it.o
 .data          0x0000000000000000        0x0 build/stm32wbxx_it.o
 .bss           0x0000000000000000        0x0 build/stm32wbxx_it.o
 .text          0x0000000000000000        0x0 build/stm32wbxx_hal_msp.o
 .data          0x0000000000000000        0x0 build/stm32wbxx_hal_msp.o
 .bss           0x0000000000000000        0x0 build/stm32wbxx_hal_msp.o
 .text.HAL_UART_MspDeInit
                0x0000000000000000       0x30 build/stm32wbxx_hal_msp.o
 .text          0x0000000000000000        0x0 build/stm32wbxx_hal_timebase_tim.o
 .data          0x0000000000000000        0x0 build/stm32wbxx_hal_timebase_tim.o
 .bss           0x0000000000000000        0x0 build/stm32wbxx_hal_timebase_tim.o
 .text.HAL_SuspendTick
                0x0000000000000000       0x14 build/stm32wbxx_hal_timebase_tim.o
 .text.HAL_ResumeTick
                0x0000000000000000       0x14 build/stm32wbxx_hal_timebase_tim.o
 .text          0x0000000000000000        0x0 build/stm32wbxx_hal_rcc.o
 .data          0x0000000000000000        0x0 build/stm32wbxx_hal_rcc.o
 .bss           0x0000000000000000        0x0 build/stm32wbxx_hal_rcc.o
 .text.HAL_RCC_DeInit
                0x0000000000000000      0x120 build/stm32wbxx_hal_rcc.o
 .text.HAL_RCC_MCOConfig
                0x0000000000000000       0xb8 build/stm32wbxx_hal_rcc.o
 .text.HAL_RCC_GetHCLK2Freq
                0x0000000000000000       0x24 build/stm32wbxx_hal_rcc.o
 .text.HAL_RCC_GetHCLK4Freq
                0x0000000000000000       0x24 build/stm32wbxx_hal_rcc.o
 .text.HAL_RCC_GetOscConfig
                0x0000000000000000      0x122 build/stm32wbxx_hal_rcc.o
 .text.HAL_RCC_EnableCSS
                0x0000000000000000        0xe build/stm32wbxx_hal_rcc.o
 .text.HAL_RCC_CSSCallback
                0x0000000000000000        0x2 build/stm32wbxx_hal_rcc.o
 .text.HAL_RCC_NMI_IRQHandler
                0x0000000000000000       0x20 build/stm32wbxx_hal_rcc.o
 .text.HAL_RCC_GetResetSource
                0x0000000000000000       0x1a build/stm32wbxx_hal_rcc.o
 .text          0x0000000000000000        0x0 build/stm32wbxx_hal_rcc_ex.o
 .data          0x0000000000000000        0x0 build/stm32wbxx_hal_rcc_ex.o
 .bss           0x0000000000000000        0x0 build/stm32wbxx_hal_rcc_ex.o
 .text.RCC_PLL_GetFreqDomain_P
                0x0000000000000000       0x98 build/stm32wbxx_hal_rcc_ex.o
 .text.RCC_PLL_GetFreqDomain_Q
                0x0000000000000000       0x98 build/stm32wbxx_hal_rcc_ex.o
 .text.RCC_PLLSAI1_GetFreqDomain_R
                0x0000000000000000       0x98 build/stm32wbxx_hal_rcc_ex.o
 .text.RCC_PLLSAI1_GetFreqDomain_P
                0x0000000000000000       0x98 build/stm32wbxx_hal_rcc_ex.o
 .text.RCC_PLLSAI1_GetFreqDomain_Q
                0x0000000000000000       0x98 build/stm32wbxx_hal_rcc_ex.o
 .text.HAL_RCCEx_GetRngCLKSource
                0x0000000000000000       0x1c build/stm32wbxx_hal_rcc_ex.o
 .text.HAL_RCCEx_GetPeriphCLKConfig
                0x0000000000000000       0xcc build/stm32wbxx_hal_rcc_ex.o
 .text.HAL_RCCEx_GetPeriphCLKFreq
                0x0000000000000000      0x730 build/stm32wbxx_hal_rcc_ex.o
 .text.HAL_RCCEx_EnablePLLSAI1
                0x0000000000000000       0x8c build/stm32wbxx_hal_rcc_ex.o
 .text.HAL_RCCEx_DisablePLLSAI1
                0x0000000000000000       0x42 build/stm32wbxx_hal_rcc_ex.o
 .text.HAL_RCCEx_WakeUpStopCLKConfig
                0x0000000000000000       0x10 build/stm32wbxx_hal_rcc_ex.o
 .text.HAL_RCCEx_EnableLSECSS
                0x0000000000000000       0x12 build/stm32wbxx_hal_rcc_ex.o
 .text.HAL_RCCEx_DisableLSECSS
                0x0000000000000000       0x1a build/stm32wbxx_hal_rcc_ex.o
 .text.HAL_RCCEx_EnableLSECSS_IT
                0x0000000000000000       0x32 build/stm32wbxx_hal_rcc_ex.o
 .text.HAL_RCCEx_LSECSS_Callback
                0x0000000000000000        0x2 build/stm32wbxx_hal_rcc_ex.o
 .text.HAL_RCCEx_LSECSS_IRQHandler
                0x0000000000000000       0x20 build/stm32wbxx_hal_rcc_ex.o
 .text.HAL_RCCEx_LSCOConfig
                0x0000000000000000       0xdc build/stm32wbxx_hal_rcc_ex.o
 .text.HAL_RCCEx_EnableLSCO
                0x0000000000000000       0x74 build/stm32wbxx_hal_rcc_ex.o
 .text.HAL_RCCEx_DisableLSCO
                0x0000000000000000       0x34 build/stm32wbxx_hal_rcc_ex.o
 .text.HAL_RCCEx_EnableMSIPLLMode
                0x0000000000000000        0xe build/stm32wbxx_hal_rcc_ex.o
 .text.HAL_RCCEx_DisableMSIPLLMode
                0x0000000000000000        0xe build/stm32wbxx_hal_rcc_ex.o
 .text.HAL_RCCEx_TrimOsc
                0x0000000000000000       0x40 build/stm32wbxx_hal_rcc_ex.o
 .text.HAL_RCCEx_CRSConfig
                0x0000000000000000       0x48 build/stm32wbxx_hal_rcc_ex.o
 .text.HAL_RCCEx_CRSSoftwareSynchronizationGenerate
                0x0000000000000000       0x10 build/stm32wbxx_hal_rcc_ex.o
 .text.HAL_RCCEx_CRSGetSynchronizationInfo
                0x0000000000000000       0x24 build/stm32wbxx_hal_rcc_ex.o
 .text.HAL_RCCEx_CRSWaitSynchronization
                0x0000000000000000       0xac build/stm32wbxx_hal_rcc_ex.o
 .text.HAL_RCCEx_CRS_SyncOkCallback
                0x0000000000000000        0x2 build/stm32wbxx_hal_rcc_ex.o
 .text.HAL_RCCEx_CRS_SyncWarnCallback
                0x0000000000000000        0x2 build/stm32wbxx_hal_rcc_ex.o
 .text.HAL_RCCEx_CRS_ExpectedSyncCallback
                0x0000000000000000        0x2 build/stm32wbxx_hal_rcc_ex.o
 .text.HAL_RCCEx_CRS_ErrorCallback
                0x0000000000000000        0x2 build/stm32wbxx_hal_rcc_ex.o
 .text.HAL_RCCEx_CRS_IRQHandler
                0x0000000000000000       0x88 build/stm32wbxx_hal_rcc_ex.o
 .text          0x0000000000000000        0x0 build/stm32wbxx_hal_flash.o
 .data          0x0000000000000000        0x0 build/stm32wbxx_hal_flash.o
 .bss           0x0000000000000000        0x0 build/stm32wbxx_hal_flash.o
 .text.FLASH_Program_DoubleWord
                0x0000000000000000       0x20 build/stm32wbxx_hal_flash.o
 .RamFunc       0x0000000000000000       0x3c build/stm32wbxx_hal_flash.o
 .text.HAL_FLASH_EndOfOperationCallback
                0x0000000000000000        0x2 build/stm32wbxx_hal_flash.o
 .text.HAL_FLASH_OperationErrorCallback
                0x0000000000000000        0x2 build/stm32wbxx_hal_flash.o
 .text.HAL_FLASH_IRQHandler
                0x0000000000000000       0xbc build/stm32wbxx_hal_flash.o
 .text.HAL_FLASH_Unlock
                0x0000000000000000       0x30 build/stm32wbxx_hal_flash.o
 .text.HAL_FLASH_Lock
                0x0000000000000000       0x1c build/stm32wbxx_hal_flash.o
 .text.HAL_FLASH_OB_Unlock
                0x0000000000000000       0x34 build/stm32wbxx_hal_flash.o
 .text.HAL_FLASH_OB_Lock
                0x0000000000000000       0x20 build/stm32wbxx_hal_flash.o
 .text.HAL_FLASH_OB_Launch
                0x0000000000000000       0x14 build/stm32wbxx_hal_flash.o
 .text.HAL_FLASH_GetError
                0x0000000000000000        0xc build/stm32wbxx_hal_flash.o
 .text.FLASH_WaitForLastOperation
                0x0000000000000000       0x6c build/stm32wbxx_hal_flash.o
 .text.HAL_FLASH_Program
                0x0000000000000000       0x70 build/stm32wbxx_hal_flash.o
 .text.HAL_FLASH_Program_IT
                0x0000000000000000       0x6c build/stm32wbxx_hal_flash.o
 .bss.pFlash    0x0000000000000000       0x18 build/stm32wbxx_hal_flash.o
 .debug_info    0x0000000000000000      0xa0b build/stm32wbxx_hal_flash.o
 .debug_abbrev  0x0000000000000000      0x362 build/stm32wbxx_hal_flash.o
 .debug_loc     0x0000000000000000      0x59c build/stm32wbxx_hal_flash.o
 .debug_aranges
                0x0000000000000000       0x88 build/stm32wbxx_hal_flash.o
 .debug_ranges  0x0000000000000000       0x78 build/stm32wbxx_hal_flash.o
 .debug_line    0x0000000000000000      0x6bf build/stm32wbxx_hal_flash.o
 .debug_str     0x0000000000000000      0x612 build/stm32wbxx_hal_flash.o
 .comment       0x0000000000000000       0x52 build/stm32wbxx_hal_flash.o
 .debug_frame   0x0000000000000000      0x13c build/stm32wbxx_hal_flash.o
 .ARM.attributes
                0x0000000000000000       0x34 build/stm32wbxx_hal_flash.o
 .text          0x0000000000000000        0x0 build/stm32wbxx_hal_flash_ex.o
 .data          0x0000000000000000        0x0 build/stm32wbxx_hal_flash_ex.o
 .bss           0x0000000000000000        0x0 build/stm32wbxx_hal_flash_ex.o
 .text.FLASH_FlushCaches
                0x0000000000000000       0x60 build/stm32wbxx_hal_flash_ex.o
 .text.FLASH_AcknowledgePageErase
                0x0000000000000000       0x14 build/stm32wbxx_hal_flash_ex.o
 .text.FLASH_OB_WRPConfig
                0x0000000000000000       0x2c build/stm32wbxx_hal_flash_ex.o
 .text.FLASH_OB_OptrConfig
                0x0000000000000000       0x20 build/stm32wbxx_hal_flash_ex.o
 .text.FLASH_OB_PCROP1AConfig
                0x0000000000000000       0x50 build/stm32wbxx_hal_flash_ex.o
 .text.FLASH_OB_PCROP1BConfig
                0x0000000000000000       0x18 build/stm32wbxx_hal_flash_ex.o
 .text.FLASH_OB_IPCCBufferAddrConfig
                0x0000000000000000       0x14 build/stm32wbxx_hal_flash_ex.o
 .text.FLASH_OB_SecureConfig
                0x0000000000000000       0xb0 build/stm32wbxx_hal_flash_ex.o
 .text.FLASH_OB_GetWRP
                0x0000000000000000       0x2c build/stm32wbxx_hal_flash_ex.o
 .text.FLASH_OB_GetRDP
                0x0000000000000000       0x18 build/stm32wbxx_hal_flash_ex.o
 .text.FLASH_OB_GetUser
                0x0000000000000000       0x14 build/stm32wbxx_hal_flash_ex.o
 .text.FLASH_OB_GetPCROP
                0x0000000000000000       0x4c build/stm32wbxx_hal_flash_ex.o
 .text.FLASH_OB_GetIPCCBufferAddr
                0x0000000000000000       0x1c build/stm32wbxx_hal_flash_ex.o
 .text.FLASH_OB_GetSecureMemoryConfig
                0x0000000000000000       0x4c build/stm32wbxx_hal_flash_ex.o
 .text.FLASH_OB_GetC2BootResetConfig
                0x0000000000000000       0x40 build/stm32wbxx_hal_flash_ex.o
 .text.FLASH_OB_ProceedWriteOperation
                0x0000000000000000       0x2c build/stm32wbxx_hal_flash_ex.o
 .text.HAL_FLASHEx_OBProgram
                0x0000000000000000       0xd4 build/stm32wbxx_hal_flash_ex.o
 .text.HAL_FLASHEx_OBGetConfig
                0x0000000000000000       0x80 build/stm32wbxx_hal_flash_ex.o
 .text.HAL_FLASHEx_FlashEmptyCheck
                0x0000000000000000       0x10 build/stm32wbxx_hal_flash_ex.o
 .text.HAL_FLASHEx_ForceFlashEmpty
                0x0000000000000000       0x14 build/stm32wbxx_hal_flash_ex.o
 .text.HAL_FLASHEx_SuspendOperation
                0x0000000000000000       0x10 build/stm32wbxx_hal_flash_ex.o
 .text.HAL_FLASHEx_AllowOperation
                0x0000000000000000       0x10 build/stm32wbxx_hal_flash_ex.o
 .text.HAL_FLASHEx_IsOperationSuspended
                0x0000000000000000       0x14 build/stm32wbxx_hal_flash_ex.o
 .text.FLASH_PageErase
                0x0000000000000000       0x1c build/stm32wbxx_hal_flash_ex.o
 .text.HAL_FLASHEx_Erase
                0x0000000000000000       0x70 build/stm32wbxx_hal_flash_ex.o
 .text.HAL_FLASHEx_Erase_IT
                0x0000000000000000       0x5c build/stm32wbxx_hal_flash_ex.o
 .debug_info    0x0000000000000000      0xe8c build/stm32wbxx_hal_flash_ex.o
 .debug_abbrev  0x0000000000000000      0x310 build/stm32wbxx_hal_flash_ex.o
 .debug_loc     0x0000000000000000      0x9fc build/stm32wbxx_hal_flash_ex.o
 .debug_aranges
                0x0000000000000000       0xe8 build/stm32wbxx_hal_flash_ex.o
 .debug_ranges  0x0000000000000000       0xd8 build/stm32wbxx_hal_flash_ex.o
 .debug_line    0x0000000000000000      0x977 build/stm32wbxx_hal_flash_ex.o
 .debug_str     0x0000000000000000      0x8b4 build/stm32wbxx_hal_flash_ex.o
 .comment       0x0000000000000000       0x52 build/stm32wbxx_hal_flash_ex.o
 .debug_frame   0x0000000000000000      0x240 build/stm32wbxx_hal_flash_ex.o
 .ARM.attributes
                0x0000000000000000       0x34 build/stm32wbxx_hal_flash_ex.o
 .text          0x0000000000000000        0x0 build/stm32wbxx_hal_gpio.o
 .data          0x0000000000000000        0x0 build/stm32wbxx_hal_gpio.o
 .bss           0x0000000000000000        0x0 build/stm32wbxx_hal_gpio.o
 .text.HAL_GPIO_DeInit
                0x0000000000000000      0x108 build/stm32wbxx_hal_gpio.o
 .text.HAL_GPIO_ReadPin
                0x0000000000000000        0xe build/stm32wbxx_hal_gpio.o
 .text.HAL_GPIO_TogglePin
                0x0000000000000000       0x12 build/stm32wbxx_hal_gpio.o
 .text.HAL_GPIO_LockPin
                0x0000000000000000       0x2e build/stm32wbxx_hal_gpio.o
 .text.HAL_GPIO_EXTI_Callback
                0x0000000000000000        0x2 build/stm32wbxx_hal_gpio.o
 .text.HAL_GPIO_EXTI_IRQHandler
                0x0000000000000000       0x1c build/stm32wbxx_hal_gpio.o
 .text          0x0000000000000000        0x0 build/stm32wbxx_hal_hsem.o
 .data          0x0000000000000000        0x0 build/stm32wbxx_hal_hsem.o
 .bss           0x0000000000000000        0x0 build/stm32wbxx_hal_hsem.o
 .debug_info    0x0000000000000000      0x267 build/stm32wbxx_hal_hsem.o
 .debug_abbrev  0x0000000000000000       0xb7 build/stm32wbxx_hal_hsem.o
 .debug_aranges
                0x0000000000000000       0x18 build/stm32wbxx_hal_hsem.o
 .debug_line    0x0000000000000000      0x132 build/stm32wbxx_hal_hsem.o
 .debug_str     0x0000000000000000      0x325 build/stm32wbxx_hal_hsem.o
 .comment       0x0000000000000000       0x52 build/stm32wbxx_hal_hsem.o
 .ARM.attributes
                0x0000000000000000       0x39 build/stm32wbxx_hal_hsem.o
 .text          0x0000000000000000        0x0 build/stm32wbxx_hal_dma.o
 .data          0x0000000000000000        0x0 build/stm32wbxx_hal_dma.o
 .bss           0x0000000000000000        0x0 build/stm32wbxx_hal_dma.o
 .text.DMA_SetConfig
                0x0000000000000000       0x40 build/stm32wbxx_hal_dma.o
 .text.DMA_CalcDMAMUXChannelBaseAndMask
                0x0000000000000000       0x54 build/stm32wbxx_hal_dma.o
 .text.DMA_CalcDMAMUXRequestGenBaseAndMask
                0x0000000000000000       0x2c build/stm32wbxx_hal_dma.o
 .text.HAL_DMA_Init
                0x0000000000000000       0xdc build/stm32wbxx_hal_dma.o
 .text.HAL_DMA_DeInit
                0x0000000000000000       0xb8 build/stm32wbxx_hal_dma.o
 .text.HAL_DMA_Start
                0x0000000000000000       0x52 build/stm32wbxx_hal_dma.o
 .text.HAL_DMA_Start_IT
                0x0000000000000000       0x94 build/stm32wbxx_hal_dma.o
 .text.HAL_DMA_PollForTransfer
                0x0000000000000000      0x11e build/stm32wbxx_hal_dma.o
 .text.HAL_DMA_IRQHandler
                0x0000000000000000       0xc4 build/stm32wbxx_hal_dma.o
 .text.HAL_DMA_RegisterCallback
                0x0000000000000000       0x4c build/stm32wbxx_hal_dma.o
 .text.HAL_DMA_UnRegisterCallback
                0x0000000000000000       0x5c build/stm32wbxx_hal_dma.o
 .text.HAL_DMA_GetState
                0x0000000000000000        0x6 build/stm32wbxx_hal_dma.o
 .text.HAL_DMA_GetError
                0x0000000000000000        0x4 build/stm32wbxx_hal_dma.o
 .text          0x0000000000000000        0x0 build/stm32wbxx_hal_dma_ex.o
 .data          0x0000000000000000        0x0 build/stm32wbxx_hal_dma_ex.o
 .bss           0x0000000000000000        0x0 build/stm32wbxx_hal_dma_ex.o
 .text.HAL_DMAEx_ConfigMuxSync
                0x0000000000000000       0x58 build/stm32wbxx_hal_dma_ex.o
 .text.HAL_DMAEx_ConfigMuxRequestGenerator
                0x0000000000000000       0x46 build/stm32wbxx_hal_dma_ex.o
 .text.HAL_DMAEx_EnableMuxRequestGenerator
                0x0000000000000000       0x1e build/stm32wbxx_hal_dma_ex.o
 .text.HAL_DMAEx_DisableMuxRequestGenerator
                0x0000000000000000       0x1e build/stm32wbxx_hal_dma_ex.o
 .text.HAL_DMAEx_MUX_IRQHandler
                0x0000000000000000       0x5a build/stm32wbxx_hal_dma_ex.o
 .debug_info    0x0000000000000000      0x851 build/stm32wbxx_hal_dma_ex.o
 .debug_abbrev  0x0000000000000000      0x1ba build/stm32wbxx_hal_dma_ex.o
 .debug_loc     0x0000000000000000      0x249 build/stm32wbxx_hal_dma_ex.o
 .debug_aranges
                0x0000000000000000       0x40 build/stm32wbxx_hal_dma_ex.o
 .debug_ranges  0x0000000000000000       0x30 build/stm32wbxx_hal_dma_ex.o
 .debug_line    0x0000000000000000      0x395 build/stm32wbxx_hal_dma_ex.o
 .debug_str     0x0000000000000000      0x788 build/stm32wbxx_hal_dma_ex.o
 .comment       0x0000000000000000       0x52 build/stm32wbxx_hal_dma_ex.o
 .debug_frame   0x0000000000000000       0x84 build/stm32wbxx_hal_dma_ex.o
 .ARM.attributes
                0x0000000000000000       0x34 build/stm32wbxx_hal_dma_ex.o
 .text          0x0000000000000000        0x0 build/stm32wbxx_hal_pwr.o
 .data          0x0000000000000000        0x0 build/stm32wbxx_hal_pwr.o
 .bss           0x0000000000000000        0x0 build/stm32wbxx_hal_pwr.o
 .text.HAL_PWR_DeInit
                0x0000000000000000       0x4c build/stm32wbxx_hal_pwr.o
 .text.HAL_PWR_DisableBkUpAccess
                0x0000000000000000       0x10 build/stm32wbxx_hal_pwr.o
 .text.HAL_PWR_ConfigPVD
                0x0000000000000000       0x80 build/stm32wbxx_hal_pwr.o
 .text.HAL_PWR_EnablePVD
                0x0000000000000000       0x10 build/stm32wbxx_hal_pwr.o
 .text.HAL_PWR_DisablePVD
                0x0000000000000000       0x10 build/stm32wbxx_hal_pwr.o
 .text.HAL_PWR_EnableWakeUpPin
                0x0000000000000000       0x20 build/stm32wbxx_hal_pwr.o
 .text.HAL_PWR_DisableWakeUpPin
                0x0000000000000000       0x14 build/stm32wbxx_hal_pwr.o
 .text.HAL_PWR_EnterSLEEPMode
                0x0000000000000000       0x4c build/stm32wbxx_hal_pwr.o
 .text.HAL_PWR_EnterSTOPMode
                0x0000000000000000       0x18 build/stm32wbxx_hal_pwr.o
 .text.HAL_PWR_EnterSTANDBYMode
                0x0000000000000000       0x2c build/stm32wbxx_hal_pwr.o
 .text.HAL_PWR_EnableSleepOnExit
                0x0000000000000000       0x10 build/stm32wbxx_hal_pwr.o
 .text.HAL_PWR_DisableSleepOnExit
                0x0000000000000000       0x10 build/stm32wbxx_hal_pwr.o
 .text.HAL_PWR_EnableSEVOnPend
                0x0000000000000000       0x10 build/stm32wbxx_hal_pwr.o
 .text.HAL_PWR_DisableSEVOnPend
                0x0000000000000000       0x10 build/stm32wbxx_hal_pwr.o
 .text.HAL_PWR_PVDCallback
                0x0000000000000000        0x2 build/stm32wbxx_hal_pwr.o
 .text          0x0000000000000000        0x0 build/stm32wbxx_hal_pwr_ex.o
 .data          0x0000000000000000        0x0 build/stm32wbxx_hal_pwr_ex.o
 .bss           0x0000000000000000        0x0 build/stm32wbxx_hal_pwr_ex.o
 .text.HAL_PWREx_ControlVoltageScaling
                0x0000000000000000       0x90 build/stm32wbxx_hal_pwr_ex.o
 .text.HAL_PWREx_EnableBatteryCharging
                0x0000000000000000       0x1c build/stm32wbxx_hal_pwr_ex.o
 .text.HAL_PWREx_DisableBatteryCharging
                0x0000000000000000       0x10 build/stm32wbxx_hal_pwr_ex.o
 .text.HAL_PWREx_EnableVddUSB
                0x0000000000000000       0x10 build/stm32wbxx_hal_pwr_ex.o
 .text.HAL_PWREx_DisableVddUSB
                0x0000000000000000       0x10 build/stm32wbxx_hal_pwr_ex.o
 .text.HAL_PWREx_EnableInternalWakeUpLine
                0x0000000000000000       0x10 build/stm32wbxx_hal_pwr_ex.o
 .text.HAL_PWREx_DisableInternalWakeUpLine
                0x0000000000000000       0x10 build/stm32wbxx_hal_pwr_ex.o
 .text.HAL_PWREx_EnableBORH_SMPSBypassIT
                0x0000000000000000       0x10 build/stm32wbxx_hal_pwr_ex.o
 .text.HAL_PWREx_DisableBORH_SMPSBypassIT
                0x0000000000000000       0x10 build/stm32wbxx_hal_pwr_ex.o
 .text.HAL_PWREx_EnableRFPhaseIT
                0x0000000000000000       0x10 build/stm32wbxx_hal_pwr_ex.o
 .text.HAL_PWREx_DisableRFPhaseIT
                0x0000000000000000       0x10 build/stm32wbxx_hal_pwr_ex.o
 .text.HAL_PWREx_EnableBLEActivityIT
                0x0000000000000000       0x10 build/stm32wbxx_hal_pwr_ex.o
 .text.HAL_PWREx_DisableBLEActivityIT
                0x0000000000000000       0x10 build/stm32wbxx_hal_pwr_ex.o
 .text.HAL_PWREx_Enable802ActivityIT
                0x0000000000000000       0x10 build/stm32wbxx_hal_pwr_ex.o
 .text.HAL_PWREx_Disable802ActivityIT
                0x0000000000000000       0x10 build/stm32wbxx_hal_pwr_ex.o
 .text.HAL_PWREx_EnableHOLDC2IT
                0x0000000000000000       0x10 build/stm32wbxx_hal_pwr_ex.o
 .text.HAL_PWREx_DisableHOLDC2IT
                0x0000000000000000       0x10 build/stm32wbxx_hal_pwr_ex.o
 .text.HAL_PWREx_EnableGPIOPullUp
                0x0000000000000000       0x98 build/stm32wbxx_hal_pwr_ex.o
 .text.HAL_PWREx_DisableGPIOPullUp
                0x0000000000000000       0x74 build/stm32wbxx_hal_pwr_ex.o
 .text.HAL_PWREx_EnableGPIOPullDown
                0x0000000000000000       0x98 build/stm32wbxx_hal_pwr_ex.o
 .text.HAL_PWREx_DisableGPIOPullDown
                0x0000000000000000       0x74 build/stm32wbxx_hal_pwr_ex.o
 .text.HAL_PWREx_EnablePullUpPullDownConfig
                0x0000000000000000       0x10 build/stm32wbxx_hal_pwr_ex.o
 .text.HAL_PWREx_DisablePullUpPullDownConfig
                0x0000000000000000       0x10 build/stm32wbxx_hal_pwr_ex.o
 .text.HAL_PWREx_SetBORConfig
                0x0000000000000000       0x14 build/stm32wbxx_hal_pwr_ex.o
 .text.HAL_PWREx_GetBORConfig
                0x0000000000000000       0x10 build/stm32wbxx_hal_pwr_ex.o
 .text.HAL_PWREx_HoldCore
                0x0000000000000000       0x10 build/stm32wbxx_hal_pwr_ex.o
 .text.HAL_PWREx_ReleaseCore
                0x0000000000000000       0x10 build/stm32wbxx_hal_pwr_ex.o
 .text.HAL_PWREx_EnableSRAMRetention
                0x0000000000000000       0x10 build/stm32wbxx_hal_pwr_ex.o
 .text.HAL_PWREx_DisableSRAMRetention
                0x0000000000000000       0x10 build/stm32wbxx_hal_pwr_ex.o
 .text.HAL_PWREx_EnableFlashPowerDown
                0x0000000000000000       0x1c build/stm32wbxx_hal_pwr_ex.o
 .text.HAL_PWREx_DisableFlashPowerDown
                0x0000000000000000       0x10 build/stm32wbxx_hal_pwr_ex.o
 .text.HAL_PWREx_EnablePVM1
                0x0000000000000000       0x10 build/stm32wbxx_hal_pwr_ex.o
 .text.HAL_PWREx_DisablePVM1
                0x0000000000000000       0x10 build/stm32wbxx_hal_pwr_ex.o
 .text.HAL_PWREx_EnablePVM3
                0x0000000000000000       0x10 build/stm32wbxx_hal_pwr_ex.o
 .text.HAL_PWREx_DisablePVM3
                0x0000000000000000       0x10 build/stm32wbxx_hal_pwr_ex.o
 .text.HAL_PWREx_ConfigPVM
                0x0000000000000000      0x118 build/stm32wbxx_hal_pwr_ex.o
 .text.HAL_PWREx_ConfigSMPS
                0x0000000000000000       0x68 build/stm32wbxx_hal_pwr_ex.o
 .text.HAL_PWREx_SMPS_SetMode
                0x0000000000000000       0x18 build/stm32wbxx_hal_pwr_ex.o
 .text.HAL_PWREx_SMPS_GetEffectiveMode
                0x0000000000000000       0x10 build/stm32wbxx_hal_pwr_ex.o
 .text.HAL_PWREx_EnableWakeUpPin
                0x0000000000000000       0x38 build/stm32wbxx_hal_pwr_ex.o
 .text.HAL_PWREx_GetWakeupFlag
                0x0000000000000000       0x18 build/stm32wbxx_hal_pwr_ex.o
 .text.HAL_PWREx_ClearWakeupFlag
                0x0000000000000000       0x24 build/stm32wbxx_hal_pwr_ex.o
 .text.HAL_PWREx_EnableLowPowerRunMode
                0x0000000000000000       0x10 build/stm32wbxx_hal_pwr_ex.o
 .text.HAL_PWREx_DisableLowPowerRunMode
                0x0000000000000000       0x50 build/stm32wbxx_hal_pwr_ex.o
 .text.HAL_PWREx_EnterSTOP0Mode
                0x0000000000000000       0x38 build/stm32wbxx_hal_pwr_ex.o
 .text.HAL_PWREx_EnterSTOP1Mode
                0x0000000000000000       0x3c build/stm32wbxx_hal_pwr_ex.o
 .text.HAL_PWREx_EnterSTOP2Mode
                0x0000000000000000       0x3c build/stm32wbxx_hal_pwr_ex.o
 .text.HAL_PWREx_EnterSHUTDOWNMode
                0x0000000000000000       0x2c build/stm32wbxx_hal_pwr_ex.o
 .text.HAL_PWREx_PVM1Callback
                0x0000000000000000        0x2 build/stm32wbxx_hal_pwr_ex.o
 .text.HAL_PWREx_PVM3Callback
                0x0000000000000000        0x2 build/stm32wbxx_hal_pwr_ex.o
 .text.HAL_PWREx_PVD_PVM_IRQHandler
                0x0000000000000000       0x4c build/stm32wbxx_hal_pwr_ex.o
 .text          0x0000000000000000        0x0 build/stm32wbxx_hal_cortex.o
 .data          0x0000000000000000        0x0 build/stm32wbxx_hal_cortex.o
 .bss           0x0000000000000000        0x0 build/stm32wbxx_hal_cortex.o
 .text.HAL_NVIC_DisableIRQ
                0x0000000000000000       0x24 build/stm32wbxx_hal_cortex.o
 .text.HAL_NVIC_SystemReset
                0x0000000000000000       0x24 build/stm32wbxx_hal_cortex.o
 .text.HAL_SYSTICK_Config
                0x0000000000000000       0x2c build/stm32wbxx_hal_cortex.o
 .text.HAL_NVIC_GetPriorityGrouping
                0x0000000000000000       0x10 build/stm32wbxx_hal_cortex.o
 .text.HAL_NVIC_GetPriority
                0x0000000000000000       0x60 build/stm32wbxx_hal_cortex.o
 .text.HAL_NVIC_SetPendingIRQ
                0x0000000000000000       0x1c build/stm32wbxx_hal_cortex.o
 .text.HAL_NVIC_GetPendingIRQ
                0x0000000000000000       0x24 build/stm32wbxx_hal_cortex.o
 .text.HAL_NVIC_ClearPendingIRQ
                0x0000000000000000       0x1c build/stm32wbxx_hal_cortex.o
 .text.HAL_SYSTICK_CLKSourceConfig
                0x0000000000000000       0x20 build/stm32wbxx_hal_cortex.o
 .text.HAL_SYSTICK_Callback
                0x0000000000000000        0x2 build/stm32wbxx_hal_cortex.o
 .text.HAL_SYSTICK_IRQHandler
                0x0000000000000000        0x8 build/stm32wbxx_hal_cortex.o
 .text.HAL_MPU_Disable
                0x0000000000000000       0x20 build/stm32wbxx_hal_cortex.o
 .text.HAL_MPU_Enable
                0x0000000000000000       0x24 build/stm32wbxx_hal_cortex.o
 .text.HAL_MPU_ConfigRegion
                0x0000000000000000       0x54 build/stm32wbxx_hal_cortex.o
 .text          0x0000000000000000        0x0 build/stm32wbxx_hal.o
 .data          0x0000000000000000        0x0 build/stm32wbxx_hal.o
 .bss           0x0000000000000000        0x0 build/stm32wbxx_hal.o
 .text.HAL_MspInit
                0x0000000000000000        0x2 build/stm32wbxx_hal.o
 .text.HAL_MspDeInit
                0x0000000000000000        0x2 build/stm32wbxx_hal.o
 .text.HAL_DeInit
                0x0000000000000000       0x4c build/stm32wbxx_hal.o
 .text.HAL_InitTick
                0x0000000000000000       0x50 build/stm32wbxx_hal.o
 .text.HAL_SetTickFreq
                0x0000000000000000       0x30 build/stm32wbxx_hal.o
 .text.HAL_GetTickFreq
                0x0000000000000000        0xc build/stm32wbxx_hal.o
 .text.HAL_Delay
                0x0000000000000000       0x28 build/stm32wbxx_hal.o
 .text.HAL_SuspendTick
                0x0000000000000000       0x10 build/stm32wbxx_hal.o
 .text.HAL_ResumeTick
                0x0000000000000000       0x10 build/stm32wbxx_hal.o
 .text.HAL_GetHalVersion
                0x0000000000000000        0x8 build/stm32wbxx_hal.o
 .text.HAL_GetREVID
                0x0000000000000000        0xc build/stm32wbxx_hal.o
 .text.HAL_GetDEVID
                0x0000000000000000       0x10 build/stm32wbxx_hal.o
 .text.HAL_GetUIDw0
                0x0000000000000000        0xc build/stm32wbxx_hal.o
 .text.HAL_GetUIDw1
                0x0000000000000000        0xc build/stm32wbxx_hal.o
 .text.HAL_GetUIDw2
                0x0000000000000000        0xc build/stm32wbxx_hal.o
 .text.HAL_DBGMCU_EnableDBGSleepMode
                0x0000000000000000       0x10 build/stm32wbxx_hal.o
 .text.HAL_DBGMCU_DisableDBGSleepMode
                0x0000000000000000       0x10 build/stm32wbxx_hal.o
 .text.HAL_DBGMCU_EnableDBGStopMode
                0x0000000000000000       0x10 build/stm32wbxx_hal.o
 .text.HAL_DBGMCU_DisableDBGStopMode
                0x0000000000000000       0x10 build/stm32wbxx_hal.o
 .text.HAL_DBGMCU_EnableDBGStandbyMode
                0x0000000000000000       0x10 build/stm32wbxx_hal.o
 .text.HAL_DBGMCU_DisableDBGStandbyMode
                0x0000000000000000       0x10 build/stm32wbxx_hal.o
 .text.HAL_SYSCFG_SRAM2Erase
                0x0000000000000000       0x18 build/stm32wbxx_hal.o
 .text.HAL_SYSCFG_DisableSRAMFetch
                0x0000000000000000       0x10 build/stm32wbxx_hal.o
 .text.HAL_SYSCFG_IsEnabledSRAMFetch
                0x0000000000000000       0x14 build/stm32wbxx_hal.o
 .text.HAL_SYSCFG_VREFBUF_HighImpedanceConfig
                0x0000000000000000       0x14 build/stm32wbxx_hal.o
 .text.HAL_SYSCFG_VREFBUF_TrimmingConfig
                0x0000000000000000        0xc build/stm32wbxx_hal.o
 .text.HAL_SYSCFG_VREFBUF_VoltageScalingConfig
                0x0000000000000000       0x34 build/stm32wbxx_hal.o
 .text.HAL_SYSCFG_EnableVREFBUF
                0x0000000000000000       0x34 build/stm32wbxx_hal.o
 .text.HAL_SYSCFG_DisableVREFBUF
                0x0000000000000000       0x10 build/stm32wbxx_hal.o
 .text.HAL_SYSCFG_EnableIOBooster
                0x0000000000000000       0x10 build/stm32wbxx_hal.o
 .text.HAL_SYSCFG_DisableIOBooster
                0x0000000000000000       0x10 build/stm32wbxx_hal.o
 .text.HAL_SYSCFG_EnableIOVdd
                0x0000000000000000       0x10 build/stm32wbxx_hal.o
 .text.HAL_SYSCFG_DisableIOVdd
                0x0000000000000000       0x10 build/stm32wbxx_hal.o
 .text.HAL_SYSCFG_EnableSecurityAccess
                0x0000000000000000       0x14 build/stm32wbxx_hal.o
 .text.HAL_SYSCFG_DisableSecurityAccess
                0x0000000000000000       0x14 build/stm32wbxx_hal.o
 .text.HAL_SYSCFG_IsEnabledSecurityAccess
                0x0000000000000000       0x18 build/stm32wbxx_hal.o
 .text          0x0000000000000000        0x0 build/stm32wbxx_hal_exti.o
 .data          0x0000000000000000        0x0 build/stm32wbxx_hal_exti.o
 .bss           0x0000000000000000        0x0 build/stm32wbxx_hal_exti.o
 .text.HAL_EXTI_SetConfigLine
                0x0000000000000000       0xd8 build/stm32wbxx_hal_exti.o
 .text.HAL_EXTI_GetConfigLine
                0x0000000000000000       0xb8 build/stm32wbxx_hal_exti.o
 .text.HAL_EXTI_ClearConfigLine
                0x0000000000000000       0x94 build/stm32wbxx_hal_exti.o
 .text.HAL_EXTI_RegisterCallback
                0x0000000000000000        0xc build/stm32wbxx_hal_exti.o
 .text.HAL_EXTI_GetHandle
                0x0000000000000000        0xc build/stm32wbxx_hal_exti.o
 .text.HAL_EXTI_IRQHandler
                0x0000000000000000       0x2c build/stm32wbxx_hal_exti.o
 .text.HAL_EXTI_GetPending
                0x0000000000000000       0x20 build/stm32wbxx_hal_exti.o
 .text.HAL_EXTI_ClearPending
                0x0000000000000000       0x1c build/stm32wbxx_hal_exti.o
 .text.HAL_EXTI_GenerateSWI
                0x0000000000000000       0x1c build/stm32wbxx_hal_exti.o
 .debug_info    0x0000000000000000      0xb1f build/stm32wbxx_hal_exti.o
 .debug_abbrev  0x0000000000000000      0x20d build/stm32wbxx_hal_exti.o
 .debug_loc     0x0000000000000000      0xbc9 build/stm32wbxx_hal_exti.o
 .debug_aranges
                0x0000000000000000       0x60 build/stm32wbxx_hal_exti.o
 .debug_ranges  0x0000000000000000       0x50 build/stm32wbxx_hal_exti.o
 .debug_line    0x0000000000000000      0x71c build/stm32wbxx_hal_exti.o
 .debug_str     0x0000000000000000      0x5f0 build/stm32wbxx_hal_exti.o
 .comment       0x0000000000000000       0x52 build/stm32wbxx_hal_exti.o
 .debug_frame   0x0000000000000000      0x108 build/stm32wbxx_hal_exti.o
 .ARM.attributes
                0x0000000000000000       0x34 build/stm32wbxx_hal_exti.o
 .text          0x0000000000000000        0x0 build/stm32wbxx_hal_uart.o
 .data          0x0000000000000000        0x0 build/stm32wbxx_hal_uart.o
 .bss           0x0000000000000000        0x0 build/stm32wbxx_hal_uart.o
 .text.UART_EndTxTransfer
                0x0000000000000000       0x32 build/stm32wbxx_hal_uart.o
 .text.UART_TxISR_8BIT
                0x0000000000000000       0x54 build/stm32wbxx_hal_uart.o
 .text.UART_TxISR_16BIT
                0x0000000000000000       0x58 build/stm32wbxx_hal_uart.o
 .text.UART_TxISR_8BIT_FIFOEN
                0x0000000000000000       0x72 build/stm32wbxx_hal_uart.o
 .text.UART_TxISR_16BIT_FIFOEN
                0x0000000000000000       0x76 build/stm32wbxx_hal_uart.o
 .text.HAL_UART_MspInit
                0x0000000000000000        0x2 build/stm32wbxx_hal_uart.o
 .text.HAL_UART_MspDeInit
                0x0000000000000000        0x2 build/stm32wbxx_hal_uart.o
 .text.HAL_UART_DeInit
                0x0000000000000000       0x42 build/stm32wbxx_hal_uart.o
 .text.HAL_UART_Transmit_IT
                0x0000000000000000       0xcc build/stm32wbxx_hal_uart.o
 .text.HAL_UART_Transmit_DMA
                0x0000000000000000       0xbc build/stm32wbxx_hal_uart.o
 .text.HAL_UART_DMAPause
                0x0000000000000000       0xa4 build/stm32wbxx_hal_uart.o
 .text.HAL_UART_DMAResume
                0x0000000000000000       0x90 build/stm32wbxx_hal_uart.o
 .text.HAL_UART_DMAStop
                0x0000000000000000       0xae build/stm32wbxx_hal_uart.o
 .text.HAL_UART_Abort
                0x0000000000000000      0x11c build/stm32wbxx_hal_uart.o
 .text.HAL_UART_AbortTransmit
                0x0000000000000000       0x98 build/stm32wbxx_hal_uart.o
 .text.HAL_UART_AbortReceive
                0x0000000000000000       0xb2 build/stm32wbxx_hal_uart.o
 .text.UART_DMATransmitCplt
                0x0000000000000000       0x48 build/stm32wbxx_hal_uart.o
 .text.HAL_UART_TxHalfCpltCallback
                0x0000000000000000        0x2 build/stm32wbxx_hal_uart.o
 .text.UART_DMATxHalfCplt
                0x0000000000000000        0xa build/stm32wbxx_hal_uart.o
 .text.HAL_UART_RxCpltCallback
                0x0000000000000000        0x2 build/stm32wbxx_hal_uart.o
 .text.HAL_UART_RxHalfCpltCallback
                0x0000000000000000        0x2 build/stm32wbxx_hal_uart.o
 .text.UART_DMAError
                0x0000000000000000       0x58 build/stm32wbxx_hal_uart.o
 .text.HAL_UART_AbortCpltCallback
                0x0000000000000000        0x2 build/stm32wbxx_hal_uart.o
 .text.HAL_UART_Abort_IT
                0x0000000000000000      0x14c build/stm32wbxx_hal_uart.o
 .text.UART_DMARxAbortCallback
                0x0000000000000000       0x42 build/stm32wbxx_hal_uart.o
 .text.UART_DMATxAbortCallback
                0x0000000000000000       0x4e build/stm32wbxx_hal_uart.o
 .text.HAL_UART_AbortTransmitCpltCallback
                0x0000000000000000        0x2 build/stm32wbxx_hal_uart.o
 .text.HAL_UART_AbortTransmit_IT
                0x0000000000000000       0xac build/stm32wbxx_hal_uart.o
 .text.UART_DMATxOnlyAbortCallback
                0x0000000000000000       0x2a build/stm32wbxx_hal_uart.o
 .text.HAL_UART_AbortReceiveCpltCallback
                0x0000000000000000        0x2 build/stm32wbxx_hal_uart.o
 .text.HAL_UART_AbortReceive_IT
                0x0000000000000000       0xd0 build/stm32wbxx_hal_uart.o
 .text.UART_DMARxOnlyAbortCallback
                0x0000000000000000       0x28 build/stm32wbxx_hal_uart.o
 .text.UART_RxISR_8BIT
                0x0000000000000000       0xb0 build/stm32wbxx_hal_uart.o
 .text.UART_RxISR_16BIT
                0x0000000000000000       0xae build/stm32wbxx_hal_uart.o
 .text.UART_RxISR_8BIT_FIFOEN
                0x0000000000000000      0x1a0 build/stm32wbxx_hal_uart.o
 .text.UART_RxISR_16BIT_FIFOEN
                0x0000000000000000      0x19c build/stm32wbxx_hal_uart.o
 .text.UART_DMARxHalfCplt
                0x0000000000000000       0x1c build/stm32wbxx_hal_uart.o
 .text.UART_DMAReceiveCplt
                0x0000000000000000       0x90 build/stm32wbxx_hal_uart.o
 .text.HAL_UART_ReceiverTimeout_Config
                0x0000000000000000       0x18 build/stm32wbxx_hal_uart.o
 .text.HAL_UART_EnableReceiverTimeout
                0x0000000000000000       0x4c build/stm32wbxx_hal_uart.o
 .text.HAL_UART_DisableReceiverTimeout
                0x0000000000000000       0x4c build/stm32wbxx_hal_uart.o
 .text.HAL_MultiProcessor_EnterMuteMode
                0x0000000000000000        0xc build/stm32wbxx_hal_uart.o
 .text.HAL_HalfDuplex_EnableTransmitter
                0x0000000000000000       0x4c build/stm32wbxx_hal_uart.o
 .text.HAL_HalfDuplex_EnableReceiver
                0x0000000000000000       0x4c build/stm32wbxx_hal_uart.o
 .text.HAL_LIN_SendBreak
                0x0000000000000000       0x32 build/stm32wbxx_hal_uart.o
 .text.HAL_UART_GetState
                0x0000000000000000        0xc build/stm32wbxx_hal_uart.o
 .text.HAL_UART_GetError
                0x0000000000000000        0x6 build/stm32wbxx_hal_uart.o
 .text.HAL_HalfDuplex_Init
                0x0000000000000000       0x72 build/stm32wbxx_hal_uart.o
 .text.HAL_LIN_Init
                0x0000000000000000       0x96 build/stm32wbxx_hal_uart.o
 .text.HAL_MultiProcessor_Init
                0x0000000000000000       0x8e build/stm32wbxx_hal_uart.o
 .text.HAL_MultiProcessor_EnableMuteMode
                0x0000000000000000       0x38 build/stm32wbxx_hal_uart.o
 .text.HAL_MultiProcessor_DisableMuteMode
                0x0000000000000000       0x38 build/stm32wbxx_hal_uart.o
 .text.UART_Start_Receive_IT
                0x0000000000000000      0x12c build/stm32wbxx_hal_uart.o
 .text.HAL_UART_Receive_IT
                0x0000000000000000       0x5c build/stm32wbxx_hal_uart.o
 .text.UART_Start_Receive_DMA
                0x0000000000000000       0xb0 build/stm32wbxx_hal_uart.o
 .text.HAL_UART_Receive_DMA
                0x0000000000000000       0x5c build/stm32wbxx_hal_uart.o
 .text          0x0000000000000000        0x0 build/stm32wbxx_hal_uart_ex.o
 .data          0x0000000000000000        0x0 build/stm32wbxx_hal_uart_ex.o
 .bss           0x0000000000000000        0x0 build/stm32wbxx_hal_uart_ex.o
 .text.UARTEx_Wakeup_AddressConfig
                0x0000000000000000       0x2e build/stm32wbxx_hal_uart_ex.o
 .text.HAL_RS485Ex_Init
                0x0000000000000000       0x86 build/stm32wbxx_hal_uart_ex.o
 .text.HAL_MultiProcessorEx_AddressLength_Set
                0x0000000000000000       0x34 build/stm32wbxx_hal_uart_ex.o
 .text.HAL_UARTEx_StopModeWakeUpSourceConfig
                0x0000000000000000       0x86 build/stm32wbxx_hal_uart_ex.o
 .text.HAL_UARTEx_EnableStopMode
                0x0000000000000000       0x2e build/stm32wbxx_hal_uart_ex.o
 .text.HAL_UARTEx_DisableStopMode
                0x0000000000000000       0x2e build/stm32wbxx_hal_uart_ex.o
 .text.HAL_UARTEx_DisableFifoMode
                0x0000000000000000       0x3e build/stm32wbxx_hal_uart_ex.o
 .text.HAL_UARTEx_ReceiveToIdle
                0x0000000000000000      0x172 build/stm32wbxx_hal_uart_ex.o
 .text.HAL_UARTEx_ReceiveToIdle_IT
                0x0000000000000000       0x60 build/stm32wbxx_hal_uart_ex.o
 .text.HAL_UARTEx_ReceiveToIdle_DMA
                0x0000000000000000       0x60 build/stm32wbxx_hal_uart_ex.o
 .text          0x0000000000000000        0x0 build/stm32wbxx_hal_tim.o
 .data          0x0000000000000000        0x0 build/stm32wbxx_hal_tim.o
 .bss           0x0000000000000000        0x0 build/stm32wbxx_hal_tim.o
 .text.TIM_OC1_SetConfig
                0x0000000000000000       0x7c build/stm32wbxx_hal_tim.o
 .text.TIM_OC3_SetConfig
                0x0000000000000000       0x74 build/stm32wbxx_hal_tim.o
 .text.TIM_OC4_SetConfig
                0x0000000000000000       0x5c build/stm32wbxx_hal_tim.o
 .text.TIM_OC5_SetConfig
                0x0000000000000000       0x58 build/stm32wbxx_hal_tim.o
 .text.TIM_OC6_SetConfig
                0x0000000000000000       0x5c build/stm32wbxx_hal_tim.o
 .text.TIM_TI1_ConfigInputStage
                0x0000000000000000       0x26 build/stm32wbxx_hal_tim.o
 .text.TIM_TI2_SetConfig
                0x0000000000000000       0x34 build/stm32wbxx_hal_tim.o
 .text.TIM_TI2_ConfigInputStage
                0x0000000000000000       0x28 build/stm32wbxx_hal_tim.o
 .text.TIM_TI3_SetConfig
                0x0000000000000000       0x32 build/stm32wbxx_hal_tim.o
 .text.TIM_TI4_SetConfig
                0x0000000000000000       0x34 build/stm32wbxx_hal_tim.o
 .text.TIM_ITRx_SetConfig
                0x0000000000000000       0x14 build/stm32wbxx_hal_tim.o
 .text.HAL_TIM_Base_MspDeInit
                0x0000000000000000        0x2 build/stm32wbxx_hal_tim.o
 .text.HAL_TIM_Base_DeInit
                0x0000000000000000       0x66 build/stm32wbxx_hal_tim.o
 .text.HAL_TIM_Base_Start
                0x0000000000000000       0x5c build/stm32wbxx_hal_tim.o
 .text.HAL_TIM_Base_Stop
                0x0000000000000000       0x28 build/stm32wbxx_hal_tim.o
 .text.HAL_TIM_Base_Stop_IT
                0x0000000000000000       0x32 build/stm32wbxx_hal_tim.o
 .text.HAL_TIM_Base_Start_DMA
                0x0000000000000000       0xac build/stm32wbxx_hal_tim.o
 .text.HAL_TIM_Base_Stop_DMA
                0x0000000000000000       0x3c build/stm32wbxx_hal_tim.o
 .text.HAL_TIM_OC_MspInit
                0x0000000000000000        0x2 build/stm32wbxx_hal_tim.o
 .text.HAL_TIM_OC_MspDeInit
                0x0000000000000000        0x2 build/stm32wbxx_hal_tim.o
 .text.HAL_TIM_OC_DeInit
                0x0000000000000000       0x66 build/stm32wbxx_hal_tim.o
 .text.HAL_TIM_PWM_MspInit
                0x0000000000000000        0x2 build/stm32wbxx_hal_tim.o
 .text.HAL_TIM_PWM_MspDeInit
                0x0000000000000000        0x2 build/stm32wbxx_hal_tim.o
 .text.HAL_TIM_PWM_DeInit
                0x0000000000000000       0x66 build/stm32wbxx_hal_tim.o
 .text.HAL_TIM_IC_MspInit
                0x0000000000000000        0x2 build/stm32wbxx_hal_tim.o
 .text.HAL_TIM_IC_MspDeInit
                0x0000000000000000        0x2 build/stm32wbxx_hal_tim.o
 .text.HAL_TIM_IC_DeInit
                0x0000000000000000       0x66 build/stm32wbxx_hal_tim.o
 .text.HAL_TIM_OnePulse_MspInit
                0x0000000000000000        0x2 build/stm32wbxx_hal_tim.o
 .text.HAL_TIM_OnePulse_MspDeInit
                0x0000000000000000        0x2 build/stm32wbxx_hal_tim.o
 .text.HAL_TIM_OnePulse_DeInit
                0x0000000000000000       0x4e build/stm32wbxx_hal_tim.o
 .text.HAL_TIM_Encoder_MspInit
                0x0000000000000000        0x2 build/stm32wbxx_hal_tim.o
 .text.HAL_TIM_Encoder_MspDeInit
                0x0000000000000000        0x2 build/stm32wbxx_hal_tim.o
 .text.HAL_TIM_Encoder_DeInit
                0x0000000000000000       0x4e build/stm32wbxx_hal_tim.o
 .text.HAL_TIM_DMABurst_MultiWriteStart
                0x0000000000000000      0x1b4 build/stm32wbxx_hal_tim.o
 .text.HAL_TIM_DMABurst_WriteStart
                0x0000000000000000       0x16 build/stm32wbxx_hal_tim.o
 .text.HAL_TIM_DMABurst_WriteStop
                0x0000000000000000       0x7e build/stm32wbxx_hal_tim.o
 .text.HAL_TIM_DMABurst_MultiReadStart
                0x0000000000000000      0x1b4 build/stm32wbxx_hal_tim.o
 .text.HAL_TIM_DMABurst_ReadStart
                0x0000000000000000       0x16 build/stm32wbxx_hal_tim.o
 .text.HAL_TIM_DMABurst_ReadStop
                0x0000000000000000       0x7e build/stm32wbxx_hal_tim.o
 .text.HAL_TIM_GenerateEvent
                0x0000000000000000       0x26 build/stm32wbxx_hal_tim.o
 .text.HAL_TIM_ConfigTI1Input
                0x0000000000000000       0x10 build/stm32wbxx_hal_tim.o
 .text.HAL_TIM_ReadCapturedValue
                0x0000000000000000       0x32 build/stm32wbxx_hal_tim.o
 .text.HAL_TIM_PeriodElapsedCallback
                0x0000000000000000        0x2 build/stm32wbxx_hal_tim.o
 .text.TIM_DMAPeriodElapsedCplt
                0x0000000000000000       0x16 build/stm32wbxx_hal_tim.o
 .text.HAL_TIM_PeriodElapsedHalfCpltCallback
                0x0000000000000000        0x2 build/stm32wbxx_hal_tim.o
 .text.TIM_DMAPeriodElapsedHalfCplt
                0x0000000000000000        0xa build/stm32wbxx_hal_tim.o
 .text.TIM_DMACaptureCplt
                0x0000000000000000       0x80 build/stm32wbxx_hal_tim.o
 .text.HAL_TIM_IC_CaptureHalfCpltCallback
                0x0000000000000000        0x2 build/stm32wbxx_hal_tim.o
 .text.TIM_DMACaptureHalfCplt
                0x0000000000000000       0x3e build/stm32wbxx_hal_tim.o
 .text.TIM_DMADelayPulseCplt
                0x0000000000000000       0x70 build/stm32wbxx_hal_tim.o
 .text.HAL_TIM_PWM_PulseFinishedHalfCpltCallback
                0x0000000000000000        0x2 build/stm32wbxx_hal_tim.o
 .text.TIM_DMADelayPulseHalfCplt
                0x0000000000000000       0x3e build/stm32wbxx_hal_tim.o
 .text.TIM_DMATriggerCplt
                0x0000000000000000       0x16 build/stm32wbxx_hal_tim.o
 .text.HAL_TIM_TriggerHalfCpltCallback
                0x0000000000000000        0x2 build/stm32wbxx_hal_tim.o
 .text.TIM_DMATriggerHalfCplt
                0x0000000000000000        0xa build/stm32wbxx_hal_tim.o
 .text.HAL_TIM_ErrorCallback
                0x0000000000000000        0x2 build/stm32wbxx_hal_tim.o
 .text.TIM_DMAError
                0x0000000000000000       0x5c build/stm32wbxx_hal_tim.o
 .text.HAL_TIM_Base_GetState
                0x0000000000000000        0x6 build/stm32wbxx_hal_tim.o
 .text.HAL_TIM_OC_GetState
                0x0000000000000000        0x6 build/stm32wbxx_hal_tim.o
 .text.HAL_TIM_PWM_GetState
                0x0000000000000000        0x6 build/stm32wbxx_hal_tim.o
 .text.HAL_TIM_IC_GetState
                0x0000000000000000        0x6 build/stm32wbxx_hal_tim.o
 .text.HAL_TIM_OnePulse_GetState
                0x0000000000000000        0x6 build/stm32wbxx_hal_tim.o
 .text.HAL_TIM_Encoder_GetState
                0x0000000000000000        0x6 build/stm32wbxx_hal_tim.o
 .text.HAL_TIM_GetActiveChannel
                0x0000000000000000        0x4 build/stm32wbxx_hal_tim.o
 .text.HAL_TIM_GetChannelState
                0x0000000000000000       0x42 build/stm32wbxx_hal_tim.o
 .text.HAL_TIM_DMABurstState
                0x0000000000000000        0x6 build/stm32wbxx_hal_tim.o
 .text.HAL_TIM_OC_Init
                0x0000000000000000       0x60 build/stm32wbxx_hal_tim.o
 .text.HAL_TIM_PWM_Init
                0x0000000000000000       0x60 build/stm32wbxx_hal_tim.o
 .text.HAL_TIM_IC_Init
                0x0000000000000000       0x60 build/stm32wbxx_hal_tim.o
 .text.HAL_TIM_OnePulse_Init
                0x0000000000000000       0x5c build/stm32wbxx_hal_tim.o
 .text.HAL_TIM_Encoder_Init
                0x0000000000000000       0xb0 build/stm32wbxx_hal_tim.o
 .text.TIM_OC2_SetConfig
                0x0000000000000000       0x78 build/stm32wbxx_hal_tim.o
 .text.HAL_TIM_OC_ConfigChannel
                0x0000000000000000       0x6a build/stm32wbxx_hal_tim.o
 .text.HAL_TIM_PWM_ConfigChannel
                0x0000000000000000      0x128 build/stm32wbxx_hal_tim.o
 .text.TIM_TI1_SetConfig
                0x0000000000000000       0x48 build/stm32wbxx_hal_tim.o
 .text.HAL_TIM_IC_ConfigChannel
                0x0000000000000000       0xb4 build/stm32wbxx_hal_tim.o
 .text.HAL_TIM_OnePulse_ConfigChannel
                0x0000000000000000      0x102 build/stm32wbxx_hal_tim.o
 .text.TIM_ETR_SetConfig
                0x0000000000000000       0x18 build/stm32wbxx_hal_tim.o
 .text.HAL_TIM_ConfigOCrefClear
                0x0000000000000000      0x16e build/stm32wbxx_hal_tim.o
 .text.HAL_TIM_ConfigClockSource
                0x0000000000000000       0xdc build/stm32wbxx_hal_tim.o
 .text.TIM_SlaveTimer_SetConfig
                0x0000000000000000       0x96 build/stm32wbxx_hal_tim.o
 .text.HAL_TIM_SlaveConfigSynchro
                0x0000000000000000       0x58 build/stm32wbxx_hal_tim.o
 .text.HAL_TIM_SlaveConfigSynchro_IT
                0x0000000000000000       0x58 build/stm32wbxx_hal_tim.o
 .text.TIM_CCxChannelCmd
                0x0000000000000000       0x22 build/stm32wbxx_hal_tim.o
 .text.HAL_TIM_OC_Start
                0x0000000000000000      0x134 build/stm32wbxx_hal_tim.o
 .text.HAL_TIM_OC_Stop
                0x0000000000000000       0xac build/stm32wbxx_hal_tim.o
 .text.HAL_TIM_OC_Start_IT
                0x0000000000000000      0x178 build/stm32wbxx_hal_tim.o
 .text.HAL_TIM_OC_Stop_IT
                0x0000000000000000       0xf0 build/stm32wbxx_hal_tim.o
 .text.HAL_TIM_OC_Start_DMA
                0x0000000000000000      0x2ac build/stm32wbxx_hal_tim.o
 .text.HAL_TIM_OC_Stop_DMA
                0x0000000000000000      0x10c build/stm32wbxx_hal_tim.o
 .text.HAL_TIM_PWM_Start
                0x0000000000000000      0x134 build/stm32wbxx_hal_tim.o
 .text.HAL_TIM_PWM_Stop
                0x0000000000000000       0xac build/stm32wbxx_hal_tim.o
 .text.HAL_TIM_PWM_Start_IT
                0x0000000000000000      0x178 build/stm32wbxx_hal_tim.o
 .text.HAL_TIM_PWM_Stop_IT
                0x0000000000000000       0xf0 build/stm32wbxx_hal_tim.o
 .text.HAL_TIM_PWM_Start_DMA
                0x0000000000000000      0x2ac build/stm32wbxx_hal_tim.o
 .text.HAL_TIM_PWM_Stop_DMA
                0x0000000000000000      0x10c build/stm32wbxx_hal_tim.o
 .text.HAL_TIM_IC_Start
                0x0000000000000000      0x140 build/stm32wbxx_hal_tim.o
 .text.HAL_TIM_IC_Stop
                0x0000000000000000       0x98 build/stm32wbxx_hal_tim.o
 .text.HAL_TIM_IC_Start_IT
                0x0000000000000000      0x184 build/stm32wbxx_hal_tim.o
 .text.HAL_TIM_IC_Stop_IT
                0x0000000000000000       0xde build/stm32wbxx_hal_tim.o
 .text.HAL_TIM_IC_Start_DMA
                0x0000000000000000      0x290 build/stm32wbxx_hal_tim.o
 .text.HAL_TIM_IC_Stop_DMA
                0x0000000000000000       0xf6 build/stm32wbxx_hal_tim.o
 .text.HAL_TIM_OnePulse_Start
                0x0000000000000000       0x8c build/stm32wbxx_hal_tim.o
 .text.HAL_TIM_OnePulse_Stop
                0x0000000000000000       0x88 build/stm32wbxx_hal_tim.o
 .text.HAL_TIM_OnePulse_Start_IT
                0x0000000000000000       0xa0 build/stm32wbxx_hal_tim.o
 .text.HAL_TIM_OnePulse_Stop_IT
                0x0000000000000000       0x9c build/stm32wbxx_hal_tim.o
 .text.HAL_TIM_Encoder_Start
                0x0000000000000000       0xc8 build/stm32wbxx_hal_tim.o
 .text.HAL_TIM_Encoder_Stop
                0x0000000000000000       0xdc build/stm32wbxx_hal_tim.o
 .text.HAL_TIM_Encoder_Start_IT
                0x0000000000000000       0xf2 build/stm32wbxx_hal_tim.o
 .text.HAL_TIM_Encoder_Stop_IT
                0x0000000000000000      0x106 build/stm32wbxx_hal_tim.o
 .text.HAL_TIM_Encoder_Start_DMA
                0x0000000000000000      0x240 build/stm32wbxx_hal_tim.o
 .text.HAL_TIM_Encoder_Stop_DMA
                0x0000000000000000      0x11e build/stm32wbxx_hal_tim.o
 .text          0x0000000000000000        0x0 build/stm32wbxx_hal_tim_ex.o
 .data          0x0000000000000000        0x0 build/stm32wbxx_hal_tim_ex.o
 .bss           0x0000000000000000        0x0 build/stm32wbxx_hal_tim_ex.o
 .text.TIM_CCxNChannelCmd
                0x0000000000000000       0x22 build/stm32wbxx_hal_tim_ex.o
 .text.TIM_DMAErrorCCxN
                0x0000000000000000       0x44 build/stm32wbxx_hal_tim_ex.o
 .text.TIM_DMADelayPulseNCplt
                0x0000000000000000       0x70 build/stm32wbxx_hal_tim_ex.o
 .text.HAL_TIMEx_HallSensor_MspInit
                0x0000000000000000        0x2 build/stm32wbxx_hal_tim_ex.o
 .text.HAL_TIMEx_HallSensor_Init
                0x0000000000000000       0xdc build/stm32wbxx_hal_tim_ex.o
 .text.HAL_TIMEx_HallSensor_MspDeInit
                0x0000000000000000        0x2 build/stm32wbxx_hal_tim_ex.o
 .text.HAL_TIMEx_HallSensor_DeInit
                0x0000000000000000       0x4e build/stm32wbxx_hal_tim_ex.o
 .text.HAL_TIMEx_HallSensor_Start
                0x0000000000000000       0x9c build/stm32wbxx_hal_tim_ex.o
 .text.HAL_TIMEx_HallSensor_Stop
                0x0000000000000000       0x42 build/stm32wbxx_hal_tim_ex.o
 .text.HAL_TIMEx_HallSensor_Start_IT
                0x0000000000000000       0xa8 build/stm32wbxx_hal_tim_ex.o
 .text.HAL_TIMEx_HallSensor_Stop_IT
                0x0000000000000000       0x4c build/stm32wbxx_hal_tim_ex.o
 .text.HAL_TIMEx_HallSensor_Start_DMA
                0x0000000000000000       0xc8 build/stm32wbxx_hal_tim_ex.o
 .text.HAL_TIMEx_HallSensor_Stop_DMA
                0x0000000000000000       0x4a build/stm32wbxx_hal_tim_ex.o
 .text.HAL_TIMEx_OCN_Start
                0x0000000000000000       0xdc build/stm32wbxx_hal_tim_ex.o
 .text.HAL_TIMEx_OCN_Stop
                0x0000000000000000       0x76 build/stm32wbxx_hal_tim_ex.o
 .text.HAL_TIMEx_OCN_Start_IT
                0x0000000000000000      0x118 build/stm32wbxx_hal_tim_ex.o
 .text.HAL_TIMEx_OCN_Stop_IT
                0x0000000000000000       0xbc build/stm32wbxx_hal_tim_ex.o
 .text.HAL_TIMEx_OCN_Start_DMA
                0x0000000000000000      0x1ec build/stm32wbxx_hal_tim_ex.o
 .text.HAL_TIMEx_OCN_Stop_DMA
                0x0000000000000000       0xb8 build/stm32wbxx_hal_tim_ex.o
 .text.HAL_TIMEx_PWMN_Start
                0x0000000000000000       0xdc build/stm32wbxx_hal_tim_ex.o
 .text.HAL_TIMEx_PWMN_Stop
                0x0000000000000000       0x76 build/stm32wbxx_hal_tim_ex.o
 .text.HAL_TIMEx_PWMN_Start_IT
                0x0000000000000000      0x118 build/stm32wbxx_hal_tim_ex.o
 .text.HAL_TIMEx_PWMN_Stop_IT
                0x0000000000000000       0xbc build/stm32wbxx_hal_tim_ex.o
 .text.HAL_TIMEx_PWMN_Start_DMA
                0x0000000000000000      0x1ec build/stm32wbxx_hal_tim_ex.o
 .text.HAL_TIMEx_PWMN_Stop_DMA
                0x0000000000000000       0xb8 build/stm32wbxx_hal_tim_ex.o
 .text.HAL_TIMEx_OnePulseN_Start
                0x0000000000000000       0x78 build/stm32wbxx_hal_tim_ex.o
 .text.HAL_TIMEx_OnePulseN_Stop
                0x0000000000000000       0x76 build/stm32wbxx_hal_tim_ex.o
 .text.HAL_TIMEx_OnePulseN_Start_IT
                0x0000000000000000       0x8c build/stm32wbxx_hal_tim_ex.o
 .text.HAL_TIMEx_OnePulseN_Stop_IT
                0x0000000000000000       0x8a build/stm32wbxx_hal_tim_ex.o
 .text.HAL_TIMEx_ConfigCommutEvent
                0x0000000000000000       0x76 build/stm32wbxx_hal_tim_ex.o
 .text.HAL_TIMEx_ConfigCommutEvent_IT
                0x0000000000000000       0x76 build/stm32wbxx_hal_tim_ex.o
 .text.HAL_TIMEx_ConfigCommutEvent_DMA
                0x0000000000000000       0x94 build/stm32wbxx_hal_tim_ex.o
 .text.HAL_TIMEx_MasterConfigSynchronization
                0x0000000000000000       0x68 build/stm32wbxx_hal_tim_ex.o
 .text.HAL_TIMEx_ConfigBreakDeadTime
                0x0000000000000000       0xa0 build/stm32wbxx_hal_tim_ex.o
 .text.HAL_TIMEx_ConfigBreakInput
                0x0000000000000000       0xa2 build/stm32wbxx_hal_tim_ex.o
 .text.HAL_TIMEx_RemapConfig
                0x0000000000000000       0x74 build/stm32wbxx_hal_tim_ex.o
 .text.HAL_TIMEx_GroupChannel5
                0x0000000000000000       0x3c build/stm32wbxx_hal_tim_ex.o
 .text.HAL_TIMEx_DisarmBreakInput
                0x0000000000000000       0x44 build/stm32wbxx_hal_tim_ex.o
 .text.HAL_TIMEx_ReArmBreakInput
                0x0000000000000000       0x84 build/stm32wbxx_hal_tim_ex.o
 .text.TIMEx_DMACommutationCplt
                0x0000000000000000       0x10 build/stm32wbxx_hal_tim_ex.o
 .text.HAL_TIMEx_CommutHalfCpltCallback
                0x0000000000000000        0x2 build/stm32wbxx_hal_tim_ex.o
 .text.TIMEx_DMACommutationHalfCplt
                0x0000000000000000       0x10 build/stm32wbxx_hal_tim_ex.o
 .text.HAL_TIMEx_HallSensor_GetState
                0x0000000000000000        0x6 build/stm32wbxx_hal_tim_ex.o
 .text.HAL_TIMEx_GetChannelNState
                0x0000000000000000       0x2a build/stm32wbxx_hal_tim_ex.o
 .text          0x0000000000000000        0x0 build/system_stm32wbxx.o
 .data          0x0000000000000000        0x0 build/system_stm32wbxx.o
 .bss           0x0000000000000000        0x0 build/system_stm32wbxx.o
 .text.SystemCoreClockUpdate
                0x0000000000000000       0xc4 build/system_stm32wbxx.o
 .rodata.SmpsPrescalerTable
                0x0000000000000000       0x60 build/system_stm32wbxx.o
 .text          0x0000000000000000        0x0 build/croutine.o
 .data          0x0000000000000000        0x0 build/croutine.o
 .bss           0x0000000000000000        0x0 build/croutine.o
 .debug_info    0x0000000000000000       0x8c build/croutine.o
 .debug_abbrev  0x0000000000000000       0x48 build/croutine.o
 .debug_aranges
                0x0000000000000000       0x18 build/croutine.o
 .debug_line    0x0000000000000000       0x6f build/croutine.o
 .debug_str     0x0000000000000000      0x1bc build/croutine.o
 .comment       0x0000000000000000       0x52 build/croutine.o
 .ARM.attributes
                0x0000000000000000       0x39 build/croutine.o
 .text          0x0000000000000000        0x0 build/event_groups.o
 .data          0x0000000000000000        0x0 build/event_groups.o
 .bss           0x0000000000000000        0x0 build/event_groups.o
 .text.prvTestWaitCondition
                0x0000000000000000       0x1c build/event_groups.o
 .text.xEventGroupCreateStatic
                0x0000000000000000       0x4a build/event_groups.o
 .text.xEventGroupCreate
                0x0000000000000000       0x1c build/event_groups.o
 .text.xEventGroupWaitBits
                0x0000000000000000      0x10c build/event_groups.o
 .text.xEventGroupClearBits
                0x0000000000000000       0x46 build/event_groups.o
 .text.vEventGroupClearBitsCallback
                0x0000000000000000        0x8 build/event_groups.o
 .text.xEventGroupClearBitsFromISR
                0x0000000000000000       0x14 build/event_groups.o
 .text.xEventGroupGetBitsFromISR
                0x0000000000000000       0x1c build/event_groups.o
 .text.xEventGroupSetBits
                0x0000000000000000       0x8c build/event_groups.o
 .text.xEventGroupSync
                0x0000000000000000       0xd8 build/event_groups.o
 .text.vEventGroupSetBitsCallback
                0x0000000000000000        0x8 build/event_groups.o
 .text.vEventGroupDelete
                0x0000000000000000       0x44 build/event_groups.o
 .text.xEventGroupSetBitsFromISR
                0x0000000000000000       0x14 build/event_groups.o
 .text.uxEventGroupGetNumber
                0x0000000000000000        0xa build/event_groups.o
 .text.vEventGroupSetNumber
                0x0000000000000000        0x4 build/event_groups.o
 .debug_info    0x0000000000000000     0x1a0d build/event_groups.o
 .debug_abbrev  0x0000000000000000      0x3f7 build/event_groups.o
 .debug_loc     0x0000000000000000      0xcd2 build/event_groups.o
 .debug_aranges
                0x0000000000000000       0x90 build/event_groups.o
 .debug_ranges  0x0000000000000000       0xb8 build/event_groups.o
 .debug_line    0x0000000000000000      0xa67 build/event_groups.o
 .debug_str     0x0000000000000000      0xbee build/event_groups.o
 .comment       0x0000000000000000       0x52 build/event_groups.o
 .debug_frame   0x0000000000000000      0x1a8 build/event_groups.o
 .ARM.attributes
                0x0000000000000000       0x34 build/event_groups.o
 .text          0x0000000000000000        0x0 build/list.o
 .data          0x0000000000000000        0x0 build/list.o
 .bss           0x0000000000000000        0x0 build/list.o
 .text          0x0000000000000000        0x0 build/queue.o
 .data          0x0000000000000000        0x0 build/queue.o
 .bss           0x0000000000000000        0x0 build/queue.o
 .text.prvGetDisinheritPriorityAfterTimeout
                0x0000000000000000       0x10 build/queue.o
 .text.xQueueGenericCreate
                0x0000000000000000       0x48 build/queue.o
 .text.xQueueGetMutexHolder
                0x0000000000000000       0x1a build/queue.o
 .text.xQueueGetMutexHolderFromISR
                0x0000000000000000       0x20 build/queue.o
 .text.xQueueCreateCountingSemaphoreStatic
                0x0000000000000000       0x4a build/queue.o
 .text.xQueueCreateCountingSemaphore
                0x0000000000000000       0x40 build/queue.o
 .text.prvInitialiseMutex
                0x0000000000000000       0x18 build/queue.o
 .text.xQueueCreateMutex
                0x0000000000000000       0x16 build/queue.o
 .text.xQueueCreateMutexStatic
                0x0000000000000000       0x1e build/queue.o
 .text.xQueueGiveMutexRecursive
                0x0000000000000000       0x40 build/queue.o
 .text.xQueueGiveFromISR
                0x0000000000000000       0xb2 build/queue.o
 .text.xQueueSemaphoreTake
                0x0000000000000000      0x1a4 build/queue.o
 .text.xQueueTakeMutexRecursive
                0x0000000000000000       0x44 build/queue.o
 .text.xQueuePeek
                0x0000000000000000      0x15c build/queue.o
 .text.xQueueReceiveFromISR
                0x0000000000000000       0xac build/queue.o
 .text.xQueuePeekFromISR
                0x0000000000000000       0x7e build/queue.o
 .text.uxQueueMessagesWaiting
                0x0000000000000000       0x26 build/queue.o
 .text.uxQueueSpacesAvailable
                0x0000000000000000       0x2a build/queue.o
 .text.uxQueueMessagesWaitingFromISR
                0x0000000000000000       0x18 build/queue.o
 .text.uxQueueGetQueueNumber
                0x0000000000000000        0x4 build/queue.o
 .text.vQueueSetQueueNumber
                0x0000000000000000        0x4 build/queue.o
 .text.ucQueueGetQueueType
                0x0000000000000000        0x6 build/queue.o
 .text.xQueueIsQueueEmptyFromISR
                0x0000000000000000       0x20 build/queue.o
 .text.xQueueIsQueueFullFromISR
                0x0000000000000000       0x24 build/queue.o
 .text.pcQueueGetName
                0x0000000000000000       0x28 build/queue.o
 .text.vQueueUnregisterQueue
                0x0000000000000000       0x2c build/queue.o
 .text.vQueueDelete
                0x0000000000000000       0x2c build/queue.o
 .text          0x0000000000000000        0x0 build/stream_buffer.o
 .data          0x0000000000000000        0x0 build/stream_buffer.o
 .bss           0x0000000000000000        0x0 build/stream_buffer.o
 .text.prvBytesInBuffer
                0x0000000000000000       0x12 build/stream_buffer.o
 .text.prvInitialiseNewStreamBuffer
                0x0000000000000000       0x40 build/stream_buffer.o
 .text.prvWriteBytesToBuffer
                0x0000000000000000       0x8c build/stream_buffer.o
 .text.prvWriteMessageToBuffer
                0x0000000000000000       0x44 build/stream_buffer.o
 .text.prvReadBytesFromBuffer
                0x0000000000000000       0x96 build/stream_buffer.o
 .text.prvReadMessageFromBuffer
                0x0000000000000000       0x44 build/stream_buffer.o
 .text.xStreamBufferGenericCreate
                0x0000000000000000       0x74 build/stream_buffer.o
 .text.xStreamBufferGenericCreateStatic
                0x0000000000000000       0xa0 build/stream_buffer.o
 .text.vStreamBufferDelete
                0x0000000000000000       0x2e build/stream_buffer.o
 .text.xStreamBufferReset
                0x0000000000000000       0x4e build/stream_buffer.o
 .text.xStreamBufferSetTriggerLevel
                0x0000000000000000       0x2a build/stream_buffer.o
 .text.xStreamBufferSpacesAvailable
                0x0000000000000000       0x2a build/stream_buffer.o
 .text.xStreamBufferBytesAvailable
                0x0000000000000000       0x1c build/stream_buffer.o
 .text.xStreamBufferSend
                0x0000000000000000      0x108 build/stream_buffer.o
 .text.xStreamBufferSendFromISR
                0x0000000000000000       0xa2 build/stream_buffer.o
 .text.xStreamBufferReceive
                0x0000000000000000       0xe2 build/stream_buffer.o
 .text.xStreamBufferNextMessageLengthBytes
                0x0000000000000000       0x5c build/stream_buffer.o
 .text.xStreamBufferReceiveFromISR
                0x0000000000000000       0x9c build/stream_buffer.o
 .text.xStreamBufferIsEmpty
                0x0000000000000000       0x24 build/stream_buffer.o
 .text.xStreamBufferIsFull
                0x0000000000000000       0x38 build/stream_buffer.o
 .text.xStreamBufferSendCompletedFromISR
                0x0000000000000000       0x52 build/stream_buffer.o
 .text.xStreamBufferReceiveCompletedFromISR
                0x0000000000000000       0x52 build/stream_buffer.o
 .text.uxStreamBufferGetStreamBufferNumber
                0x0000000000000000        0x4 build/stream_buffer.o
 .text.vStreamBufferSetStreamBufferNumber
                0x0000000000000000        0x4 build/stream_buffer.o
 .text.ucStreamBufferGetStreamBufferType
                0x0000000000000000        0x8 build/stream_buffer.o
 .debug_info    0x0000000000000000     0x27b1 build/stream_buffer.o
 .debug_abbrev  0x0000000000000000      0x44c build/stream_buffer.o
 .debug_loc     0x0000000000000000     0x1d92 build/stream_buffer.o
 .debug_aranges
                0x0000000000000000       0xe0 build/stream_buffer.o
 .debug_ranges  0x0000000000000000       0xd0 build/stream_buffer.o
 .debug_line    0x0000000000000000     0x1459 build/stream_buffer.o
 .debug_str     0x0000000000000000      0xd96 build/stream_buffer.o
 .comment       0x0000000000000000       0x52 build/stream_buffer.o
 .debug_frame   0x0000000000000000      0x380 build/stream_buffer.o
 .ARM.attributes
                0x0000000000000000       0x34 build/stream_buffer.o
 .text          0x0000000000000000        0x0 build/tasks.o
 .data          0x0000000000000000        0x0 build/tasks.o
 .bss           0x0000000000000000        0x0 build/tasks.o
 .text.prvTaskIsTaskSuspended
                0x0000000000000000       0x40 build/tasks.o
 .text.prvTaskCheckFreeStackSpace
                0x0000000000000000       0x14 build/tasks.o
 .text.vTaskDelete
                0x0000000000000000       0xb8 build/tasks.o
 .text.eTaskGetState
                0x0000000000000000       0x90 build/tasks.o
 .text.uxTaskPriorityGet
                0x0000000000000000       0x20 build/tasks.o
 .text.uxTaskPriorityGetFromISR
                0x0000000000000000       0x30 build/tasks.o
 .text.vTaskPrioritySet
                0x0000000000000000       0xd4 build/tasks.o
 .text.vTaskResume
                0x0000000000000000       0x88 build/tasks.o
 .text.xTaskResumeFromISR
                0x0000000000000000       0xa4 build/tasks.o
 .text.vTaskEndScheduler
                0x0000000000000000       0x24 build/tasks.o
 .text.xTaskGetTickCountFromISR
                0x0000000000000000       0x10 build/tasks.o
 .text.uxTaskGetNumberOfTasks
                0x0000000000000000        0xc build/tasks.o
 .text.pcTaskGetName
                0x0000000000000000       0x28 build/tasks.o
 .text.vTaskDelayUntil
                0x0000000000000000       0xa4 build/tasks.o
 .text.vTaskDelay
                0x0000000000000000       0x4c build/tasks.o
 .text.xTaskCatchUpTicks
                0x0000000000000000       0x38 build/tasks.o
 .text.vTaskSuspend
                0x0000000000000000       0xc4 build/tasks.o
 .text.vTaskPlaceOnUnorderedEventList
                0x0000000000000000       0x5c build/tasks.o
 .text.vTaskRemoveFromUnorderedEventList
                0x0000000000000000       0x88 build/tasks.o
 .text.vTaskSetTimeOutState
                0x0000000000000000       0x38 build/tasks.o
 .text.uxTaskGetTaskNumber
                0x0000000000000000        0xa build/tasks.o
 .text.vTaskSetTaskNumber
                0x0000000000000000        0x6 build/tasks.o
 .text.vTaskGetInfo
                0x0000000000000000       0x78 build/tasks.o
 .text.prvListTasksWithinSingleList
                0x0000000000000000       0x5e build/tasks.o
 .text.uxTaskGetSystemState
                0x0000000000000000       0xb0 build/tasks.o
 .text.uxTaskGetStackHighWaterMark
                0x0000000000000000       0x18 build/tasks.o
 .text.xTaskGetCurrentTaskHandle
                0x0000000000000000        0xc build/tasks.o
 .text.xTaskPriorityInherit
                0x0000000000000000       0x98 build/tasks.o
 .text.vTaskPriorityDisinheritAfterTimeout
                0x0000000000000000       0xa0 build/tasks.o
 .text.uxTaskResetEventItemValue
                0x0000000000000000       0x18 build/tasks.o
 .text.pvTaskIncrementMutexHeldCount
                0x0000000000000000       0x1c build/tasks.o
 .text.ulTaskNotifyTake
                0x0000000000000000       0x78 build/tasks.o
 .text.xTaskNotifyWait
                0x0000000000000000       0x98 build/tasks.o
 .text.xTaskGenericNotify
                0x0000000000000000      0x100 build/tasks.o
 .text.xTaskGenericNotifyFromISR
                0x0000000000000000      0x13c build/tasks.o
 .text.vTaskNotifyGiveFromISR
                0x0000000000000000       0xd0 build/tasks.o
 .text.xTaskNotifyStateClear
                0x0000000000000000       0x34 build/tasks.o
 .text.ulTaskNotifyValueClear
                0x0000000000000000       0x2c build/tasks.o
 .text          0x0000000000000000        0x0 build/timers.o
 .data          0x0000000000000000        0x0 build/timers.o
 .bss           0x0000000000000000        0x0 build/timers.o
 .text.prvInitialiseNewTimer
                0x0000000000000000       0x4c build/timers.o
 .text.xTimerCreate
                0x0000000000000000       0x38 build/timers.o
 .text.xTimerCreateStatic
                0x0000000000000000       0x4e build/timers.o
 .text.xTimerGetTimerDaemonTaskHandle
                0x0000000000000000       0x20 build/timers.o
 .text.xTimerGetPeriod
                0x0000000000000000       0x18 build/timers.o
 .text.vTimerSetReloadMode
                0x0000000000000000       0x40 build/timers.o
 .text.uxTimerGetReloadMode
                0x0000000000000000       0x34 build/timers.o
 .text.xTimerGetExpiryTime
                0x0000000000000000       0x18 build/timers.o
 .text.pcTimerGetName
                0x0000000000000000       0x18 build/timers.o
 .text.xTimerIsTimerActive
                0x0000000000000000       0x34 build/timers.o
 .text.pvTimerGetTimerID
                0x0000000000000000       0x26 build/timers.o
 .text.vTimerSetTimerID
                0x0000000000000000       0x26 build/timers.o
 .text.xTimerPendFunctionCallFromISR
                0x0000000000000000       0x28 build/timers.o
 .text.xTimerPendFunctionCall
                0x0000000000000000       0x40 build/timers.o
 .text.uxTimerGetTimerNumber
                0x0000000000000000        0x4 build/timers.o
 .text.vTimerSetTimerNumber
                0x0000000000000000        0x4 build/timers.o
 .text          0x0000000000000000        0x0 build/cmsis_os2.o
 .data          0x0000000000000000        0x0 build/cmsis_os2.o
 .bss           0x0000000000000000        0x0 build/cmsis_os2.o
 .text.OS_Tick_GetCount
                0x0000000000000000       0x10 build/cmsis_os2.o
 .text.OS_Tick_GetOverflow
                0x0000000000000000       0x10 build/cmsis_os2.o
 .text.OS_Tick_GetInterval
                0x0000000000000000        0xc build/cmsis_os2.o
 .text.CreateBlock
                0x0000000000000000       0x1c build/cmsis_os2.o
 .text.AllocBlock
                0x0000000000000000        0xc build/cmsis_os2.o
 .text.FreeBlock
                0x0000000000000000        0x8 build/cmsis_os2.o
 .text.TimerCallback
                0x0000000000000000       0x10 build/cmsis_os2.o
 .text.osKernelGetInfo
                0x0000000000000000       0x2c build/cmsis_os2.o
 .text.osKernelGetState
                0x0000000000000000       0x24 build/cmsis_os2.o
 .text.osKernelLock
                0x0000000000000000       0x2a build/cmsis_os2.o
 .text.osKernelUnlock
                0x0000000000000000       0x3a build/cmsis_os2.o
 .text.osKernelRestoreLock
                0x0000000000000000       0x4c build/cmsis_os2.o
 .text.osKernelGetTickCount
                0x0000000000000000       0x14 build/cmsis_os2.o
 .text.osKernelGetTickFreq
                0x0000000000000000        0x6 build/cmsis_os2.o
 .text.osKernelGetSysTimerCount
                0x0000000000000000       0x44 build/cmsis_os2.o
 .text.osKernelGetSysTimerFreq
                0x0000000000000000        0xc build/cmsis_os2.o
 .text.osThreadGetName
                0x0000000000000000       0x14 build/cmsis_os2.o
 .text.osThreadGetId
                0x0000000000000000        0x8 build/cmsis_os2.o
 .text.osThreadGetState
                0x0000000000000000       0x3e build/cmsis_os2.o
 .text.osThreadGetStackSpace
                0x0000000000000000       0x18 build/cmsis_os2.o
 .text.osThreadSetPriority
                0x0000000000000000       0x32 build/cmsis_os2.o
 .text.osThreadGetPriority
                0x0000000000000000       0x1c build/cmsis_os2.o
 .text.osThreadYield
                0x0000000000000000       0x24 build/cmsis_os2.o
 .text.osThreadSuspend
                0x0000000000000000       0x1e build/cmsis_os2.o
 .text.osThreadResume
                0x0000000000000000       0x1e build/cmsis_os2.o
 .text.osThreadExit
                0x0000000000000000        0xa build/cmsis_os2.o
 .text.osThreadTerminate
                0x0000000000000000       0x30 build/cmsis_os2.o
 .text.osThreadGetCount
                0x0000000000000000       0x12 build/cmsis_os2.o
 .text.osThreadEnumerate
                0x0000000000000000       0x66 build/cmsis_os2.o
 .text.osThreadFlagsSet
                0x0000000000000000       0x74 build/cmsis_os2.o
 .text.osThreadFlagsClear
                0x0000000000000000       0x56 build/cmsis_os2.o
 .text.osThreadFlagsGet
                0x0000000000000000       0x32 build/cmsis_os2.o
 .text.osThreadFlagsWait
                0x0000000000000000       0xac build/cmsis_os2.o
 .text.osDelay  0x0000000000000000       0x1c build/cmsis_os2.o
 .text.osDelayUntil
                0x0000000000000000       0x30 build/cmsis_os2.o
 .text.osTimerNew
                0x0000000000000000       0xa8 build/cmsis_os2.o
 .text.osTimerGetName
                0x0000000000000000       0x14 build/cmsis_os2.o
 .text.osTimerStart
                0x0000000000000000       0x34 build/cmsis_os2.o
 .text.osTimerStop
                0x0000000000000000       0x44 build/cmsis_os2.o
 .text.osTimerIsRunning
                0x0000000000000000       0x18 build/cmsis_os2.o
 .text.osTimerDelete
                0x0000000000000000       0x44 build/cmsis_os2.o
 .text.osEventFlagsNew
                0x0000000000000000       0x44 build/cmsis_os2.o
 .text.osEventFlagsSet
                0x0000000000000000       0x5c build/cmsis_os2.o
 .text.osEventFlagsClear
                0x0000000000000000       0x40 build/cmsis_os2.o
 .text.osEventFlagsGet
                0x0000000000000000       0x1c build/cmsis_os2.o
 .text.osEventFlagsWait
                0x0000000000000000       0x76 build/cmsis_os2.o
 .text.osEventFlagsDelete
                0x0000000000000000       0x1e build/cmsis_os2.o
 .text.osMutexNew
                0x0000000000000000       0x90 build/cmsis_os2.o
 .text.osMutexAcquire
                0x0000000000000000       0x5a build/cmsis_os2.o
 .text.osMutexRelease
                0x0000000000000000       0x4e build/cmsis_os2.o
 .text.osMutexGetOwner
                0x0000000000000000       0x1c build/cmsis_os2.o
 .text.osMutexDelete
                0x0000000000000000       0x2a build/cmsis_os2.o
 .text.osSemaphoreNew
                0x0000000000000000       0xb4 build/cmsis_os2.o
 .text.osSemaphoreAcquire
                0x0000000000000000       0x68 build/cmsis_os2.o
 .text.osSemaphoreRelease
                0x0000000000000000       0x60 build/cmsis_os2.o
 .text.osSemaphoreGetCount
                0x0000000000000000       0x1a build/cmsis_os2.o
 .text.osSemaphoreDelete
                0x0000000000000000       0x26 build/cmsis_os2.o
 .text.osMessageQueueNew
                0x0000000000000000       0x96 build/cmsis_os2.o
 .text.osMessageQueuePut
                0x0000000000000000       0x84 build/cmsis_os2.o
 .text.osMessageQueueGet
                0x0000000000000000       0x84 build/cmsis_os2.o
 .text.osMessageQueueGetCapacity
                0x0000000000000000        0xa build/cmsis_os2.o
 .text.osMessageQueueGetMsgSize
                0x0000000000000000        0xa build/cmsis_os2.o
 .text.osMessageQueueGetCount
                0x0000000000000000       0x1a build/cmsis_os2.o
 .text.osMessageQueueGetSpace
                0x0000000000000000       0x34 build/cmsis_os2.o
 .text.osMessageQueueReset
                0x0000000000000000       0x20 build/cmsis_os2.o
 .text.osMessageQueueDelete
                0x0000000000000000       0x26 build/cmsis_os2.o
 .text.osMemoryPoolNew
                0x0000000000000000      0x120 build/cmsis_os2.o
 .text.osMemoryPoolGetName
                0x0000000000000000       0x10 build/cmsis_os2.o
 .text.osMemoryPoolAlloc
                0x0000000000000000       0xb4 build/cmsis_os2.o
 .text.osMemoryPoolFree
                0x0000000000000000       0xe0 build/cmsis_os2.o
 .text.osMemoryPoolGetCapacity
                0x0000000000000000       0x1c build/cmsis_os2.o
 .text.osMemoryPoolGetBlockSize
                0x0000000000000000       0x1c build/cmsis_os2.o
 .text.osMemoryPoolGetCount
                0x0000000000000000       0x38 build/cmsis_os2.o
 .text.osMemoryPoolGetSpace
                0x0000000000000000       0x30 build/cmsis_os2.o
 .text.osMemoryPoolDelete
                0x0000000000000000       0x64 build/cmsis_os2.o
 .rodata.osKernelGetInfo.str1.4
                0x0000000000000000       0x11 build/cmsis_os2.o
 .text          0x0000000000000000        0x0 build/heap_4.o
 .data          0x0000000000000000        0x0 build/heap_4.o
 .bss           0x0000000000000000        0x0 build/heap_4.o
 .text.xPortGetFreeHeapSize
                0x0000000000000000        0xc build/heap_4.o
 .text.xPortGetMinimumEverFreeHeapSize
                0x0000000000000000        0xc build/heap_4.o
 .text.vPortInitialiseBlocks
                0x0000000000000000        0x2 build/heap_4.o
 .text.vPortGetHeapStats
                0x0000000000000000       0x80 build/heap_4.o
 .text          0x0000000000000000        0x0 build/port.o
 .data          0x0000000000000000        0x0 build/port.o
 .bss           0x0000000000000000        0x0 build/port.o
 .text.vPortEndScheduler
                0x0000000000000000       0x24 build/port.o
 .text          0x0000000000000000       0x1c build/startup_stm32wb55xx_cm4.o
 .data          0x0000000000000000        0x0 build/startup_stm32wb55xx_cm4.o
 .bss           0x0000000000000000        0x0 build/startup_stm32wb55xx_cm4.o
 .text          0x0000000000000000        0x0 secp256k1/src/libsecp256k1_la-secp256k1.o
 .data          0x0000000000000000        0x0 secp256k1/src/libsecp256k1_la-secp256k1.o
 .bss           0x0000000000000000        0x0 secp256k1/src/libsecp256k1_la-secp256k1.o
 .text.secp256k1_fe_from_storage
                0x0000000000000000       0x80 secp256k1/src/libsecp256k1_la-secp256k1.o
 .text.secp256k1_der_read_len
                0x0000000000000000       0x74 secp256k1/src/libsecp256k1_la-secp256k1.o
 .text.secp256k1_ecmult_wnaf.constprop.23
                0x0000000000000000       0xd4 secp256k1/src/libsecp256k1_la-secp256k1.o
 .text.secp256k1_der_parse_integer
                0x0000000000000000       0xd0 secp256k1/src/libsecp256k1_la-secp256k1.o
 .text.secp256k1_gej_eq_x_var
                0x0000000000000000       0xdc secp256k1/src/libsecp256k1_la-secp256k1.o
 .text.secp256k1_ge_set_xo_var
                0x0000000000000000     0x242c secp256k1/src/libsecp256k1_la-secp256k1.o
 .text.secp256k1_ecmult.isra.17
                0x0000000000000000      0x800 secp256k1/src/libsecp256k1_la-secp256k1.o
 .text.secp256k1_context_clone
                0x0000000000000000       0x94 secp256k1/src/libsecp256k1_la-secp256k1.o
 .text.secp256k1_context_set_illegal_callback
                0x0000000000000000       0x14 secp256k1/src/libsecp256k1_la-secp256k1.o
 .text.secp256k1_context_set_error_callback
                0x0000000000000000       0x14 secp256k1/src/libsecp256k1_la-secp256k1.o
 .text.secp256k1_ec_pubkey_parse
                0x0000000000000000      0x180 secp256k1/src/libsecp256k1_la-secp256k1.o
 .text.secp256k1_ecdsa_signature_parse_der
                0x0000000000000000       0xc4 secp256k1/src/libsecp256k1_la-secp256k1.o
 .text.secp256k1_ecdsa_signature_parse_compact
                0x0000000000000000       0x98 secp256k1/src/libsecp256k1_la-secp256k1.o
 .text.secp256k1_ecdsa_signature_serialize_compact
                0x0000000000000000       0x74 secp256k1/src/libsecp256k1_la-secp256k1.o
 .text.secp256k1_ecdsa_signature_normalize
                0x0000000000000000      0x154 secp256k1/src/libsecp256k1_la-secp256k1.o
 .text.secp256k1_ecdsa_verify
                0x0000000000000000      0x244 secp256k1/src/libsecp256k1_la-secp256k1.o
 .text.secp256k1_ecdsa_verify_validonly
                0x0000000000000000      0x134 secp256k1/src/libsecp256k1_la-secp256k1.o
 .text.secp256k1_ec_seckey_verify
                0x0000000000000000       0x54 secp256k1/src/libsecp256k1_la-secp256k1.o
 .text.secp256k1_ec_privkey_negate
                0x0000000000000000       0x38 secp256k1/src/libsecp256k1_la-secp256k1.o
 .text.secp256k1_ec_pubkey_negate
                0x0000000000000000       0xcc secp256k1/src/libsecp256k1_la-secp256k1.o
 .text.secp256k1_ec_privkey_tweak_add
                0x0000000000000000       0xa0 secp256k1/src/libsecp256k1_la-secp256k1.o
 .text.secp256k1_ec_pubkey_tweak_add
                0x0000000000000000      0x128 secp256k1/src/libsecp256k1_la-secp256k1.o
 .text.secp256k1_ec_privkey_tweak_mul
                0x0000000000000000       0xa8 secp256k1/src/libsecp256k1_la-secp256k1.o
 .text.secp256k1_ec_pubkey_tweak_mul
                0x0000000000000000      0x158 secp256k1/src/libsecp256k1_la-secp256k1.o
 .text.secp256k1_context_randomize
                0x0000000000000000       0x20 secp256k1/src/libsecp256k1_la-secp256k1.o
 .text.secp256k1_ec_pubkey_combine
                0x0000000000000000       0xdc secp256k1/src/libsecp256k1_la-secp256k1.o
 .text.secp256k1_ecdsa_recoverable_signature_parse_compact
                0x0000000000000000       0xb0 secp256k1/src/libsecp256k1_la-secp256k1.o
 .text.secp256k1_ecdsa_recoverable_signature_convert
                0x0000000000000000       0x98 secp256k1/src/libsecp256k1_la-secp256k1.o
 .text.secp256k1_ecdsa_recover
                0x0000000000000000      0x2b8 secp256k1/src/libsecp256k1_la-secp256k1.o
 .rodata.CURVE_B
                0x0000000000000000        0x4 secp256k1/src/libsecp256k1_la-secp256k1.o
 .rodata.secp256k1_ec_privkey_tweak_add.str1.4
                0x0000000000000000        0xe secp256k1/src/libsecp256k1_la-secp256k1.o
 .rodata.secp256k1_ec_pubkey_combine.str1.4
                0x0000000000000000       0x2e secp256k1/src/libsecp256k1_la-secp256k1.o
 .rodata.secp256k1_ecdsa_const_order_as_fe
                0x0000000000000000       0x28 secp256k1/src/libsecp256k1_la-secp256k1.o
 .rodata.secp256k1_ecdsa_recoverable_signature_parse_compact.str1.4
                0x0000000000000000       0x19 secp256k1/src/libsecp256k1_la-secp256k1.o
 .rodata.secp256k1_ecdsa_signature_normalize.str1.4
                0x0000000000000000        0xe secp256k1/src/libsecp256k1_la-secp256k1.o
 .rodata.secp256k1_ecdsa_signature_parse_compact.str1.4
                0x0000000000000000       0x10 secp256k1/src/libsecp256k1_la-secp256k1.o
 .rodata.secp256k1_nonce_function_default
                0x0000000000000000        0x4 secp256k1/src/libsecp256k1_la-secp256k1.o
 .data          0x0000000000000000        0x0 /usr/lib/gcc/arm-none-eabi/8.3.1/../../../arm-none-eabi/lib/thumb/v7e-m+fp/hard/libc_nano.a(lib_a-abort.o)
 .bss           0x0000000000000000        0x0 /usr/lib/gcc/arm-none-eabi/8.3.1/../../../arm-none-eabi/lib/thumb/v7e-m+fp/hard/libc_nano.a(lib_a-abort.o)
 .text          0x0000000000000000        0xc /usr/lib/gcc/arm-none-eabi/8.3.1/../../../arm-none-eabi/lib/thumb/v7e-m+fp/hard/libc_nano.a(lib_a-atexit.o)
 .data          0x0000000000000000        0x0 /usr/lib/gcc/arm-none-eabi/8.3.1/../../../arm-none-eabi/lib/thumb/v7e-m+fp/hard/libc_nano.a(lib_a-atexit.o)
 .bss           0x0000000000000000        0x0 /usr/lib/gcc/arm-none-eabi/8.3.1/../../../arm-none-eabi/lib/thumb/v7e-m+fp/hard/libc_nano.a(lib_a-atexit.o)
 .debug_info    0x0000000000000000      0x995 /usr/lib/gcc/arm-none-eabi/8.3.1/../../../arm-none-eabi/lib/thumb/v7e-m+fp/hard/libc_nano.a(lib_a-atexit.o)
 .debug_abbrev  0x0000000000000000      0x1f4 /usr/lib/gcc/arm-none-eabi/8.3.1/../../../arm-none-eabi/lib/thumb/v7e-m+fp/hard/libc_nano.a(lib_a-atexit.o)
 .debug_loc     0x0000000000000000       0x32 /usr/lib/gcc/arm-none-eabi/8.3.1/../../../arm-none-eabi/lib/thumb/v7e-m+fp/hard/libc_nano.a(lib_a-atexit.o)
 .debug_aranges
                0x0000000000000000       0x20 /usr/lib/gcc/arm-none-eabi/8.3.1/../../../arm-none-eabi/lib/thumb/v7e-m+fp/hard/libc_nano.a(lib_a-atexit.o)
 .debug_line    0x0000000000000000      0x14a /usr/lib/gcc/arm-none-eabi/8.3.1/../../../arm-none-eabi/lib/thumb/v7e-m+fp/hard/libc_nano.a(lib_a-atexit.o)
 .debug_str     0x0000000000000000      0x62d /usr/lib/gcc/arm-none-eabi/8.3.1/../../../arm-none-eabi/lib/thumb/v7e-m+fp/hard/libc_nano.a(lib_a-atexit.o)
 .comment       0x0000000000000000       0x4f /usr/lib/gcc/arm-none-eabi/8.3.1/../../../arm-none-eabi/lib/thumb/v7e-m+fp/hard/libc_nano.a(lib_a-atexit.o)
 .debug_frame   0x0000000000000000       0x20 /usr/lib/gcc/arm-none-eabi/8.3.1/../../../arm-none-eabi/lib/thumb/v7e-m+fp/hard/libc_nano.a(lib_a-atexit.o)
 .ARM.attributes
                0x0000000000000000       0x34 /usr/lib/gcc/arm-none-eabi/8.3.1/../../../arm-none-eabi/lib/thumb/v7e-m+fp/hard/libc_nano.a(lib_a-atexit.o)
 .data          0x0000000000000000        0x0 /usr/lib/gcc/arm-none-eabi/8.3.1/../../../arm-none-eabi/lib/thumb/v7e-m+fp/hard/libc_nano.a(lib_a-errno.o)
 .bss           0x0000000000000000        0x0 /usr/lib/gcc/arm-none-eabi/8.3.1/../../../arm-none-eabi/lib/thumb/v7e-m+fp/hard/libc_nano.a(lib_a-errno.o)
 .text          0x0000000000000000       0x28 /usr/lib/gcc/arm-none-eabi/8.3.1/../../../arm-none-eabi/lib/thumb/v7e-m+fp/hard/libc_nano.a(lib_a-exit.o)
 .data          0x0000000000000000        0x0 /usr/lib/gcc/arm-none-eabi/8.3.1/../../../arm-none-eabi/lib/thumb/v7e-m+fp/hard/libc_nano.a(lib_a-exit.o)
 .bss           0x0000000000000000        0x0 /usr/lib/gcc/arm-none-eabi/8.3.1/../../../arm-none-eabi/lib/thumb/v7e-m+fp/hard/libc_nano.a(lib_a-exit.o)
 .debug_info    0x0000000000000000      0x9e7 /usr/lib/gcc/arm-none-eabi/8.3.1/../../../arm-none-eabi/lib/thumb/v7e-m+fp/hard/libc_nano.a(lib_a-exit.o)
 .debug_abbrev  0x0000000000000000      0x1f6 /usr/lib/gcc/arm-none-eabi/8.3.1/../../../arm-none-eabi/lib/thumb/v7e-m+fp/hard/libc_nano.a(lib_a-exit.o)
 .debug_loc     0x0000000000000000       0x22 /usr/lib/gcc/arm-none-eabi/8.3.1/../../../arm-none-eabi/lib/thumb/v7e-m+fp/hard/libc_nano.a(lib_a-exit.o)
 .debug_aranges
                0x0000000000000000       0x20 /usr/lib/gcc/arm-none-eabi/8.3.1/../../../arm-none-eabi/lib/thumb/v7e-m+fp/hard/libc_nano.a(lib_a-exit.o)
 .debug_line    0x0000000000000000      0x16c /usr/lib/gcc/arm-none-eabi/8.3.1/../../../arm-none-eabi/lib/thumb/v7e-m+fp/hard/libc_nano.a(lib_a-exit.o)
 .debug_str     0x0000000000000000      0x62e /usr/lib/gcc/arm-none-eabi/8.3.1/../../../arm-none-eabi/lib/thumb/v7e-m+fp/hard/libc_nano.a(lib_a-exit.o)
 .comment       0x0000000000000000       0x4f /usr/lib/gcc/arm-none-eabi/8.3.1/../../../arm-none-eabi/lib/thumb/v7e-m+fp/hard/libc_nano.a(lib_a-exit.o)
 .debug_frame   0x0000000000000000       0x28 /usr/lib/gcc/arm-none-eabi/8.3.1/../../../arm-none-eabi/lib/thumb/v7e-m+fp/hard/libc_nano.a(lib_a-exit.o)
 .ARM.attributes
                0x0000000000000000       0x34 /usr/lib/gcc/arm-none-eabi/8.3.1/../../../arm-none-eabi/lib/thumb/v7e-m+fp/hard/libc_nano.a(lib_a-exit.o)
 .text          0x0000000000000000       0x34 /usr/lib/gcc/arm-none-eabi/8.3.1/../../../arm-none-eabi/lib/thumb/v7e-m+fp/hard/libc_nano.a(lib_a-fini.o)
 .data          0x0000000000000000        0x0 /usr/lib/gcc/arm-none-eabi/8.3.1/../../../arm-none-eabi/lib/thumb/v7e-m+fp/hard/libc_nano.a(lib_a-fini.o)
 .bss           0x0000000000000000        0x0 /usr/lib/gcc/arm-none-eabi/8.3.1/../../../arm-none-eabi/lib/thumb/v7e-m+fp/hard/libc_nano.a(lib_a-fini.o)
 .debug_info    0x0000000000000000      0x102 /usr/lib/gcc/arm-none-eabi/8.3.1/../../../arm-none-eabi/lib/thumb/v7e-m+fp/hard/libc_nano.a(lib_a-fini.o)
 .debug_abbrev  0x0000000000000000       0xcf /usr/lib/gcc/arm-none-eabi/8.3.1/../../../arm-none-eabi/lib/thumb/v7e-m+fp/hard/libc_nano.a(lib_a-fini.o)
 .debug_loc     0x0000000000000000       0x68 /usr/lib/gcc/arm-none-eabi/8.3.1/../../../arm-none-eabi/lib/thumb/v7e-m+fp/hard/libc_nano.a(lib_a-fini.o)
 .debug_aranges
                0x0000000000000000       0x20 /usr/lib/gcc/arm-none-eabi/8.3.1/../../../arm-none-eabi/lib/thumb/v7e-m+fp/hard/libc_nano.a(lib_a-fini.o)
 .debug_line    0x0000000000000000       0xd7 /usr/lib/gcc/arm-none-eabi/8.3.1/../../../arm-none-eabi/lib/thumb/v7e-m+fp/hard/libc_nano.a(lib_a-fini.o)
 .debug_str     0x0000000000000000      0x1ff /usr/lib/gcc/arm-none-eabi/8.3.1/../../../arm-none-eabi/lib/thumb/v7e-m+fp/hard/libc_nano.a(lib_a-fini.o)
 .comment       0x0000000000000000       0x4f /usr/lib/gcc/arm-none-eabi/8.3.1/../../../arm-none-eabi/lib/thumb/v7e-m+fp/hard/libc_nano.a(lib_a-fini.o)
 .debug_frame   0x0000000000000000       0x34 /usr/lib/gcc/arm-none-eabi/8.3.1/../../../arm-none-eabi/lib/thumb/v7e-m+fp/hard/libc_nano.a(lib_a-fini.o)
 .ARM.attributes
                0x0000000000000000       0x34 /usr/lib/gcc/arm-none-eabi/8.3.1/../../../arm-none-eabi/lib/thumb/v7e-m+fp/hard/libc_nano.a(lib_a-fini.o)
 .data          0x0000000000000000        0x0 /usr/lib/gcc/arm-none-eabi/8.3.1/../../../arm-none-eabi/lib/thumb/v7e-m+fp/hard/libc_nano.a(lib_a-fprintf.o)
 .bss           0x0000000000000000        0x0 /usr/lib/gcc/arm-none-eabi/8.3.1/../../../arm-none-eabi/lib/thumb/v7e-m+fp/hard/libc_nano.a(lib_a-fprintf.o)
 .data          0x0000000000000000        0x0 /usr/lib/gcc/arm-none-eabi/8.3.1/../../../arm-none-eabi/lib/thumb/v7e-m+fp/hard/libc_nano.a(lib_a-getchar.o)
 .bss           0x0000000000000000        0x0 /usr/lib/gcc/arm-none-eabi/8.3.1/../../../arm-none-eabi/lib/thumb/v7e-m+fp/hard/libc_nano.a(lib_a-getchar.o)
 .text          0x0000000000000000        0x0 /usr/lib/gcc/arm-none-eabi/8.3.1/../../../arm-none-eabi/lib/thumb/v7e-m+fp/hard/libc_nano.a(lib_a-impure.o)
 .bss           0x0000000000000000        0x0 /usr/lib/gcc/arm-none-eabi/8.3.1/../../../arm-none-eabi/lib/thumb/v7e-m+fp/hard/libc_nano.a(lib_a-impure.o)
 .data          0x0000000000000000        0x0 /usr/lib/gcc/arm-none-eabi/8.3.1/../../../arm-none-eabi/lib/thumb/v7e-m+fp/hard/libc_nano.a(lib_a-init.o)
 .bss           0x0000000000000000        0x0 /usr/lib/gcc/arm-none-eabi/8.3.1/../../../arm-none-eabi/lib/thumb/v7e-m+fp/hard/libc_nano.a(lib_a-init.o)
 .data          0x0000000000000000        0x0 /usr/lib/gcc/arm-none-eabi/8.3.1/../../../arm-none-eabi/lib/thumb/v7e-m+fp/hard/libc_nano.a(lib_a-malloc.o)
 .bss           0x0000000000000000        0x0 /usr/lib/gcc/arm-none-eabi/8.3.1/../../../arm-none-eabi/lib/thumb/v7e-m+fp/hard/libc_nano.a(lib_a-malloc.o)
 .data          0x0000000000000000        0x0 /usr/lib/gcc/arm-none-eabi/8.3.1/../../../arm-none-eabi/lib/thumb/v7e-m+fp/hard/libc_nano.a(lib_a-memchr.o)
 .bss           0x0000000000000000        0x0 /usr/lib/gcc/arm-none-eabi/8.3.1/../../../arm-none-eabi/lib/thumb/v7e-m+fp/hard/libc_nano.a(lib_a-memchr.o)
 .data          0x0000000000000000        0x0 /usr/lib/gcc/arm-none-eabi/8.3.1/../../../arm-none-eabi/lib/thumb/v7e-m+fp/hard/libc_nano.a(lib_a-memcmp.o)
 .bss           0x0000000000000000        0x0 /usr/lib/gcc/arm-none-eabi/8.3.1/../../../arm-none-eabi/lib/thumb/v7e-m+fp/hard/libc_nano.a(lib_a-memcmp.o)
 .data          0x0000000000000000        0x0 /usr/lib/gcc/arm-none-eabi/8.3.1/../../../arm-none-eabi/lib/thumb/v7e-m+fp/hard/libc_nano.a(lib_a-memcpy.o)
 .bss           0x0000000000000000        0x0 /usr/lib/gcc/arm-none-eabi/8.3.1/../../../arm-none-eabi/lib/thumb/v7e-m+fp/hard/libc_nano.a(lib_a-memcpy.o)
 .data          0x0000000000000000        0x0 /usr/lib/gcc/arm-none-eabi/8.3.1/../../../arm-none-eabi/lib/thumb/v7e-m+fp/hard/libc_nano.a(lib_a-memset.o)
 .bss           0x0000000000000000        0x0 /usr/lib/gcc/arm-none-eabi/8.3.1/../../../arm-none-eabi/lib/thumb/v7e-m+fp/hard/libc_nano.a(lib_a-memset.o)
 .data          0x0000000000000000        0x0 /usr/lib/gcc/arm-none-eabi/8.3.1/../../../arm-none-eabi/lib/thumb/v7e-m+fp/hard/libc_nano.a(lib_a-nano-freer.o)
 .bss           0x0000000000000000        0x0 /usr/lib/gcc/arm-none-eabi/8.3.1/../../../arm-none-eabi/lib/thumb/v7e-m+fp/hard/libc_nano.a(lib_a-nano-freer.o)
 .data          0x0000000000000000        0x0 /usr/lib/gcc/arm-none-eabi/8.3.1/../../../arm-none-eabi/lib/thumb/v7e-m+fp/hard/libc_nano.a(lib_a-nano-mallocr.o)
 .data          0x0000000000000000        0x0 /usr/lib/gcc/arm-none-eabi/8.3.1/../../../arm-none-eabi/lib/thumb/v7e-m+fp/hard/libc_nano.a(lib_a-nano-vfprintf.o)
 .bss           0x0000000000000000        0x0 /usr/lib/gcc/arm-none-eabi/8.3.1/../../../arm-none-eabi/lib/thumb/v7e-m+fp/hard/libc_nano.a(lib_a-nano-vfprintf.o)
 .data          0x0000000000000000        0x0 /usr/lib/gcc/arm-none-eabi/8.3.1/../../../arm-none-eabi/lib/thumb/v7e-m+fp/hard/libc_nano.a(lib_a-nano-vfprintf_float.o)
 .bss           0x0000000000000000        0x0 /usr/lib/gcc/arm-none-eabi/8.3.1/../../../arm-none-eabi/lib/thumb/v7e-m+fp/hard/libc_nano.a(lib_a-nano-vfprintf_float.o)
 .data          0x0000000000000000        0x0 /usr/lib/gcc/arm-none-eabi/8.3.1/../../../arm-none-eabi/lib/thumb/v7e-m+fp/hard/libc_nano.a(lib_a-nano-vfprintf_i.o)
 .bss           0x0000000000000000        0x0 /usr/lib/gcc/arm-none-eabi/8.3.1/../../../arm-none-eabi/lib/thumb/v7e-m+fp/hard/libc_nano.a(lib_a-nano-vfprintf_i.o)
 .data          0x0000000000000000        0x0 /usr/lib/gcc/arm-none-eabi/8.3.1/../../../arm-none-eabi/lib/thumb/v7e-m+fp/hard/libc_nano.a(lib_a-printf.o)
 .bss           0x0000000000000000        0x0 /usr/lib/gcc/arm-none-eabi/8.3.1/../../../arm-none-eabi/lib/thumb/v7e-m+fp/hard/libc_nano.a(lib_a-printf.o)
 .data          0x0000000000000000        0x0 /usr/lib/gcc/arm-none-eabi/8.3.1/../../../arm-none-eabi/lib/thumb/v7e-m+fp/hard/libc_nano.a(lib_a-putchar.o)
 .bss           0x0000000000000000        0x0 /usr/lib/gcc/arm-none-eabi/8.3.1/../../../arm-none-eabi/lib/thumb/v7e-m+fp/hard/libc_nano.a(lib_a-putchar.o)
 .data          0x0000000000000000        0x0 /usr/lib/gcc/arm-none-eabi/8.3.1/../../../arm-none-eabi/lib/thumb/v7e-m+fp/hard/libc_nano.a(lib_a-puts.o)
 .bss           0x0000000000000000        0x0 /usr/lib/gcc/arm-none-eabi/8.3.1/../../../arm-none-eabi/lib/thumb/v7e-m+fp/hard/libc_nano.a(lib_a-puts.o)
 .data          0x0000000000000000        0x0 /usr/lib/gcc/arm-none-eabi/8.3.1/../../../arm-none-eabi/lib/thumb/v7e-m+fp/hard/libc_nano.a(lib_a-sbrkr.o)
 .bss           0x0000000000000000        0x0 /usr/lib/gcc/arm-none-eabi/8.3.1/../../../arm-none-eabi/lib/thumb/v7e-m+fp/hard/libc_nano.a(lib_a-sbrkr.o)
 .data          0x0000000000000000        0x0 /usr/lib/gcc/arm-none-eabi/8.3.1/../../../arm-none-eabi/lib/thumb/v7e-m+fp/hard/libc_nano.a(lib_a-setvbuf.o)
 .bss           0x0000000000000000        0x0 /usr/lib/gcc/arm-none-eabi/8.3.1/../../../arm-none-eabi/lib/thumb/v7e-m+fp/hard/libc_nano.a(lib_a-setvbuf.o)
 .data          0x0000000000000000        0x0 /usr/lib/gcc/arm-none-eabi/8.3.1/../../../arm-none-eabi/lib/thumb/v7e-m+fp/hard/libc_nano.a(lib_a-signal.o)
 .bss           0x0000000000000000        0x0 /usr/lib/gcc/arm-none-eabi/8.3.1/../../../arm-none-eabi/lib/thumb/v7e-m+fp/hard/libc_nano.a(lib_a-signal.o)
 .data          0x0000000000000000        0x0 /usr/lib/gcc/arm-none-eabi/8.3.1/../../../arm-none-eabi/lib/thumb/v7e-m+fp/hard/libc_nano.a(lib_a-signalr.o)
 .bss           0x0000000000000000        0x0 /usr/lib/gcc/arm-none-eabi/8.3.1/../../../arm-none-eabi/lib/thumb/v7e-m+fp/hard/libc_nano.a(lib_a-signalr.o)
 .text          0x0000000000000000       0x80 /usr/lib/gcc/arm-none-eabi/8.3.1/../../../arm-none-eabi/lib/thumb/v7e-m+fp/hard/libc_nano.a(lib_a-sprintf.o)
 .data          0x0000000000000000        0x0 /usr/lib/gcc/arm-none-eabi/8.3.1/../../../arm-none-eabi/lib/thumb/v7e-m+fp/hard/libc_nano.a(lib_a-sprintf.o)
 .bss           0x0000000000000000        0x0 /usr/lib/gcc/arm-none-eabi/8.3.1/../../../arm-none-eabi/lib/thumb/v7e-m+fp/hard/libc_nano.a(lib_a-sprintf.o)
 .debug_info    0x0000000000000000      0xc90 /usr/lib/gcc/arm-none-eabi/8.3.1/../../../arm-none-eabi/lib/thumb/v7e-m+fp/hard/libc_nano.a(lib_a-sprintf.o)
 .debug_abbrev  0x0000000000000000      0x274 /usr/lib/gcc/arm-none-eabi/8.3.1/../../../arm-none-eabi/lib/thumb/v7e-m+fp/hard/libc_nano.a(lib_a-sprintf.o)
 .debug_loc     0x0000000000000000       0xc2 /usr/lib/gcc/arm-none-eabi/8.3.1/../../../arm-none-eabi/lib/thumb/v7e-m+fp/hard/libc_nano.a(lib_a-sprintf.o)
 .debug_aranges
                0x0000000000000000       0x20 /usr/lib/gcc/arm-none-eabi/8.3.1/../../../arm-none-eabi/lib/thumb/v7e-m+fp/hard/libc_nano.a(lib_a-sprintf.o)
 .debug_line    0x0000000000000000      0x22c /usr/lib/gcc/arm-none-eabi/8.3.1/../../../arm-none-eabi/lib/thumb/v7e-m+fp/hard/libc_nano.a(lib_a-sprintf.o)
 .debug_str     0x0000000000000000      0x75d /usr/lib/gcc/arm-none-eabi/8.3.1/../../../arm-none-eabi/lib/thumb/v7e-m+fp/hard/libc_nano.a(lib_a-sprintf.o)
 .comment       0x0000000000000000       0x4f /usr/lib/gcc/arm-none-eabi/8.3.1/../../../arm-none-eabi/lib/thumb/v7e-m+fp/hard/libc_nano.a(lib_a-sprintf.o)
 .debug_frame   0x0000000000000000       0x80 /usr/lib/gcc/arm-none-eabi/8.3.1/../../../arm-none-eabi/lib/thumb/v7e-m+fp/hard/libc_nano.a(lib_a-sprintf.o)
 .ARM.attributes
                0x0000000000000000       0x34 /usr/lib/gcc/arm-none-eabi/8.3.1/../../../arm-none-eabi/lib/thumb/v7e-m+fp/hard/libc_nano.a(lib_a-sprintf.o)
 .text          0x0000000000000000       0x40 /usr/lib/gcc/arm-none-eabi/8.3.1/../../../arm-none-eabi/lib/thumb/v7e-m+fp/hard/libc_nano.a(lib_a-strcat.o)
 .data          0x0000000000000000        0x0 /usr/lib/gcc/arm-none-eabi/8.3.1/../../../arm-none-eabi/lib/thumb/v7e-m+fp/hard/libc_nano.a(lib_a-strcat.o)
 .bss           0x0000000000000000        0x0 /usr/lib/gcc/arm-none-eabi/8.3.1/../../../arm-none-eabi/lib/thumb/v7e-m+fp/hard/libc_nano.a(lib_a-strcat.o)
 .debug_info    0x0000000000000000      0x9a4 /usr/lib/gcc/arm-none-eabi/8.3.1/../../../arm-none-eabi/lib/thumb/v7e-m+fp/hard/libc_nano.a(lib_a-strcat.o)
 .debug_abbrev  0x0000000000000000      0x1ee /usr/lib/gcc/arm-none-eabi/8.3.1/../../../arm-none-eabi/lib/thumb/v7e-m+fp/hard/libc_nano.a(lib_a-strcat.o)
 .debug_loc     0x0000000000000000       0xa9 /usr/lib/gcc/arm-none-eabi/8.3.1/../../../arm-none-eabi/lib/thumb/v7e-m+fp/hard/libc_nano.a(lib_a-strcat.o)
 .debug_aranges
                0x0000000000000000       0x20 /usr/lib/gcc/arm-none-eabi/8.3.1/../../../arm-none-eabi/lib/thumb/v7e-m+fp/hard/libc_nano.a(lib_a-strcat.o)
 .debug_line    0x0000000000000000      0x179 /usr/lib/gcc/arm-none-eabi/8.3.1/../../../arm-none-eabi/lib/thumb/v7e-m+fp/hard/libc_nano.a(lib_a-strcat.o)
 .debug_str     0x0000000000000000      0x5f1 /usr/lib/gcc/arm-none-eabi/8.3.1/../../../arm-none-eabi/lib/thumb/v7e-m+fp/hard/libc_nano.a(lib_a-strcat.o)
 .comment       0x0000000000000000       0x4f /usr/lib/gcc/arm-none-eabi/8.3.1/../../../arm-none-eabi/lib/thumb/v7e-m+fp/hard/libc_nano.a(lib_a-strcat.o)
 .debug_frame   0x0000000000000000       0x28 /usr/lib/gcc/arm-none-eabi/8.3.1/../../../arm-none-eabi/lib/thumb/v7e-m+fp/hard/libc_nano.a(lib_a-strcat.o)
 .ARM.attributes
                0x0000000000000000       0x34 /usr/lib/gcc/arm-none-eabi/8.3.1/../../../arm-none-eabi/lib/thumb/v7e-m+fp/hard/libc_nano.a(lib_a-strcat.o)
 .text          0x0000000000000000       0xbc /usr/lib/gcc/arm-none-eabi/8.3.1/../../../arm-none-eabi/lib/thumb/v7e-m+fp/hard/libc_nano.a(lib_a-strcpy.o)
 .data          0x0000000000000000        0x0 /usr/lib/gcc/arm-none-eabi/8.3.1/../../../arm-none-eabi/lib/thumb/v7e-m+fp/hard/libc_nano.a(lib_a-strcpy.o)
 .bss           0x0000000000000000        0x0 /usr/lib/gcc/arm-none-eabi/8.3.1/../../../arm-none-eabi/lib/thumb/v7e-m+fp/hard/libc_nano.a(lib_a-strcpy.o)
 .debug_info    0x0000000000000000      0x943 /usr/lib/gcc/arm-none-eabi/8.3.1/../../../arm-none-eabi/lib/thumb/v7e-m+fp/hard/libc_nano.a(lib_a-strcpy.o)
 .debug_abbrev  0x0000000000000000      0x1a5 /usr/lib/gcc/arm-none-eabi/8.3.1/../../../arm-none-eabi/lib/thumb/v7e-m+fp/hard/libc_nano.a(lib_a-strcpy.o)
 .debug_loc     0x0000000000000000       0x25 /usr/lib/gcc/arm-none-eabi/8.3.1/../../../arm-none-eabi/lib/thumb/v7e-m+fp/hard/libc_nano.a(lib_a-strcpy.o)
 .debug_aranges
                0x0000000000000000       0x20 /usr/lib/gcc/arm-none-eabi/8.3.1/../../../arm-none-eabi/lib/thumb/v7e-m+fp/hard/libc_nano.a(lib_a-strcpy.o)
 .debug_ranges  0x0000000000000000       0x10 /usr/lib/gcc/arm-none-eabi/8.3.1/../../../arm-none-eabi/lib/thumb/v7e-m+fp/hard/libc_nano.a(lib_a-strcpy.o)
 .debug_line    0x0000000000000000      0x149 /usr/lib/gcc/arm-none-eabi/8.3.1/../../../arm-none-eabi/lib/thumb/v7e-m+fp/hard/libc_nano.a(lib_a-strcpy.o)
 .debug_str     0x0000000000000000      0x5ec /usr/lib/gcc/arm-none-eabi/8.3.1/../../../arm-none-eabi/lib/thumb/v7e-m+fp/hard/libc_nano.a(lib_a-strcpy.o)
 .comment       0x0000000000000000       0x4f /usr/lib/gcc/arm-none-eabi/8.3.1/../../../arm-none-eabi/lib/thumb/v7e-m+fp/hard/libc_nano.a(lib_a-strcpy.o)
 .debug_frame   0x0000000000000000       0x20 /usr/lib/gcc/arm-none-eabi/8.3.1/../../../arm-none-eabi/lib/thumb/v7e-m+fp/hard/libc_nano.a(lib_a-strcpy.o)
 .ARM.attributes
                0x0000000000000000       0x34 /usr/lib/gcc/arm-none-eabi/8.3.1/../../../arm-none-eabi/lib/thumb/v7e-m+fp/hard/libc_nano.a(lib_a-strcpy.o)
 .data          0x0000000000000000        0x0 /usr/lib/gcc/arm-none-eabi/8.3.1/../../../arm-none-eabi/lib/thumb/v7e-m+fp/hard/libc_nano.a(lib_a-strlen.o)
 .bss           0x0000000000000000        0x0 /usr/lib/gcc/arm-none-eabi/8.3.1/../../../arm-none-eabi/lib/thumb/v7e-m+fp/hard/libc_nano.a(lib_a-strlen.o)
 .data          0x0000000000000000        0x0 /usr/lib/gcc/arm-none-eabi/8.3.1/../../../arm-none-eabi/lib/thumb/v7e-m+fp/hard/libc_nano.a(lib_a-strncmp.o)
 .bss           0x0000000000000000        0x0 /usr/lib/gcc/arm-none-eabi/8.3.1/../../../arm-none-eabi/lib/thumb/v7e-m+fp/hard/libc_nano.a(lib_a-strncmp.o)
 .data          0x0000000000000000        0x0 /usr/lib/gcc/arm-none-eabi/8.3.1/../../../arm-none-eabi/lib/thumb/v7e-m+fp/hard/libc_nano.a(lib_a-strncpy.o)
 .bss           0x0000000000000000        0x0 /usr/lib/gcc/arm-none-eabi/8.3.1/../../../arm-none-eabi/lib/thumb/v7e-m+fp/hard/libc_nano.a(lib_a-strncpy.o)
 .data          0x0000000000000000        0x0 /usr/lib/gcc/arm-none-eabi/8.3.1/../../../arm-none-eabi/lib/thumb/v7e-m+fp/hard/libc_nano.a(lib_a-strtoul.o)
 .bss           0x0000000000000000        0x0 /usr/lib/gcc/arm-none-eabi/8.3.1/../../../arm-none-eabi/lib/thumb/v7e-m+fp/hard/libc_nano.a(lib_a-strtoul.o)
 .data          0x0000000000000000        0x0 /usr/lib/gcc/arm-none-eabi/8.3.1/../../../arm-none-eabi/lib/thumb/v7e-m+fp/hard/libc_nano.a(lib_a-wbuf.o)
 .bss           0x0000000000000000        0x0 /usr/lib/gcc/arm-none-eabi/8.3.1/../../../arm-none-eabi/lib/thumb/v7e-m+fp/hard/libc_nano.a(lib_a-wbuf.o)
 .data          0x0000000000000000        0x0 /usr/lib/gcc/arm-none-eabi/8.3.1/../../../arm-none-eabi/lib/thumb/v7e-m+fp/hard/libc_nano.a(lib_a-wsetup.o)
 .bss           0x0000000000000000        0x0 /usr/lib/gcc/arm-none-eabi/8.3.1/../../../arm-none-eabi/lib/thumb/v7e-m+fp/hard/libc_nano.a(lib_a-wsetup.o)
 .text          0x0000000000000000       0xa0 /usr/lib/gcc/arm-none-eabi/8.3.1/../../../arm-none-eabi/lib/thumb/v7e-m+fp/hard/libc_nano.a(lib_a-__atexit.o)
 .data          0x0000000000000000        0x4 /usr/lib/gcc/arm-none-eabi/8.3.1/../../../arm-none-eabi/lib/thumb/v7e-m+fp/hard/libc_nano.a(lib_a-__atexit.o)
 .bss           0x0000000000000000       0x8c /usr/lib/gcc/arm-none-eabi/8.3.1/../../../arm-none-eabi/lib/thumb/v7e-m+fp/hard/libc_nano.a(lib_a-__atexit.o)
 .debug_info    0x0000000000000000      0xa3c /usr/lib/gcc/arm-none-eabi/8.3.1/../../../arm-none-eabi/lib/thumb/v7e-m+fp/hard/libc_nano.a(lib_a-__atexit.o)
 .debug_abbrev  0x0000000000000000      0x261 /usr/lib/gcc/arm-none-eabi/8.3.1/../../../arm-none-eabi/lib/thumb/v7e-m+fp/hard/libc_nano.a(lib_a-__atexit.o)
 .debug_loc     0x0000000000000000      0x230 /usr/lib/gcc/arm-none-eabi/8.3.1/../../../arm-none-eabi/lib/thumb/v7e-m+fp/hard/libc_nano.a(lib_a-__atexit.o)
 .debug_aranges
                0x0000000000000000       0x20 /usr/lib/gcc/arm-none-eabi/8.3.1/../../../arm-none-eabi/lib/thumb/v7e-m+fp/hard/libc_nano.a(lib_a-__atexit.o)
 .debug_line    0x0000000000000000      0x228 /usr/lib/gcc/arm-none-eabi/8.3.1/../../../arm-none-eabi/lib/thumb/v7e-m+fp/hard/libc_nano.a(lib_a-__atexit.o)
 .debug_str     0x0000000000000000      0x680 /usr/lib/gcc/arm-none-eabi/8.3.1/../../../arm-none-eabi/lib/thumb/v7e-m+fp/hard/libc_nano.a(lib_a-__atexit.o)
 .comment       0x0000000000000000       0x4f /usr/lib/gcc/arm-none-eabi/8.3.1/../../../arm-none-eabi/lib/thumb/v7e-m+fp/hard/libc_nano.a(lib_a-__atexit.o)
 .debug_frame   0x0000000000000000       0x34 /usr/lib/gcc/arm-none-eabi/8.3.1/../../../arm-none-eabi/lib/thumb/v7e-m+fp/hard/libc_nano.a(lib_a-__atexit.o)
 .ARM.attributes
                0x0000000000000000       0x34 /usr/lib/gcc/arm-none-eabi/8.3.1/../../../arm-none-eabi/lib/thumb/v7e-m+fp/hard/libc_nano.a(lib_a-__atexit.o)
 .text          0x0000000000000000       0x9c /usr/lib/gcc/arm-none-eabi/8.3.1/../../../arm-none-eabi/lib/thumb/v7e-m+fp/hard/libc_nano.a(lib_a-__call_atexit.o)
 .data          0x0000000000000000        0x0 /usr/lib/gcc/arm-none-eabi/8.3.1/../../../arm-none-eabi/lib/thumb/v7e-m+fp/hard/libc_nano.a(lib_a-__call_atexit.o)
 .bss           0x0000000000000000        0x4 /usr/lib/gcc/arm-none-eabi/8.3.1/../../../arm-none-eabi/lib/thumb/v7e-m+fp/hard/libc_nano.a(lib_a-__call_atexit.o)
 .debug_info    0x0000000000000000      0xa10 /usr/lib/gcc/arm-none-eabi/8.3.1/../../../arm-none-eabi/lib/thumb/v7e-m+fp/hard/libc_nano.a(lib_a-__call_atexit.o)
 .debug_abbrev  0x0000000000000000      0x237 /usr/lib/gcc/arm-none-eabi/8.3.1/../../../arm-none-eabi/lib/thumb/v7e-m+fp/hard/libc_nano.a(lib_a-__call_atexit.o)
 .debug_loc     0x0000000000000000      0x13f /usr/lib/gcc/arm-none-eabi/8.3.1/../../../arm-none-eabi/lib/thumb/v7e-m+fp/hard/libc_nano.a(lib_a-__call_atexit.o)
 .debug_aranges
                0x0000000000000000       0x20 /usr/lib/gcc/arm-none-eabi/8.3.1/../../../arm-none-eabi/lib/thumb/v7e-m+fp/hard/libc_nano.a(lib_a-__call_atexit.o)
 .debug_ranges  0x0000000000000000       0x28 /usr/lib/gcc/arm-none-eabi/8.3.1/../../../arm-none-eabi/lib/thumb/v7e-m+fp/hard/libc_nano.a(lib_a-__call_atexit.o)
 .debug_line    0x0000000000000000      0x22a /usr/lib/gcc/arm-none-eabi/8.3.1/../../../arm-none-eabi/lib/thumb/v7e-m+fp/hard/libc_nano.a(lib_a-__call_atexit.o)
 .debug_str     0x0000000000000000      0x62b /usr/lib/gcc/arm-none-eabi/8.3.1/../../../arm-none-eabi/lib/thumb/v7e-m+fp/hard/libc_nano.a(lib_a-__call_atexit.o)
 .comment       0x0000000000000000       0x4f /usr/lib/gcc/arm-none-eabi/8.3.1/../../../arm-none-eabi/lib/thumb/v7e-m+fp/hard/libc_nano.a(lib_a-__call_atexit.o)
 .debug_frame   0x0000000000000000       0x40 /usr/lib/gcc/arm-none-eabi/8.3.1/../../../arm-none-eabi/lib/thumb/v7e-m+fp/hard/libc_nano.a(lib_a-__call_atexit.o)
 .ARM.attributes
                0x0000000000000000       0x34 /usr/lib/gcc/arm-none-eabi/8.3.1/../../../arm-none-eabi/lib/thumb/v7e-m+fp/hard/libc_nano.a(lib_a-__call_atexit.o)
 .text          0x0000000000000000        0x0 /usr/lib/gcc/arm-none-eabi/8.3.1/../../../arm-none-eabi/lib/thumb/v7e-m+fp/hard/libc_nano.a(lib_a-ctype_.o)
 .data          0x0000000000000000        0x0 /usr/lib/gcc/arm-none-eabi/8.3.1/../../../arm-none-eabi/lib/thumb/v7e-m+fp/hard/libc_nano.a(lib_a-ctype_.o)
 .bss           0x0000000000000000        0x0 /usr/lib/gcc/arm-none-eabi/8.3.1/../../../arm-none-eabi/lib/thumb/v7e-m+fp/hard/libc_nano.a(lib_a-ctype_.o)
 .data          0x0000000000000000        0x0 /usr/lib/gcc/arm-none-eabi/8.3.1/../../../arm-none-eabi/lib/thumb/v7e-m+fp/hard/libc_nano.a(lib_a-dtoa.o)
 .bss           0x0000000000000000        0x0 /usr/lib/gcc/arm-none-eabi/8.3.1/../../../arm-none-eabi/lib/thumb/v7e-m+fp/hard/libc_nano.a(lib_a-dtoa.o)
 .data          0x0000000000000000        0x0 /usr/lib/gcc/arm-none-eabi/8.3.1/../../../arm-none-eabi/lib/thumb/v7e-m+fp/hard/libc_nano.a(lib_a-fflush.o)
 .bss           0x0000000000000000        0x0 /usr/lib/gcc/arm-none-eabi/8.3.1/../../../arm-none-eabi/lib/thumb/v7e-m+fp/hard/libc_nano.a(lib_a-fflush.o)
 .data          0x0000000000000000        0x0 /usr/lib/gcc/arm-none-eabi/8.3.1/../../../arm-none-eabi/lib/thumb/v7e-m+fp/hard/libc_nano.a(lib_a-findfp.o)
 .bss           0x0000000000000000        0x0 /usr/lib/gcc/arm-none-eabi/8.3.1/../../../arm-none-eabi/lib/thumb/v7e-m+fp/hard/libc_nano.a(lib_a-findfp.o)
 .data          0x0000000000000000        0x0 /usr/lib/gcc/arm-none-eabi/8.3.1/../../../arm-none-eabi/lib/thumb/v7e-m+fp/hard/libc_nano.a(lib_a-fvwrite.o)
 .bss           0x0000000000000000        0x0 /usr/lib/gcc/arm-none-eabi/8.3.1/../../../arm-none-eabi/lib/thumb/v7e-m+fp/hard/libc_nano.a(lib_a-fvwrite.o)
 .data          0x0000000000000000        0x0 /usr/lib/gcc/arm-none-eabi/8.3.1/../../../arm-none-eabi/lib/thumb/v7e-m+fp/hard/libc_nano.a(lib_a-fwalk.o)
 .bss           0x0000000000000000        0x0 /usr/lib/gcc/arm-none-eabi/8.3.1/../../../arm-none-eabi/lib/thumb/v7e-m+fp/hard/libc_nano.a(lib_a-fwalk.o)
 .data          0x0000000000000000        0x0 /usr/lib/gcc/arm-none-eabi/8.3.1/../../../arm-none-eabi/lib/thumb/v7e-m+fp/hard/libc_nano.a(lib_a-getc.o)
 .bss           0x0000000000000000        0x0 /usr/lib/gcc/arm-none-eabi/8.3.1/../../../arm-none-eabi/lib/thumb/v7e-m+fp/hard/libc_nano.a(lib_a-getc.o)
 .data          0x0000000000000000        0x0 /usr/lib/gcc/arm-none-eabi/8.3.1/../../../arm-none-eabi/lib/thumb/v7e-m+fp/hard/libc_nano.a(lib_a-localeconv.o)
 .bss           0x0000000000000000        0x0 /usr/lib/gcc/arm-none-eabi/8.3.1/../../../arm-none-eabi/lib/thumb/v7e-m+fp/hard/libc_nano.a(lib_a-localeconv.o)
 .data          0x0000000000000000        0x0 /usr/lib/gcc/arm-none-eabi/8.3.1/../../../arm-none-eabi/lib/thumb/v7e-m+fp/hard/libc_nano.a(lib_a-makebuf.o)
 .bss           0x0000000000000000        0x0 /usr/lib/gcc/arm-none-eabi/8.3.1/../../../arm-none-eabi/lib/thumb/v7e-m+fp/hard/libc_nano.a(lib_a-makebuf.o)
 .data          0x0000000000000000        0x0 /usr/lib/gcc/arm-none-eabi/8.3.1/../../../arm-none-eabi/lib/thumb/v7e-m+fp/hard/libc_nano.a(lib_a-memmove.o)
 .bss           0x0000000000000000        0x0 /usr/lib/gcc/arm-none-eabi/8.3.1/../../../arm-none-eabi/lib/thumb/v7e-m+fp/hard/libc_nano.a(lib_a-memmove.o)
 .data          0x0000000000000000        0x0 /usr/lib/gcc/arm-none-eabi/8.3.1/../../../arm-none-eabi/lib/thumb/v7e-m+fp/hard/libc_nano.a(lib_a-mlock.o)
 .bss           0x0000000000000000        0x0 /usr/lib/gcc/arm-none-eabi/8.3.1/../../../arm-none-eabi/lib/thumb/v7e-m+fp/hard/libc_nano.a(lib_a-mlock.o)
 .data          0x0000000000000000        0x0 /usr/lib/gcc/arm-none-eabi/8.3.1/../../../arm-none-eabi/lib/thumb/v7e-m+fp/hard/libc_nano.a(lib_a-mprec.o)
 .bss           0x0000000000000000        0x0 /usr/lib/gcc/arm-none-eabi/8.3.1/../../../arm-none-eabi/lib/thumb/v7e-m+fp/hard/libc_nano.a(lib_a-mprec.o)
 .data          0x0000000000000000        0x0 /usr/lib/gcc/arm-none-eabi/8.3.1/../../../arm-none-eabi/lib/thumb/v7e-m+fp/hard/libc_nano.a(lib_a-nano-callocr.o)
 .bss           0x0000000000000000        0x0 /usr/lib/gcc/arm-none-eabi/8.3.1/../../../arm-none-eabi/lib/thumb/v7e-m+fp/hard/libc_nano.a(lib_a-nano-callocr.o)
 .data          0x0000000000000000        0x0 /usr/lib/gcc/arm-none-eabi/8.3.1/../../../arm-none-eabi/lib/thumb/v7e-m+fp/hard/libc_nano.a(lib_a-nano-reallocr.o)
 .bss           0x0000000000000000        0x0 /usr/lib/gcc/arm-none-eabi/8.3.1/../../../arm-none-eabi/lib/thumb/v7e-m+fp/hard/libc_nano.a(lib_a-nano-reallocr.o)
 .text          0x0000000000000000      0x42c /usr/lib/gcc/arm-none-eabi/8.3.1/../../../arm-none-eabi/lib/thumb/v7e-m+fp/hard/libc_nano.a(lib_a-nano-svfprintf.o)
 .data          0x0000000000000000        0x0 /usr/lib/gcc/arm-none-eabi/8.3.1/../../../arm-none-eabi/lib/thumb/v7e-m+fp/hard/libc_nano.a(lib_a-nano-svfprintf.o)
 .bss           0x0000000000000000        0x0 /usr/lib/gcc/arm-none-eabi/8.3.1/../../../arm-none-eabi/lib/thumb/v7e-m+fp/hard/libc_nano.a(lib_a-nano-svfprintf.o)
 .rodata.str1.4
                0x0000000000000000       0x13 /usr/lib/gcc/arm-none-eabi/8.3.1/../../../arm-none-eabi/lib/thumb/v7e-m+fp/hard/libc_nano.a(lib_a-nano-svfprintf.o)
 .debug_info    0x0000000000000000     0x17e4 /usr/lib/gcc/arm-none-eabi/8.3.1/../../../arm-none-eabi/lib/thumb/v7e-m+fp/hard/libc_nano.a(lib_a-nano-svfprintf.o)
 .debug_abbrev  0x0000000000000000      0x33f /usr/lib/gcc/arm-none-eabi/8.3.1/../../../arm-none-eabi/lib/thumb/v7e-m+fp/hard/libc_nano.a(lib_a-nano-svfprintf.o)
 .debug_loc     0x0000000000000000      0x845 /usr/lib/gcc/arm-none-eabi/8.3.1/../../../arm-none-eabi/lib/thumb/v7e-m+fp/hard/libc_nano.a(lib_a-nano-svfprintf.o)
 .debug_aranges
                0x0000000000000000       0x20 /usr/lib/gcc/arm-none-eabi/8.3.1/../../../arm-none-eabi/lib/thumb/v7e-m+fp/hard/libc_nano.a(lib_a-nano-svfprintf.o)
 .debug_ranges  0x0000000000000000       0x38 /usr/lib/gcc/arm-none-eabi/8.3.1/../../../arm-none-eabi/lib/thumb/v7e-m+fp/hard/libc_nano.a(lib_a-nano-svfprintf.o)
 .debug_line    0x0000000000000000      0x884 /usr/lib/gcc/arm-none-eabi/8.3.1/../../../arm-none-eabi/lib/thumb/v7e-m+fp/hard/libc_nano.a(lib_a-nano-svfprintf.o)
 .debug_str     0x0000000000000000      0xc15 /usr/lib/gcc/arm-none-eabi/8.3.1/../../../arm-none-eabi/lib/thumb/v7e-m+fp/hard/libc_nano.a(lib_a-nano-svfprintf.o)
 .comment       0x0000000000000000       0x4f /usr/lib/gcc/arm-none-eabi/8.3.1/../../../arm-none-eabi/lib/thumb/v7e-m+fp/hard/libc_nano.a(lib_a-nano-svfprintf.o)
 .debug_frame   0x0000000000000000       0x98 /usr/lib/gcc/arm-none-eabi/8.3.1/../../../arm-none-eabi/lib/thumb/v7e-m+fp/hard/libc_nano.a(lib_a-nano-svfprintf.o)
 .ARM.attributes
                0x0000000000000000       0x34 /usr/lib/gcc/arm-none-eabi/8.3.1/../../../arm-none-eabi/lib/thumb/v7e-m+fp/hard/libc_nano.a(lib_a-nano-svfprintf.o)
 .data          0x0000000000000000        0x0 /usr/lib/gcc/arm-none-eabi/8.3.1/../../../arm-none-eabi/lib/thumb/v7e-m+fp/hard/libc_nano.a(lib_a-putc.o)
 .bss           0x0000000000000000        0x0 /usr/lib/gcc/arm-none-eabi/8.3.1/../../../arm-none-eabi/lib/thumb/v7e-m+fp/hard/libc_nano.a(lib_a-putc.o)
 .text          0x0000000000000000       0xe8 /usr/lib/gcc/arm-none-eabi/8.3.1/../../../arm-none-eabi/lib/thumb/v7e-m+fp/hard/libc_nano.a(lib_a-reent.o)
 .data          0x0000000000000000        0x0 /usr/lib/gcc/arm-none-eabi/8.3.1/../../../arm-none-eabi/lib/thumb/v7e-m+fp/hard/libc_nano.a(lib_a-reent.o)
 .bss           0x0000000000000000        0x0 /usr/lib/gcc/arm-none-eabi/8.3.1/../../../arm-none-eabi/lib/thumb/v7e-m+fp/hard/libc_nano.a(lib_a-reent.o)
 .data          0x0000000000000000        0x0 /usr/lib/gcc/arm-none-eabi/8.3.1/../../../arm-none-eabi/lib/thumb/v7e-m+fp/hard/libc_nano.a(lib_a-rget.o)
 .bss           0x0000000000000000        0x0 /usr/lib/gcc/arm-none-eabi/8.3.1/../../../arm-none-eabi/lib/thumb/v7e-m+fp/hard/libc_nano.a(lib_a-rget.o)
 .data          0x0000000000000000        0x0 /usr/lib/gcc/arm-none-eabi/8.3.1/../../../arm-none-eabi/lib/thumb/v7e-m+fp/hard/libc_nano.a(lib_a-stdio.o)
 .bss           0x0000000000000000        0x0 /usr/lib/gcc/arm-none-eabi/8.3.1/../../../arm-none-eabi/lib/thumb/v7e-m+fp/hard/libc_nano.a(lib_a-stdio.o)
 .data          0x0000000000000000        0x0 /usr/lib/gcc/arm-none-eabi/8.3.1/../../../arm-none-eabi/lib/thumb/v7e-m+fp/hard/libc_nano.a(lib_a-writer.o)
 .bss           0x0000000000000000        0x0 /usr/lib/gcc/arm-none-eabi/8.3.1/../../../arm-none-eabi/lib/thumb/v7e-m+fp/hard/libc_nano.a(lib_a-writer.o)
 .data          0x0000000000000000        0x0 /usr/lib/gcc/arm-none-eabi/8.3.1/../../../arm-none-eabi/lib/thumb/v7e-m+fp/hard/libc_nano.a(lib_a-assert.o)
 .bss           0x0000000000000000        0x0 /usr/lib/gcc/arm-none-eabi/8.3.1/../../../arm-none-eabi/lib/thumb/v7e-m+fp/hard/libc_nano.a(lib_a-assert.o)
 .data          0x0000000000000000        0x0 /usr/lib/gcc/arm-none-eabi/8.3.1/../../../arm-none-eabi/lib/thumb/v7e-m+fp/hard/libc_nano.a(lib_a-closer.o)
 .bss           0x0000000000000000        0x0 /usr/lib/gcc/arm-none-eabi/8.3.1/../../../arm-none-eabi/lib/thumb/v7e-m+fp/hard/libc_nano.a(lib_a-closer.o)
 .data          0x0000000000000000        0x0 /usr/lib/gcc/arm-none-eabi/8.3.1/../../../arm-none-eabi/lib/thumb/v7e-m+fp/hard/libc_nano.a(lib_a-fstatr.o)
 .bss           0x0000000000000000        0x0 /usr/lib/gcc/arm-none-eabi/8.3.1/../../../arm-none-eabi/lib/thumb/v7e-m+fp/hard/libc_nano.a(lib_a-fstatr.o)
 .data          0x0000000000000000        0x0 /usr/lib/gcc/arm-none-eabi/8.3.1/../../../arm-none-eabi/lib/thumb/v7e-m+fp/hard/libc_nano.a(lib_a-isattyr.o)
 .bss           0x0000000000000000        0x0 /usr/lib/gcc/arm-none-eabi/8.3.1/../../../arm-none-eabi/lib/thumb/v7e-m+fp/hard/libc_nano.a(lib_a-isattyr.o)
 .text          0x0000000000000000       0x5c /usr/lib/gcc/arm-none-eabi/8.3.1/../../../arm-none-eabi/lib/thumb/v7e-m+fp/hard/libc_nano.a(lib_a-locale.o)
 .bss           0x0000000000000000        0x4 /usr/lib/gcc/arm-none-eabi/8.3.1/../../../arm-none-eabi/lib/thumb/v7e-m+fp/hard/libc_nano.a(lib_a-locale.o)
 .data          0x0000000000000000        0x0 /usr/lib/gcc/arm-none-eabi/8.3.1/../../../arm-none-eabi/lib/thumb/v7e-m+fp/hard/libc_nano.a(lib_a-lseekr.o)
 .bss           0x0000000000000000        0x0 /usr/lib/gcc/arm-none-eabi/8.3.1/../../../arm-none-eabi/lib/thumb/v7e-m+fp/hard/libc_nano.a(lib_a-lseekr.o)
 .data          0x0000000000000000        0x0 /usr/lib/gcc/arm-none-eabi/8.3.1/../../../arm-none-eabi/lib/thumb/v7e-m+fp/hard/libc_nano.a(lib_a-mbtowc_r.o)
 .bss           0x0000000000000000        0x0 /usr/lib/gcc/arm-none-eabi/8.3.1/../../../arm-none-eabi/lib/thumb/v7e-m+fp/hard/libc_nano.a(lib_a-mbtowc_r.o)
 .data          0x0000000000000000        0x0 /usr/lib/gcc/arm-none-eabi/8.3.1/../../../arm-none-eabi/lib/thumb/v7e-m+fp/hard/libc_nano.a(lib_a-nano-msizer.o)
 .bss           0x0000000000000000        0x0 /usr/lib/gcc/arm-none-eabi/8.3.1/../../../arm-none-eabi/lib/thumb/v7e-m+fp/hard/libc_nano.a(lib_a-nano-msizer.o)
 .data          0x0000000000000000        0x0 /usr/lib/gcc/arm-none-eabi/8.3.1/../../../arm-none-eabi/lib/thumb/v7e-m+fp/hard/libc_nano.a(lib_a-readr.o)
 .bss           0x0000000000000000        0x0 /usr/lib/gcc/arm-none-eabi/8.3.1/../../../arm-none-eabi/lib/thumb/v7e-m+fp/hard/libc_nano.a(lib_a-readr.o)
 .data          0x0000000000000000        0x0 /usr/lib/gcc/arm-none-eabi/8.3.1/../../../arm-none-eabi/lib/thumb/v7e-m+fp/hard/libc_nano.a(lib_a-refill.o)
 .bss           0x0000000000000000        0x0 /usr/lib/gcc/arm-none-eabi/8.3.1/../../../arm-none-eabi/lib/thumb/v7e-m+fp/hard/libc_nano.a(lib_a-refill.o)
 .text          0x0000000000000000      0x2dc /usr/lib/gcc/arm-none-eabi/8.3.1/../../../arm-none-eabi/lib/thumb/v7e-m+fp/hard/libc_nano.a(lib_a-strcmp.o)
 .data          0x0000000000000000        0x0 /usr/lib/gcc/arm-none-eabi/8.3.1/../../../arm-none-eabi/lib/thumb/v7e-m+fp/hard/libc_nano.a(lib_a-strcmp.o)
 .bss           0x0000000000000000        0x0 /usr/lib/gcc/arm-none-eabi/8.3.1/../../../arm-none-eabi/lib/thumb/v7e-m+fp/hard/libc_nano.a(lib_a-strcmp.o)
 .debug_line    0x0000000000000000      0x137 /usr/lib/gcc/arm-none-eabi/8.3.1/../../../arm-none-eabi/lib/thumb/v7e-m+fp/hard/libc_nano.a(lib_a-strcmp.o)
 .debug_info    0x0000000000000000       0x26 /usr/lib/gcc/arm-none-eabi/8.3.1/../../../arm-none-eabi/lib/thumb/v7e-m+fp/hard/libc_nano.a(lib_a-strcmp.o)
 .debug_abbrev  0x0000000000000000       0x14 /usr/lib/gcc/arm-none-eabi/8.3.1/../../../arm-none-eabi/lib/thumb/v7e-m+fp/hard/libc_nano.a(lib_a-strcmp.o)
 .debug_aranges
                0x0000000000000000       0x20 /usr/lib/gcc/arm-none-eabi/8.3.1/../../../arm-none-eabi/lib/thumb/v7e-m+fp/hard/libc_nano.a(lib_a-strcmp.o)
 .debug_str     0x0000000000000000       0xb8 /usr/lib/gcc/arm-none-eabi/8.3.1/../../../arm-none-eabi/lib/thumb/v7e-m+fp/hard/libc_nano.a(lib_a-strcmp.o)
 .debug_frame   0x0000000000000000       0x68 /usr/lib/gcc/arm-none-eabi/8.3.1/../../../arm-none-eabi/lib/thumb/v7e-m+fp/hard/libc_nano.a(lib_a-strcmp.o)
 .ARM.attributes
                0x0000000000000000       0x1c /usr/lib/gcc/arm-none-eabi/8.3.1/../../../arm-none-eabi/lib/thumb/v7e-m+fp/hard/libc_nano.a(lib_a-strcmp.o)
 .data          0x0000000000000000        0x0 /usr/lib/gcc/arm-none-eabi/8.3.1/../../../arm-none-eabi/lib/thumb/v7e-m+fp/hard/libc_nano.a(lib_a-wctomb_r.o)
 .bss           0x0000000000000000        0x0 /usr/lib/gcc/arm-none-eabi/8.3.1/../../../arm-none-eabi/lib/thumb/v7e-m+fp/hard/libc_nano.a(lib_a-wctomb_r.o)
 .data          0x0000000000000000        0x0 /usr/lib/gcc/arm-none-eabi/8.3.1/../../../arm-none-eabi/lib/thumb/v7e-m+fp/hard/libnosys.a(getpid.o)
 .bss           0x0000000000000000        0x0 /usr/lib/gcc/arm-none-eabi/8.3.1/../../../arm-none-eabi/lib/thumb/v7e-m+fp/hard/libnosys.a(getpid.o)
 .data          0x0000000000000000        0x0 /usr/lib/gcc/arm-none-eabi/8.3.1/../../../arm-none-eabi/lib/thumb/v7e-m+fp/hard/libnosys.a(kill.o)
 .bss           0x0000000000000000        0x0 /usr/lib/gcc/arm-none-eabi/8.3.1/../../../arm-none-eabi/lib/thumb/v7e-m+fp/hard/libnosys.a(kill.o)
 .data          0x0000000000000000        0x0 /usr/lib/gcc/arm-none-eabi/8.3.1/../../../arm-none-eabi/lib/thumb/v7e-m+fp/hard/libnosys.a(sbrk.o)
 .data          0x0000000000000000        0x0 /usr/lib/gcc/arm-none-eabi/8.3.1/../../../arm-none-eabi/lib/thumb/v7e-m+fp/hard/libnosys.a(_exit.o)
 .bss           0x0000000000000000        0x0 /usr/lib/gcc/arm-none-eabi/8.3.1/../../../arm-none-eabi/lib/thumb/v7e-m+fp/hard/libnosys.a(_exit.o)
 .data          0x0000000000000000        0x0 /usr/lib/gcc/arm-none-eabi/8.3.1/thumb/v7e-m+fp/hard/libgcc.a(_arm_addsubdf3.o)
 .bss           0x0000000000000000        0x0 /usr/lib/gcc/arm-none-eabi/8.3.1/thumb/v7e-m+fp/hard/libgcc.a(_arm_addsubdf3.o)
 .data          0x0000000000000000        0x0 /usr/lib/gcc/arm-none-eabi/8.3.1/thumb/v7e-m+fp/hard/libgcc.a(_arm_muldivdf3.o)
 .bss           0x0000000000000000        0x0 /usr/lib/gcc/arm-none-eabi/8.3.1/thumb/v7e-m+fp/hard/libgcc.a(_arm_muldivdf3.o)
 .data          0x0000000000000000        0x0 /usr/lib/gcc/arm-none-eabi/8.3.1/thumb/v7e-m+fp/hard/libgcc.a(_arm_cmpdf2.o)
 .bss           0x0000000000000000        0x0 /usr/lib/gcc/arm-none-eabi/8.3.1/thumb/v7e-m+fp/hard/libgcc.a(_arm_cmpdf2.o)
 .data          0x0000000000000000        0x0 /usr/lib/gcc/arm-none-eabi/8.3.1/thumb/v7e-m+fp/hard/libgcc.a(_arm_unorddf2.o)
 .bss           0x0000000000000000        0x0 /usr/lib/gcc/arm-none-eabi/8.3.1/thumb/v7e-m+fp/hard/libgcc.a(_arm_unorddf2.o)
 .data          0x0000000000000000        0x0 /usr/lib/gcc/arm-none-eabi/8.3.1/thumb/v7e-m+fp/hard/libgcc.a(_arm_fixdfsi.o)
 .bss           0x0000000000000000        0x0 /usr/lib/gcc/arm-none-eabi/8.3.1/thumb/v7e-m+fp/hard/libgcc.a(_arm_fixdfsi.o)
 .data          0x0000000000000000        0x0 /usr/lib/gcc/arm-none-eabi/8.3.1/thumb/v7e-m+fp/hard/libgcc.a(_aeabi_uldivmod.o)
 .bss           0x0000000000000000        0x0 /usr/lib/gcc/arm-none-eabi/8.3.1/thumb/v7e-m+fp/hard/libgcc.a(_aeabi_uldivmod.o)
 .data          0x0000000000000000        0x0 /usr/lib/gcc/arm-none-eabi/8.3.1/thumb/v7e-m+fp/hard/libgcc.a(_udivmoddi4.o)
 .bss           0x0000000000000000        0x0 /usr/lib/gcc/arm-none-eabi/8.3.1/thumb/v7e-m+fp/hard/libgcc.a(_udivmoddi4.o)
 .ARM.extab     0x0000000000000000        0x0 /usr/lib/gcc/arm-none-eabi/8.3.1/thumb/v7e-m+fp/hard/libgcc.a(_udivmoddi4.o)
 .data          0x0000000000000000        0x0 /usr/lib/gcc/arm-none-eabi/8.3.1/thumb/v7e-m+fp/hard/libgcc.a(_dvmd_tls.o)
 .bss           0x0000000000000000        0x0 /usr/lib/gcc/arm-none-eabi/8.3.1/thumb/v7e-m+fp/hard/libgcc.a(_dvmd_tls.o)
 .text          0x0000000000000000        0x0 /usr/lib/gcc/arm-none-eabi/8.3.1/thumb/v7e-m+fp/hard/crtend.o
 .data          0x0000000000000000        0x0 /usr/lib/gcc/arm-none-eabi/8.3.1/thumb/v7e-m+fp/hard/crtend.o
 .bss           0x0000000000000000        0x0 /usr/lib/gcc/arm-none-eabi/8.3.1/thumb/v7e-m+fp/hard/crtend.o
 .eh_frame      0x0000000000000000        0x4 /usr/lib/gcc/arm-none-eabi/8.3.1/thumb/v7e-m+fp/hard/crtend.o
 .text          0x0000000000000000        0x0 /usr/lib/gcc/arm-none-eabi/8.3.1/thumb/v7e-m+fp/hard/crtn.o
 .data          0x0000000000000000        0x0 /usr/lib/gcc/arm-none-eabi/8.3.1/thumb/v7e-m+fp/hard/crtn.o
 .bss           0x0000000000000000        0x0 /usr/lib/gcc/arm-none-eabi/8.3.1/thumb/v7e-m+fp/hard/crtn.o

Memory Configuration

Name             Origin             Length             Attributes
FLASH            0x0000000008000000 0x0000000000080000 xr
RAM1             0x0000000020000008 0x000000000002fff8 xrw
RAM_SHARED       0x0000000020030000 0x0000000000002800 xrw
*default*        0x0000000000000000 0xffffffffffffffff

Linker script and memory map

LOAD /usr/lib/gcc/arm-none-eabi/8.3.1/thumb/v7e-m+fp/hard/crti.o
LOAD /usr/lib/gcc/arm-none-eabi/8.3.1/thumb/v7e-m+fp/hard/crtbegin.o
LOAD /usr/lib/gcc/arm-none-eabi/8.3.1/../../../arm-none-eabi/lib/thumb/v7e-m+fp/hard/crt0.o
LOAD build/run.o
LOAD build/retarget.o
LOAD build/main.o
LOAD build/encrypt.o
LOAD build/sha256.o
LOAD build/aes.o
LOAD build/app_freertos.o
LOAD build/stm32wbxx_it.o
LOAD build/stm32wbxx_hal_msp.o
LOAD build/stm32wbxx_hal_timebase_tim.o
LOAD build/stm32wbxx_hal_rcc.o
LOAD build/stm32wbxx_hal_rcc_ex.o
LOAD build/stm32wbxx_hal_flash.o
LOAD build/stm32wbxx_hal_flash_ex.o
LOAD build/stm32wbxx_hal_gpio.o
LOAD build/stm32wbxx_hal_hsem.o
LOAD build/stm32wbxx_hal_dma.o
LOAD build/stm32wbxx_hal_dma_ex.o
LOAD build/stm32wbxx_hal_pwr.o
LOAD build/stm32wbxx_hal_pwr_ex.o
LOAD build/stm32wbxx_hal_cortex.o
LOAD build/stm32wbxx_hal.o
LOAD build/stm32wbxx_hal_exti.o
LOAD build/stm32wbxx_hal_uart.o
LOAD build/stm32wbxx_hal_uart_ex.o
LOAD build/stm32wbxx_hal_tim.o
LOAD build/stm32wbxx_hal_tim_ex.o
LOAD build/system_stm32wbxx.o
LOAD build/croutine.o
LOAD build/event_groups.o
LOAD build/list.o
LOAD build/queue.o
LOAD build/stream_buffer.o
LOAD build/tasks.o
LOAD build/timers.o
LOAD build/cmsis_os2.o
LOAD build/heap_4.o
LOAD build/port.o
LOAD build/startup_stm32wb55xx_cm4.o
LOAD secp256k1/src/libsecp256k1_la-secp256k1.o
LOAD /usr/lib/gcc/arm-none-eabi/8.3.1/../../../arm-none-eabi/lib/thumb/v7e-m+fp/hard/libc_nano.a
LOAD /usr/lib/gcc/arm-none-eabi/8.3.1/../../../arm-none-eabi/lib/thumb/v7e-m+fp/hard/libm.a
LOAD /usr/lib/gcc/arm-none-eabi/8.3.1/../../../arm-none-eabi/lib/thumb/v7e-m+fp/hard/libnosys.a
LOAD /usr/lib/gcc/arm-none-eabi/8.3.1/../../../arm-none-eabi/lib/thumb/v7e-m+fp/hard/librdimon_nano.a
START GROUP
LOAD /usr/lib/gcc/arm-none-eabi/8.3.1/thumb/v7e-m+fp/hard/libgcc.a
LOAD /usr/lib/gcc/arm-none-eabi/8.3.1/../../../arm-none-eabi/lib/thumb/v7e-m+fp/hard/libc_nano.a
END GROUP
START GROUP
LOAD /usr/lib/gcc/arm-none-eabi/8.3.1/thumb/v7e-m+fp/hard/libgcc.a
LOAD /usr/lib/gcc/arm-none-eabi/8.3.1/../../../arm-none-eabi/lib/thumb/v7e-m+fp/hard/libc_nano.a
LOAD /usr/lib/gcc/arm-none-eabi/8.3.1/../../../arm-none-eabi/lib/thumb/v7e-m+fp/hard/libnosys.a
END GROUP
START GROUP
LOAD /usr/lib/gcc/arm-none-eabi/8.3.1/thumb/v7e-m+fp/hard/libgcc.a
LOAD /usr/lib/gcc/arm-none-eabi/8.3.1/../../../arm-none-eabi/lib/thumb/v7e-m+fp/hard/libc_nano.a
LOAD /usr/lib/gcc/arm-none-eabi/8.3.1/../../../arm-none-eabi/lib/thumb/v7e-m+fp/hard/libnosys.a
END GROUP
LOAD /usr/lib/gcc/arm-none-eabi/8.3.1/thumb/v7e-m+fp/hard/crtend.o
LOAD /usr/lib/gcc/arm-none-eabi/8.3.1/thumb/v7e-m+fp/hard/crtn.o
                0x0000000020030000                _estack = 0x20030000
                0x0000000000000200                _Min_Heap_Size = 0x200
                0x0000000000000400                _Min_Stack_Size = 0x400

.isr_vector     0x0000000008000000      0x13c
                0x0000000008000000                . = ALIGN (0x4)
 *(.isr_vector)
 .isr_vector    0x0000000008000000      0x13c build/startup_stm32wb55xx_cm4.o
                0x0000000008000000                g_pfnVectors
                0x000000000800013c                . = ALIGN (0x4)

.text           0x0000000008000140    0x13df8
                0x0000000008000140                . = ALIGN (0x4)
 *(.text)
 .text          0x0000000008000140       0x88 /usr/lib/gcc/arm-none-eabi/8.3.1/thumb/v7e-m+fp/hard/crtbegin.o
 .text          0x00000000080001c8       0x10 /usr/lib/gcc/arm-none-eabi/8.3.1/../../../arm-none-eabi/lib/thumb/v7e-m+fp/hard/libc_nano.a(lib_a-abort.o)
                0x00000000080001c8                abort
 .text          0x00000000080001d8        0xc /usr/lib/gcc/arm-none-eabi/8.3.1/../../../arm-none-eabi/lib/thumb/v7e-m+fp/hard/libc_nano.a(lib_a-errno.o)
                0x00000000080001d8                __errno
 .text          0x00000000080001e4       0x44 /usr/lib/gcc/arm-none-eabi/8.3.1/../../../arm-none-eabi/lib/thumb/v7e-m+fp/hard/libc_nano.a(lib_a-fprintf.o)
                0x00000000080001e4                _fprintf_r
                0x00000000080001e4                _fiprintf_r
                0x0000000008000200                fprintf
                0x0000000008000200                fiprintf
 .text          0x0000000008000228       0x58 /usr/lib/gcc/arm-none-eabi/8.3.1/../../../arm-none-eabi/lib/thumb/v7e-m+fp/hard/libc_nano.a(lib_a-getchar.o)
                0x0000000008000228                _getchar_r
                0x0000000008000250                getchar
 .text          0x0000000008000280       0x48 /usr/lib/gcc/arm-none-eabi/8.3.1/../../../arm-none-eabi/lib/thumb/v7e-m+fp/hard/libc_nano.a(lib_a-init.o)
                0x0000000008000280                __libc_init_array
 .text          0x00000000080002c8       0x20 /usr/lib/gcc/arm-none-eabi/8.3.1/../../../arm-none-eabi/lib/thumb/v7e-m+fp/hard/libc_nano.a(lib_a-malloc.o)
                0x00000000080002c8                malloc
                0x00000000080002d8                free
 *fill*         0x00000000080002e8        0x8 
 .text          0x00000000080002f0       0xa0 /usr/lib/gcc/arm-none-eabi/8.3.1/../../../arm-none-eabi/lib/thumb/v7e-m+fp/hard/libc_nano.a(lib_a-memchr.o)
                0x00000000080002f0                memchr
 .text          0x0000000008000390       0x60 /usr/lib/gcc/arm-none-eabi/8.3.1/../../../arm-none-eabi/lib/thumb/v7e-m+fp/hard/libc_nano.a(lib_a-memcmp.o)
                0x0000000008000390                memcmp
 .text          0x00000000080003f0      0x134 /usr/lib/gcc/arm-none-eabi/8.3.1/../../../arm-none-eabi/lib/thumb/v7e-m+fp/hard/libc_nano.a(lib_a-memcpy.o)
                0x00000000080003f0                memcpy
 .text          0x0000000008000524       0xa0 /usr/lib/gcc/arm-none-eabi/8.3.1/../../../arm-none-eabi/lib/thumb/v7e-m+fp/hard/libc_nano.a(lib_a-memset.o)
                0x0000000008000524                memset
 .text          0x00000000080005c4       0xac /usr/lib/gcc/arm-none-eabi/8.3.1/../../../arm-none-eabi/lib/thumb/v7e-m+fp/hard/libc_nano.a(lib_a-nano-freer.o)
                0x00000000080005c4                _free_r
 .text          0x0000000008000670       0xc8 /usr/lib/gcc/arm-none-eabi/8.3.1/../../../arm-none-eabi/lib/thumb/v7e-m+fp/hard/libc_nano.a(lib_a-nano-mallocr.o)
                0x0000000008000670                _malloc_r
 .text          0x0000000008000738      0x364 /usr/lib/gcc/arm-none-eabi/8.3.1/../../../arm-none-eabi/lib/thumb/v7e-m+fp/hard/libc_nano.a(lib_a-nano-vfprintf.o)
                0x0000000008000774                __sfputs_r
                0x00000000080007a4                __sprint_r
                0x00000000080007c0                _vfiprintf_r
                0x00000000080007c0                _vfprintf_r
                0x0000000008000a84                vfiprintf
                0x0000000008000a84                vfprintf
 .text          0x0000000008000a9c      0x6b8 /usr/lib/gcc/arm-none-eabi/8.3.1/../../../arm-none-eabi/lib/thumb/v7e-m+fp/hard/libc_nano.a(lib_a-nano-vfprintf_float.o)
                0x0000000008000a9c                __cvt
                0x0000000008000b98                __exponent
                0x0000000008000c24                _printf_float
 .text          0x0000000008001154      0x3c4 /usr/lib/gcc/arm-none-eabi/8.3.1/../../../arm-none-eabi/lib/thumb/v7e-m+fp/hard/libc_nano.a(lib_a-nano-vfprintf_i.o)
                0x0000000008001154                _printf_common
                0x0000000008001280                _printf_i
 .text          0x0000000008001518       0x68 /usr/lib/gcc/arm-none-eabi/8.3.1/../../../arm-none-eabi/lib/thumb/v7e-m+fp/hard/libc_nano.a(lib_a-printf.o)
                0x0000000008001518                _printf_r
                0x0000000008001518                _iprintf_r
                0x0000000008001548                printf
                0x0000000008001548                iprintf
 .text          0x0000000008001580       0x58 /usr/lib/gcc/arm-none-eabi/8.3.1/../../../arm-none-eabi/lib/thumb/v7e-m+fp/hard/libc_nano.a(lib_a-putchar.o)
                0x0000000008001580                _putchar_r
                0x00000000080015a4                putchar
 .text          0x00000000080015d8       0xe8 /usr/lib/gcc/arm-none-eabi/8.3.1/../../../arm-none-eabi/lib/thumb/v7e-m+fp/hard/libc_nano.a(lib_a-puts.o)
                0x00000000080015d8                _puts_r
                0x00000000080016b0                puts
 .text          0x00000000080016c0       0x24 /usr/lib/gcc/arm-none-eabi/8.3.1/../../../arm-none-eabi/lib/thumb/v7e-m+fp/hard/libc_nano.a(lib_a-sbrkr.o)
                0x00000000080016c0                _sbrk_r
 .text          0x00000000080016e4      0x178 /usr/lib/gcc/arm-none-eabi/8.3.1/../../../arm-none-eabi/lib/thumb/v7e-m+fp/hard/libc_nano.a(lib_a-setvbuf.o)
                0x00000000080016e4                setvbuf
 .text          0x000000000800185c      0x150 /usr/lib/gcc/arm-none-eabi/8.3.1/../../../arm-none-eabi/lib/thumb/v7e-m+fp/hard/libc_nano.a(lib_a-signal.o)
                0x0000000008001884                _init_signal_r
                0x0000000008001890                _signal_r
                0x00000000080018c4                _raise_r
                0x0000000008001918                __sigtramp_r
                0x0000000008001968                raise
                0x0000000008001978                signal
                0x0000000008001988                _init_signal
                0x000000000800199c                __sigtramp
 .text          0x00000000080019ac       0x2c /usr/lib/gcc/arm-none-eabi/8.3.1/../../../arm-none-eabi/lib/thumb/v7e-m+fp/hard/libc_nano.a(lib_a-signalr.o)
                0x00000000080019ac                _kill_r
                0x00000000080019d4                _getpid_r
 *fill*         0x00000000080019d8       0x28 
 .text          0x0000000008001a00       0xdc /usr/lib/gcc/arm-none-eabi/8.3.1/../../../arm-none-eabi/lib/thumb/v7e-m+fp/hard/libc_nano.a(lib_a-strlen.o)
                0x0000000008001a00                strlen
 .text          0x0000000008001adc       0xa4 /usr/lib/gcc/arm-none-eabi/8.3.1/../../../arm-none-eabi/lib/thumb/v7e-m+fp/hard/libc_nano.a(lib_a-strncmp.o)
                0x0000000008001adc                strncmp
 .text          0x0000000008001b80       0x74 /usr/lib/gcc/arm-none-eabi/8.3.1/../../../arm-none-eabi/lib/thumb/v7e-m+fp/hard/libc_nano.a(lib_a-strncpy.o)
                0x0000000008001b80                strncpy
 .text          0x0000000008001bf4      0x174 /usr/lib/gcc/arm-none-eabi/8.3.1/../../../arm-none-eabi/lib/thumb/v7e-m+fp/hard/libc_nano.a(lib_a-strtoul.o)
                0x0000000008001d34                _strtoul_r
                0x0000000008001d38                strtoul_l
                0x0000000008001d50                strtoul
 .text          0x0000000008001d68       0xc0 /usr/lib/gcc/arm-none-eabi/8.3.1/../../../arm-none-eabi/lib/thumb/v7e-m+fp/hard/libc_nano.a(lib_a-wbuf.o)
                0x0000000008001d68                __swbuf_r
                0x0000000008001e18                __swbuf
 .text          0x0000000008001e28      0x100 /usr/lib/gcc/arm-none-eabi/8.3.1/../../../arm-none-eabi/lib/thumb/v7e-m+fp/hard/libc_nano.a(lib_a-wsetup.o)
                0x0000000008001e28                __swsetup_r
 .text          0x0000000008001f28      0xffc /usr/lib/gcc/arm-none-eabi/8.3.1/../../../arm-none-eabi/lib/thumb/v7e-m+fp/hard/libc_nano.a(lib_a-dtoa.o)
                0x000000000800204c                _dtoa_r
 .text          0x0000000008002f24      0x1b0 /usr/lib/gcc/arm-none-eabi/8.3.1/../../../arm-none-eabi/lib/thumb/v7e-m+fp/hard/libc_nano.a(lib_a-fflush.o)
                0x0000000008002f24                __sflush_r
                0x0000000008003050                _fflush_r
                0x00000000080030b0                fflush
 .text          0x00000000080030d4      0x210 /usr/lib/gcc/arm-none-eabi/8.3.1/../../../arm-none-eabi/lib/thumb/v7e-m+fp/hard/libc_nano.a(lib_a-findfp.o)
                0x00000000080030d8                _cleanup_r
                0x00000000080030e8                __sfmoreglue
                0x0000000008003118                __sfp
                0x0000000008003290                _cleanup
                0x00000000080032a4                __sinit
                0x00000000080032ac                __sfp_lock_acquire
                0x00000000080032b0                __sfp_lock_release
                0x00000000080032b4                __sinit_lock_acquire
                0x00000000080032b8                __sinit_lock_release
                0x00000000080032bc                __fp_lock_all
                0x00000000080032d0                __fp_unlock_all
 .text          0x00000000080032e4      0x308 /usr/lib/gcc/arm-none-eabi/8.3.1/../../../arm-none-eabi/lib/thumb/v7e-m+fp/hard/libc_nano.a(lib_a-fvwrite.o)
                0x00000000080032e4                __sfvwrite_r
 .text          0x00000000080035ec       0xa0 /usr/lib/gcc/arm-none-eabi/8.3.1/../../../arm-none-eabi/lib/thumb/v7e-m+fp/hard/libc_nano.a(lib_a-fwalk.o)
                0x00000000080035ec                _fwalk
                0x0000000008003638                _fwalk_reent
 .text          0x000000000800368c       0xdc /usr/lib/gcc/arm-none-eabi/8.3.1/../../../arm-none-eabi/lib/thumb/v7e-m+fp/hard/libc_nano.a(lib_a-getc.o)
                0x000000000800368c                _getc_r
                0x00000000080036f8                getc
 .text          0x0000000008003768       0x14 /usr/lib/gcc/arm-none-eabi/8.3.1/../../../arm-none-eabi/lib/thumb/v7e-m+fp/hard/libc_nano.a(lib_a-localeconv.o)
                0x0000000008003768                __localeconv_l
                0x000000000800376c                _localeconv_r
                0x0000000008003774                localeconv
 .text          0x000000000800377c       0xf0 /usr/lib/gcc/arm-none-eabi/8.3.1/../../../arm-none-eabi/lib/thumb/v7e-m+fp/hard/libc_nano.a(lib_a-makebuf.o)
                0x000000000800377c                __swhatbuf_r
                0x00000000080037d8                __smakebuf_r
 .text          0x000000000800386c       0xd0 /usr/lib/gcc/arm-none-eabi/8.3.1/../../../arm-none-eabi/lib/thumb/v7e-m+fp/hard/libc_nano.a(lib_a-memmove.o)
                0x000000000800386c                memmove
 .text          0x000000000800393c        0x8 /usr/lib/gcc/arm-none-eabi/8.3.1/../../../arm-none-eabi/lib/thumb/v7e-m+fp/hard/libc_nano.a(lib_a-mlock.o)
                0x000000000800393c                __malloc_lock
                0x0000000008003940                __malloc_unlock
 .text          0x0000000008003944      0xa38 /usr/lib/gcc/arm-none-eabi/8.3.1/../../../arm-none-eabi/lib/thumb/v7e-m+fp/hard/libc_nano.a(lib_a-mprec.o)
                0x0000000008003944                _Balloc
                0x00000000080039c4                _Bfree
                0x0000000008003a10                __multadd
                0x0000000008003ab0                __s2b
                0x0000000008003b5c                __hi0bits
                0x0000000008003b9c                __lo0bits
                0x0000000008003bfc                __i2b
                0x0000000008003c28                __multiply
                0x0000000008003d74                __pow5mult
                0x0000000008003e38                __lshift
                0x0000000008003f00                __mcmp
                0x0000000008003f38                __mdiff
                0x0000000008004060                __ulp
                0x00000000080040b0                __b2d
                0x0000000008004168                __d2b
                0x000000000800423c                __ratio
                0x000000000800429c                _mprec_log10
                0x00000000080042dc                __copybits
                0x0000000008004324                __any_on
 .text          0x000000000800437c       0x1c /usr/lib/gcc/arm-none-eabi/8.3.1/../../../arm-none-eabi/lib/thumb/v7e-m+fp/hard/libc_nano.a(lib_a-nano-callocr.o)
                0x000000000800437c                _calloc_r
 .text          0x0000000008004398       0x4c /usr/lib/gcc/arm-none-eabi/8.3.1/../../../arm-none-eabi/lib/thumb/v7e-m+fp/hard/libc_nano.a(lib_a-nano-reallocr.o)
                0x0000000008004398                _realloc_r
 .text          0x00000000080043e4      0x10c /usr/lib/gcc/arm-none-eabi/8.3.1/../../../arm-none-eabi/lib/thumb/v7e-m+fp/hard/libc_nano.a(lib_a-putc.o)
                0x00000000080043e4                _putc_r
                0x0000000008004464                putc
 .text          0x00000000080044f0       0x70 /usr/lib/gcc/arm-none-eabi/8.3.1/../../../arm-none-eabi/lib/thumb/v7e-m+fp/hard/libc_nano.a(lib_a-rget.o)
                0x00000000080044f0                __srget_r
                0x0000000008004550                __srget
 .text          0x0000000008004560       0x90 /usr/lib/gcc/arm-none-eabi/8.3.1/../../../arm-none-eabi/lib/thumb/v7e-m+fp/hard/libc_nano.a(lib_a-stdio.o)
                0x0000000008004560                __sread
                0x0000000008004584                __seofread
                0x0000000008004588                __swrite
                0x00000000080045c8                __sseek
                0x00000000080045e8                __sclose
 .text          0x00000000080045f0       0x2c /usr/lib/gcc/arm-none-eabi/8.3.1/../../../arm-none-eabi/lib/thumb/v7e-m+fp/hard/libc_nano.a(lib_a-writer.o)
                0x00000000080045f0                _write_r
 .text          0x000000000800461c       0x48 /usr/lib/gcc/arm-none-eabi/8.3.1/../../../arm-none-eabi/lib/thumb/v7e-m+fp/hard/libc_nano.a(lib_a-assert.o)
                0x000000000800461c                __assert_func
                0x0000000008004658                __assert
 .text          0x0000000008004664       0x24 /usr/lib/gcc/arm-none-eabi/8.3.1/../../../arm-none-eabi/lib/thumb/v7e-m+fp/hard/libc_nano.a(lib_a-closer.o)
                0x0000000008004664                _close_r
 .text          0x0000000008004688       0x28 /usr/lib/gcc/arm-none-eabi/8.3.1/../../../arm-none-eabi/lib/thumb/v7e-m+fp/hard/libc_nano.a(lib_a-fstatr.o)
                0x0000000008004688                _fstat_r
 .text          0x00000000080046b0       0x24 /usr/lib/gcc/arm-none-eabi/8.3.1/../../../arm-none-eabi/lib/thumb/v7e-m+fp/hard/libc_nano.a(lib_a-isattyr.o)
                0x00000000080046b0                _isatty_r
 .text          0x00000000080046d4       0x2c /usr/lib/gcc/arm-none-eabi/8.3.1/../../../arm-none-eabi/lib/thumb/v7e-m+fp/hard/libc_nano.a(lib_a-lseekr.o)
                0x00000000080046d4                _lseek_r
 .text          0x0000000008004700       0x40 /usr/lib/gcc/arm-none-eabi/8.3.1/../../../arm-none-eabi/lib/thumb/v7e-m+fp/hard/libc_nano.a(lib_a-mbtowc_r.o)
                0x0000000008004700                _mbtowc_r
                0x0000000008004714                __ascii_mbtowc
 .text          0x0000000008004740       0x10 /usr/lib/gcc/arm-none-eabi/8.3.1/../../../arm-none-eabi/lib/thumb/v7e-m+fp/hard/libc_nano.a(lib_a-nano-msizer.o)
                0x0000000008004740                _malloc_usable_size_r
 .text          0x0000000008004750       0x2c /usr/lib/gcc/arm-none-eabi/8.3.1/../../../arm-none-eabi/lib/thumb/v7e-m+fp/hard/libc_nano.a(lib_a-readr.o)
                0x0000000008004750                _read_r
 .text          0x000000000800477c      0x144 /usr/lib/gcc/arm-none-eabi/8.3.1/../../../arm-none-eabi/lib/thumb/v7e-m+fp/hard/libc_nano.a(lib_a-refill.o)
                0x0000000008004790                __srefill_r
 .text          0x00000000080048c0       0x30 /usr/lib/gcc/arm-none-eabi/8.3.1/../../../arm-none-eabi/lib/thumb/v7e-m+fp/hard/libc_nano.a(lib_a-wctomb_r.o)
                0x00000000080048c0                _wctomb_r
                0x00000000080048d4                __ascii_wctomb
 .text          0x00000000080048f0       0x10 /usr/lib/gcc/arm-none-eabi/8.3.1/../../../arm-none-eabi/lib/thumb/v7e-m+fp/hard/libnosys.a(getpid.o)
                0x00000000080048f0                _getpid
 .text          0x0000000008004900       0x10 /usr/lib/gcc/arm-none-eabi/8.3.1/../../../arm-none-eabi/lib/thumb/v7e-m+fp/hard/libnosys.a(kill.o)
                0x0000000008004900                _kill
 .text          0x0000000008004910       0x1c /usr/lib/gcc/arm-none-eabi/8.3.1/../../../arm-none-eabi/lib/thumb/v7e-m+fp/hard/libnosys.a(sbrk.o)
                0x0000000008004910                _sbrk
 .text          0x000000000800492c        0x4 /usr/lib/gcc/arm-none-eabi/8.3.1/../../../arm-none-eabi/lib/thumb/v7e-m+fp/hard/libnosys.a(_exit.o)
                0x000000000800492c                _exit
 .text          0x0000000008004930      0x378 /usr/lib/gcc/arm-none-eabi/8.3.1/thumb/v7e-m+fp/hard/libgcc.a(_arm_addsubdf3.o)
                0x0000000008004930                __aeabi_drsub
                0x0000000008004938                __aeabi_dsub
                0x0000000008004938                __subdf3
                0x000000000800493c                __adddf3
                0x000000000800493c                __aeabi_dadd
                0x0000000008004bb4                __aeabi_ui2d
                0x0000000008004bb4                __floatunsidf
                0x0000000008004bd4                __floatsidf
                0x0000000008004bd4                __aeabi_i2d
                0x0000000008004bf8                __extendsfdf2
                0x0000000008004bf8                __aeabi_f2d
                0x0000000008004c3c                __aeabi_ul2d
                0x0000000008004c3c                __floatundidf
                0x0000000008004c4c                __floatdidf
                0x0000000008004c4c                __aeabi_l2d
 .text          0x0000000008004ca8      0x424 /usr/lib/gcc/arm-none-eabi/8.3.1/thumb/v7e-m+fp/hard/libgcc.a(_arm_muldivdf3.o)
                0x0000000008004ca8                __aeabi_dmul
                0x0000000008004ca8                __muldf3
                0x0000000008004efc                __aeabi_ddiv
                0x0000000008004efc                __divdf3
 .text          0x00000000080050cc      0x110 /usr/lib/gcc/arm-none-eabi/8.3.1/thumb/v7e-m+fp/hard/libgcc.a(_arm_cmpdf2.o)
                0x00000000080050cc                __gtdf2
                0x00000000080050cc                __gedf2
                0x00000000080050d4                __ltdf2
                0x00000000080050d4                __ledf2
                0x00000000080050dc                __cmpdf2
                0x00000000080050dc                __eqdf2
                0x00000000080050dc                __nedf2
                0x0000000008005158                __aeabi_cdrcmple
                0x0000000008005168                __aeabi_cdcmple
                0x0000000008005168                __aeabi_cdcmpeq
                0x0000000008005178                __aeabi_dcmpeq
                0x000000000800518c                __aeabi_dcmplt
                0x00000000080051a0                __aeabi_dcmple
                0x00000000080051b4                __aeabi_dcmpge
                0x00000000080051c8                __aeabi_dcmpgt
 .text          0x00000000080051dc       0x2c /usr/lib/gcc/arm-none-eabi/8.3.1/thumb/v7e-m+fp/hard/libgcc.a(_arm_unorddf2.o)
                0x00000000080051dc                __aeabi_dcmpun
                0x00000000080051dc                __unorddf2
 .text          0x0000000008005208       0x50 /usr/lib/gcc/arm-none-eabi/8.3.1/thumb/v7e-m+fp/hard/libgcc.a(_arm_fixdfsi.o)
                0x0000000008005208                __fixdfsi
                0x0000000008005208                __aeabi_d2iz
 .text          0x0000000008005258       0x30 /usr/lib/gcc/arm-none-eabi/8.3.1/thumb/v7e-m+fp/hard/libgcc.a(_aeabi_uldivmod.o)
                0x0000000008005258                __aeabi_uldivmod
 .text          0x0000000008005288      0x2d0 /usr/lib/gcc/arm-none-eabi/8.3.1/thumb/v7e-m+fp/hard/libgcc.a(_udivmoddi4.o)
                0x0000000008005288                __udivmoddi4
 .text          0x0000000008005558        0x4 /usr/lib/gcc/arm-none-eabi/8.3.1/thumb/v7e-m+fp/hard/libgcc.a(_dvmd_tls.o)
                0x0000000008005558                __aeabi_ldiv0
                0x0000000008005558                __aeabi_idiv0
 *(.text*)
 .text.help     0x000000000800555c       0x10 build/run.o
                0x000000000800555c                help
 .text.get_privkey
                0x000000000800556c       0x34 build/run.o
                0x000000000800556c                get_privkey
 .text.save_privkey
                0x00000000080055a0       0xb8 build/run.o
                0x00000000080055a0                save_privkey
 .text.sign     0x0000000008005658       0x44 build/run.o
                0x0000000008005658                sign
 .text.hex_byte
                0x000000000800569c       0x26 build/run.o
                0x000000000800569c                hex_byte
 *fill*         0x00000000080056c2        0x2 
 .text.signh    0x00000000080056c4       0x64 build/run.o
                0x00000000080056c4                signh
 .text.signrech
                0x0000000008005728       0x90 build/run.o
                0x0000000008005728                signrech
 .text.signrec  0x00000000080057b8       0x4c build/run.o
                0x00000000080057b8                signrec
 .text.signrech_parse
                0x0000000008005804       0xf4 build/run.o
                0x0000000008005804                signrech_parse
 .text.signrec_parse
                0x00000000080058f8       0xf4 build/run.o
                0x00000000080058f8                signrec_parse
 .text.signh_parse
                0x00000000080059ec       0xf4 build/run.o
                0x00000000080059ec                signh_parse
 .text.sign_parse
                0x0000000008005ae0       0xf4 build/run.o
                0x0000000008005ae0                sign_parse
 .text.priv_parse
                0x0000000008005bd4       0xbc build/run.o
                0x0000000008005bd4                priv_parse
 .text.pub_parse
                0x0000000008005c90       0x5c build/run.o
                0x0000000008005c90                pub_parse
 .text.wallet_main
                0x0000000008005cec       0xbc build/run.o
                0x0000000008005cec                wallet_main
 .text.RetargetInit
                0x0000000008005da8       0x20 build/retarget.o
                0x0000000008005da8                RetargetInit
 .text._isatty  0x0000000008005dc8       0x16 build/retarget.o
                0x0000000008005dc8                _isatty
 *fill*         0x0000000008005dde        0x2 
 .text._write   0x0000000008005de0       0x94 build/retarget.o
                0x0000000008005de0                _write
 .text._close   0x0000000008005e74       0x18 build/retarget.o
                0x0000000008005e74                _close
 .text._lseek   0x0000000008005e8c       0x10 build/retarget.o
                0x0000000008005e8c                _lseek
 .text._read    0x0000000008005e9c       0x30 build/retarget.o
                0x0000000008005e9c                _read
 .text._fstat   0x0000000008005ecc       0x1a build/retarget.o
                0x0000000008005ecc                _fstat
 *fill*         0x0000000008005ee6        0x2 
 .text.MX_GPIO_Init
                0x0000000008005ee8       0xe0 build/main.o
 .text.StartDefaultTask
                0x0000000008005fc8       0x90 build/main.o
                0x0000000008005fc8                StartDefaultTask
 .text.HAL_TIM_PeriodElapsedCallback
                0x0000000008006058       0x18 build/main.o
                0x0000000008006058                HAL_TIM_PeriodElapsedCallback
 .text.Error_Handler
                0x0000000008006070        0x4 build/main.o
                0x0000000008006070                Error_Handler
 .text.MX_USART1_UART_Init
                0x0000000008006074       0x64 build/main.o
 .text.SystemClock_Config
                0x00000000080060d8       0xa8 build/main.o
                0x00000000080060d8                SystemClock_Config
 .text.main     0x0000000008006180       0x40 build/main.o
                0x0000000008006180                main
 .text.KeyExpansionCore
                0x00000000080061c0       0x30 build/encrypt.o
 .text.KeyExpansion
                0x00000000080061f0       0x70 build/encrypt.o
 .text.encrypt_raw
                0x0000000008006260       0x5a build/encrypt.o
                0x0000000008006260                encrypt_raw
 .text.decrypt  0x00000000080062ba       0x6c build/encrypt.o
                0x00000000080062ba                decrypt
 *fill*         0x0000000008006326        0x2 
 .text.SHA256Transform
                0x0000000008006328      0x140 build/sha256.o
                0x0000000008006328                SHA256Transform
 .text.SHA256Init
                0x0000000008006468       0x50 build/sha256.o
                0x0000000008006468                SHA256Init
 .text.SHA256Update
                0x00000000080064b8       0x44 build/sha256.o
                0x00000000080064b8                SHA256Update
 .text.SHA256Final
                0x00000000080064fc       0xee build/sha256.o
                0x00000000080064fc                SHA256Final
 .text.SHA256   0x00000000080065ea       0x2a build/sha256.o
                0x00000000080065ea                SHA256
 .text.SubRoundKey
                0x0000000008006614       0x1e build/aes.o
                0x0000000008006614                SubRoundKey
 .text.AddRoundKey
                0x0000000008006632       0x1e build/aes.o
                0x0000000008006632                AddRoundKey
 .text.ShiftRowsR
                0x0000000008006650       0x7a build/aes.o
                0x0000000008006650                ShiftRowsR
 *fill*         0x00000000080066ca        0x2 
 .text.SubBytesI
                0x00000000080066cc       0x18 build/aes.o
                0x00000000080066cc                SubBytesI
 .text.SubBytesF
                0x00000000080066e4       0x18 build/aes.o
                0x00000000080066e4                SubBytesF
 .text.ShiftRowsL
                0x00000000080066fc       0x7a build/aes.o
                0x00000000080066fc                ShiftRowsL
 *fill*         0x0000000008006776        0x2 
 .text.MixColumns
                0x0000000008006778      0x170 build/aes.o
                0x0000000008006778                MixColumns
 .text.InverseMixColumns
                0x00000000080068e8      0x238 build/aes.o
                0x00000000080068e8                InverseMixColumns
 .text.InitialRound
                0x0000000008006b20       0x16 build/aes.o
                0x0000000008006b20                InitialRound
 .text.FinalRound
                0x0000000008006b36       0x1a build/aes.o
                0x0000000008006b36                FinalRound
 .text.DRound   0x0000000008006b50       0x1c build/aes.o
                0x0000000008006b50                DRound
 .text.ERound   0x0000000008006b6c       0x20 build/aes.o
                0x0000000008006b6c                ERound
 .text.AESEncrypt
                0x0000000008006b8c       0x5a build/aes.o
                0x0000000008006b8c                AESEncrypt
 .text.AESDecrypt
                0x0000000008006be6       0x5c build/aes.o
                0x0000000008006be6                AESDecrypt
 .text.NMI_Handler
                0x0000000008006c42        0x2 build/stm32wbxx_it.o
                0x0000000008006c42                NMI_Handler
 .text.HardFault_Handler
                0x0000000008006c44        0x2 build/stm32wbxx_it.o
                0x0000000008006c44                HardFault_Handler
 .text.MemManage_Handler
                0x0000000008006c46        0x2 build/stm32wbxx_it.o
                0x0000000008006c46                MemManage_Handler
 .text.BusFault_Handler
                0x0000000008006c48        0x2 build/stm32wbxx_it.o
                0x0000000008006c48                BusFault_Handler
 .text.UsageFault_Handler
                0x0000000008006c4a        0x2 build/stm32wbxx_it.o
                0x0000000008006c4a                UsageFault_Handler
 .text.DebugMon_Handler
                0x0000000008006c4c        0x2 build/stm32wbxx_it.o
                0x0000000008006c4c                DebugMon_Handler
 *fill*         0x0000000008006c4e        0x2 
 .text.TIM1_UP_TIM16_IRQHandler
                0x0000000008006c50       0x10 build/stm32wbxx_it.o
                0x0000000008006c50                TIM1_UP_TIM16_IRQHandler
 .text.USART1_IRQHandler
                0x0000000008006c60       0x10 build/stm32wbxx_it.o
                0x0000000008006c60                USART1_IRQHandler
 .text.HAL_MspInit
                0x0000000008006c70       0x10 build/stm32wbxx_hal_msp.o
                0x0000000008006c70                HAL_MspInit
 .text.HAL_UART_MspInit
                0x0000000008006c80       0x74 build/stm32wbxx_hal_msp.o
                0x0000000008006c80                HAL_UART_MspInit
 .text.HAL_InitTick
                0x0000000008006cf4       0x78 build/stm32wbxx_hal_timebase_tim.o
                0x0000000008006cf4                HAL_InitTick
 .text.RCC_SetFlashLatency
                0x0000000008006d6c       0xbc build/stm32wbxx_hal_rcc.o
 .text.RCC_SetFlashLatencyFromMSIRange
                0x0000000008006e28       0x4c build/stm32wbxx_hal_rcc.o
 .text.HAL_RCC_GetSysClockFreq
                0x0000000008006e74       0xc0 build/stm32wbxx_hal_rcc.o
                0x0000000008006e74                HAL_RCC_GetSysClockFreq
 .text.HAL_RCC_GetHCLKFreq
                0x0000000008006f34       0x20 build/stm32wbxx_hal_rcc.o
                0x0000000008006f34                HAL_RCC_GetHCLKFreq
 .text.HAL_RCC_OscConfig
                0x0000000008006f54      0x72c build/stm32wbxx_hal_rcc.o
                0x0000000008006f54                HAL_RCC_OscConfig
 .text.HAL_RCC_ClockConfig
                0x0000000008007680      0x264 build/stm32wbxx_hal_rcc.o
                0x0000000008007680                HAL_RCC_ClockConfig
 .text.HAL_RCC_GetPCLK1Freq
                0x00000000080078e4       0x24 build/stm32wbxx_hal_rcc.o
                0x00000000080078e4                HAL_RCC_GetPCLK1Freq
 .text.HAL_RCC_GetPCLK2Freq
                0x0000000008007908       0x24 build/stm32wbxx_hal_rcc.o
                0x0000000008007908                HAL_RCC_GetPCLK2Freq
 .text.HAL_RCC_GetClockConfig
                0x000000000800792c       0x4c build/stm32wbxx_hal_rcc.o
                0x000000000800792c                HAL_RCC_GetClockConfig
 .text.RCCEx_PLLSAI1_ConfigNP
                0x0000000008007978       0x8e build/stm32wbxx_hal_rcc_ex.o
 .text.RCCEx_PLLSAI1_ConfigNQ
                0x0000000008007a06       0x8e build/stm32wbxx_hal_rcc_ex.o
 .text.RCCEx_PLLSAI1_ConfigNR
                0x0000000008007a94       0x8e build/stm32wbxx_hal_rcc_ex.o
 .text.HAL_RCCEx_PeriphCLKConfig
                0x0000000008007b22      0x31e build/stm32wbxx_hal_rcc_ex.o
                0x0000000008007b22                HAL_RCCEx_PeriphCLKConfig
 .text.HAL_GPIO_Init
                0x0000000008007e40      0x188 build/stm32wbxx_hal_gpio.o
                0x0000000008007e40                HAL_GPIO_Init
 .text.HAL_GPIO_WritePin
                0x0000000008007fc8        0xa build/stm32wbxx_hal_gpio.o
                0x0000000008007fc8                HAL_GPIO_WritePin
 .text.HAL_DMA_Abort
                0x0000000008007fd2       0x74 build/stm32wbxx_hal_dma.o
                0x0000000008007fd2                HAL_DMA_Abort
 .text.HAL_DMA_Abort_IT
                0x0000000008008046       0x72 build/stm32wbxx_hal_dma.o
                0x0000000008008046                HAL_DMA_Abort_IT
 .text.HAL_PWR_EnableBkUpAccess
                0x00000000080080b8       0x10 build/stm32wbxx_hal_pwr.o
                0x00000000080080b8                HAL_PWR_EnableBkUpAccess
 .text.HAL_PWREx_GetVoltageRange
                0x00000000080080c8       0x10 build/stm32wbxx_hal_pwr_ex.o
                0x00000000080080c8                HAL_PWREx_GetVoltageRange
 .text.HAL_NVIC_SetPriorityGrouping
                0x00000000080080d8       0x24 build/stm32wbxx_hal_cortex.o
                0x00000000080080d8                HAL_NVIC_SetPriorityGrouping
 .text.HAL_NVIC_SetPriority
                0x00000000080080fc       0x68 build/stm32wbxx_hal_cortex.o
                0x00000000080080fc                HAL_NVIC_SetPriority
 .text.HAL_NVIC_EnableIRQ
                0x0000000008008164       0x1c build/stm32wbxx_hal_cortex.o
                0x0000000008008164                HAL_NVIC_EnableIRQ
 .text.HAL_Init
                0x0000000008008180       0x2c build/stm32wbxx_hal.o
                0x0000000008008180                HAL_Init
 .text.HAL_IncTick
                0x00000000080081ac       0x18 build/stm32wbxx_hal.o
                0x00000000080081ac                HAL_IncTick
 .text.HAL_GetTick
                0x00000000080081c4        0xc build/stm32wbxx_hal.o
                0x00000000080081c4                HAL_GetTick
 .text.HAL_GetTickPrio
                0x00000000080081d0        0xc build/stm32wbxx_hal.o
                0x00000000080081d0                HAL_GetTickPrio
 .text.UART_EndRxTransfer
                0x00000000080081dc       0x56 build/stm32wbxx_hal_uart.o
 .text.HAL_UART_TxCpltCallback
                0x0000000008008232        0x2 build/stm32wbxx_hal_uart.o
                0x0000000008008232                HAL_UART_TxCpltCallback
 .text.UART_EndTransmit_IT
                0x0000000008008234       0x24 build/stm32wbxx_hal_uart.o
 .text.HAL_UART_ErrorCallback
                0x0000000008008258        0x2 build/stm32wbxx_hal_uart.o
                0x0000000008008258                HAL_UART_ErrorCallback
 .text.UART_DMAAbortOnError
                0x000000000800825a       0x14 build/stm32wbxx_hal_uart.o
 .text.HAL_UARTEx_RxEventCallback
                0x000000000800826e        0x2 build/stm32wbxx_hal_uart.o
                0x000000000800826e                HAL_UARTEx_RxEventCallback
 .text.HAL_UART_IRQHandler
                0x0000000008008270      0x330 build/stm32wbxx_hal_uart.o
                0x0000000008008270                HAL_UART_IRQHandler
 .text.UART_SetConfig
                0x00000000080085a0      0x26c build/stm32wbxx_hal_uart.o
                0x00000000080085a0                UART_SetConfig
 .text.UART_AdvFeatureConfig
                0x000000000800880c       0xca build/stm32wbxx_hal_uart.o
                0x000000000800880c                UART_AdvFeatureConfig
 .text.UART_WaitOnFlagUntilTimeout
                0x00000000080088d6       0xd2 build/stm32wbxx_hal_uart.o
                0x00000000080088d6                UART_WaitOnFlagUntilTimeout
 .text.HAL_UART_Transmit
                0x00000000080089a8       0xe0 build/stm32wbxx_hal_uart.o
                0x00000000080089a8                HAL_UART_Transmit
 .text.HAL_UART_Receive
                0x0000000008008a88      0x128 build/stm32wbxx_hal_uart.o
                0x0000000008008a88                HAL_UART_Receive
 .text.UART_CheckIdleState
                0x0000000008008bb0       0x74 build/stm32wbxx_hal_uart.o
                0x0000000008008bb0                UART_CheckIdleState
 .text.HAL_UART_Init
                0x0000000008008c24       0x66 build/stm32wbxx_hal_uart.o
                0x0000000008008c24                HAL_UART_Init
 *fill*         0x0000000008008c8a        0x2 
 .text.UARTEx_SetNbDataToProcess
                0x0000000008008c8c       0x4c build/stm32wbxx_hal_uart_ex.o
 .text.HAL_UARTEx_WakeupCallback
                0x0000000008008cd8        0x2 build/stm32wbxx_hal_uart_ex.o
                0x0000000008008cd8                HAL_UARTEx_WakeupCallback
 .text.HAL_UARTEx_RxFifoFullCallback
                0x0000000008008cda        0x2 build/stm32wbxx_hal_uart_ex.o
                0x0000000008008cda                HAL_UARTEx_RxFifoFullCallback
 .text.HAL_UARTEx_TxFifoEmptyCallback
                0x0000000008008cdc        0x2 build/stm32wbxx_hal_uart_ex.o
                0x0000000008008cdc                HAL_UARTEx_TxFifoEmptyCallback
 .text.HAL_UARTEx_EnableFifoMode
                0x0000000008008cde       0x48 build/stm32wbxx_hal_uart_ex.o
                0x0000000008008cde                HAL_UARTEx_EnableFifoMode
 .text.HAL_UARTEx_SetTxFifoThreshold
                0x0000000008008d26       0x4a build/stm32wbxx_hal_uart_ex.o
                0x0000000008008d26                HAL_UARTEx_SetTxFifoThreshold
 .text.HAL_UARTEx_SetRxFifoThreshold
                0x0000000008008d70       0x4a build/stm32wbxx_hal_uart_ex.o
                0x0000000008008d70                HAL_UARTEx_SetRxFifoThreshold
 .text.HAL_TIM_Base_MspInit
                0x0000000008008dba        0x2 build/stm32wbxx_hal_tim.o
                0x0000000008008dba                HAL_TIM_Base_MspInit
 .text.HAL_TIM_Base_Start_IT
                0x0000000008008dbc       0x64 build/stm32wbxx_hal_tim.o
                0x0000000008008dbc                HAL_TIM_Base_Start_IT
 .text.HAL_TIM_OC_DelayElapsedCallback
                0x0000000008008e20        0x2 build/stm32wbxx_hal_tim.o
                0x0000000008008e20                HAL_TIM_OC_DelayElapsedCallback
 .text.HAL_TIM_IC_CaptureCallback
                0x0000000008008e22        0x2 build/stm32wbxx_hal_tim.o
                0x0000000008008e22                HAL_TIM_IC_CaptureCallback
 .text.HAL_TIM_PWM_PulseFinishedCallback
                0x0000000008008e24        0x2 build/stm32wbxx_hal_tim.o
                0x0000000008008e24                HAL_TIM_PWM_PulseFinishedCallback
 .text.HAL_TIM_TriggerCallback
                0x0000000008008e26        0x2 build/stm32wbxx_hal_tim.o
                0x0000000008008e26                HAL_TIM_TriggerCallback
 .text.HAL_TIM_IRQHandler
                0x0000000008008e28      0x19a build/stm32wbxx_hal_tim.o
                0x0000000008008e28                HAL_TIM_IRQHandler
 *fill*         0x0000000008008fc2        0x2 
 .text.TIM_Base_SetConfig
                0x0000000008008fc4       0x70 build/stm32wbxx_hal_tim.o
                0x0000000008008fc4                TIM_Base_SetConfig
 .text.HAL_TIM_Base_Init
                0x0000000008009034       0x60 build/stm32wbxx_hal_tim.o
                0x0000000008009034                HAL_TIM_Base_Init
 .text.HAL_TIMEx_CommutCallback
                0x0000000008009094        0x2 build/stm32wbxx_hal_tim_ex.o
                0x0000000008009094                HAL_TIMEx_CommutCallback
 .text.HAL_TIMEx_BreakCallback
                0x0000000008009096        0x2 build/stm32wbxx_hal_tim_ex.o
                0x0000000008009096                HAL_TIMEx_BreakCallback
 .text.HAL_TIMEx_Break2Callback
                0x0000000008009098        0x2 build/stm32wbxx_hal_tim_ex.o
                0x0000000008009098                HAL_TIMEx_Break2Callback
 *fill*         0x000000000800909a        0x2 
 .text.SystemInit
                0x000000000800909c       0x64 build/system_stm32wbxx.o
                0x000000000800909c                SystemInit
 .text.vListInitialise
                0x0000000008009100       0x16 build/list.o
                0x0000000008009100                vListInitialise
 .text.vListInitialiseItem
                0x0000000008009116        0x6 build/list.o
                0x0000000008009116                vListInitialiseItem
 .text.vListInsertEnd
                0x000000000800911c       0x16 build/list.o
                0x000000000800911c                vListInsertEnd
 .text.vListInsert
                0x0000000008009132       0x34 build/list.o
                0x0000000008009132                vListInsert
 .text.uxListRemove
                0x0000000008009166       0x26 build/list.o
                0x0000000008009166                uxListRemove
 .text.prvIsQueueFull
                0x000000000800918c       0x1e build/queue.o
 .text.prvIsQueueEmpty
                0x00000000080091aa       0x1a build/queue.o
 .text.prvCopyDataToQueue
                0x00000000080091c4       0x76 build/queue.o
 .text.prvCopyDataFromQueue
                0x000000000800923a       0x24 build/queue.o
 .text.prvUnlockQueue
                0x000000000800925e       0x6e build/queue.o
 .text.xQueueGenericReset
                0x00000000080092cc       0x84 build/queue.o
                0x00000000080092cc                xQueueGenericReset
 .text.prvInitialiseNewQueue
                0x0000000008009350       0x22 build/queue.o
 .text.xQueueGenericCreateStatic
                0x0000000008009372       0x94 build/queue.o
                0x0000000008009372                xQueueGenericCreateStatic
 *fill*         0x0000000008009406        0x2 
 .text.xQueueGenericSend
                0x0000000008009408      0x180 build/queue.o
                0x0000000008009408                xQueueGenericSend
 .text.xQueueGenericSendFromISR
                0x0000000008009588       0xd0 build/queue.o
                0x0000000008009588                xQueueGenericSendFromISR
 .text.xQueueReceive
                0x0000000008009658      0x15c build/queue.o
                0x0000000008009658                xQueueReceive
 .text.vQueueAddToRegistry
                0x00000000080097b4       0x28 build/queue.o
                0x00000000080097b4                vQueueAddToRegistry
 .text.vQueueWaitForMessageRestricted
                0x00000000080097dc       0x52 build/queue.o
                0x00000000080097dc                vQueueWaitForMessageRestricted
 *fill*         0x000000000800982e        0x2 
 .text.prvResetNextTaskUnblockTime
                0x0000000008009830       0x2c build/tasks.o
 .text.prvInitialiseNewTask
                0x000000000800985c       0x98 build/tasks.o
 .text.prvInitialiseTaskLists
                0x00000000080098f4       0x68 build/tasks.o
 .text.prvAddNewTaskToReadyList
                0x000000000800995c       0xac build/tasks.o
 .text.prvDeleteTCB
                0x0000000008009a08       0x38 build/tasks.o
 .text.prvCheckTasksWaitingTermination
                0x0000000008009a40       0x4c build/tasks.o
 .text.prvIdleTask
                0x0000000008009a8c       0x28 build/tasks.o
 .text.prvAddCurrentTaskToDelayedList
                0x0000000008009ab4       0x7c build/tasks.o
 .text.xTaskCreateStatic
                0x0000000008009b30       0x74 build/tasks.o
                0x0000000008009b30                xTaskCreateStatic
 .text.xTaskCreate
                0x0000000008009ba4       0x66 build/tasks.o
                0x0000000008009ba4                xTaskCreate
 *fill*         0x0000000008009c0a        0x2 
 .text.vTaskStartScheduler
                0x0000000008009c0c       0x94 build/tasks.o
                0x0000000008009c0c                vTaskStartScheduler
 .text.vTaskSuspendAll
                0x0000000008009ca0       0x10 build/tasks.o
                0x0000000008009ca0                vTaskSuspendAll
 .text.xTaskGetTickCount
                0x0000000008009cb0        0xc build/tasks.o
                0x0000000008009cb0                xTaskGetTickCount
 .text.xTaskIncrementTick
                0x0000000008009cbc      0x11c build/tasks.o
                0x0000000008009cbc                xTaskIncrementTick
 .text.xTaskResumeAll
                0x0000000008009dd8       0xf8 build/tasks.o
                0x0000000008009dd8                xTaskResumeAll
 .text.vTaskSwitchContext
                0x0000000008009ed0       0x9c build/tasks.o
                0x0000000008009ed0                vTaskSwitchContext
 .text.vTaskPlaceOnEventList
                0x0000000008009f6c       0x30 build/tasks.o
                0x0000000008009f6c                vTaskPlaceOnEventList
 .text.vTaskPlaceOnEventListRestricted
                0x0000000008009f9c       0x38 build/tasks.o
                0x0000000008009f9c                vTaskPlaceOnEventListRestricted
 .text.xTaskRemoveFromEventList
                0x0000000008009fd4       0x8c build/tasks.o
                0x0000000008009fd4                xTaskRemoveFromEventList
 .text.vTaskInternalSetTimeOutState
                0x000000000800a060       0x18 build/tasks.o
                0x000000000800a060                vTaskInternalSetTimeOutState
 .text.xTaskCheckForTimeOut
                0x000000000800a078       0x84 build/tasks.o
                0x000000000800a078                xTaskCheckForTimeOut
 .text.vTaskMissedYield
                0x000000000800a0fc        0xc build/tasks.o
                0x000000000800a0fc                vTaskMissedYield
 .text.xTaskGetSchedulerState
                0x000000000800a108       0x20 build/tasks.o
                0x000000000800a108                xTaskGetSchedulerState
 .text.xTaskPriorityDisinherit
                0x000000000800a128       0x90 build/tasks.o
                0x000000000800a128                xTaskPriorityDisinherit
 .text.prvGetNextExpireTime
                0x000000000800a1b8       0x20 build/timers.o
 .text.prvInsertTimerInActiveList
                0x000000000800a1d8       0x48 build/timers.o
 .text.prvCheckForValidListAndQueue
                0x000000000800a220       0x70 build/timers.o
 .text.xTimerCreateTimerTask
                0x000000000800a290       0x64 build/timers.o
                0x000000000800a290                xTimerCreateTimerTask
 .text.xTimerGenericCommand
                0x000000000800a2f4       0x6c build/timers.o
                0x000000000800a2f4                xTimerGenericCommand
 .text.prvSwitchTimerLists
                0x000000000800a360       0x7c build/timers.o
 .text.prvSampleTimeNow
                0x000000000800a3dc       0x2c build/timers.o
 .text.prvProcessExpiredTimer
                0x000000000800a408       0x6c build/timers.o
 .text.prvProcessTimerOrBlockTask
                0x000000000800a474       0x74 build/timers.o
 .text.prvProcessReceivedCommands
                0x000000000800a4e8      0x110 build/timers.o
 .text.prvTimerTask
                0x000000000800a5f8       0x16 build/timers.o
 *fill*         0x000000000800a60e        0x2 
 .text.SysTick_Handler
                0x000000000800a610       0x1c build/cmsis_os2.o
                0x000000000800a610                SysTick_Handler
 .text.osKernelInitialize
                0x000000000800a62c       0x24 build/cmsis_os2.o
                0x000000000800a62c                osKernelInitialize
 .text.osKernelStart
                0x000000000800a650       0x38 build/cmsis_os2.o
                0x000000000800a650                osKernelStart
 .text.osThreadNew
                0x000000000800a688       0xbc build/cmsis_os2.o
                0x000000000800a688                osThreadNew
 .text.vApplicationGetIdleTaskMemory
                0x000000000800a744       0x18 build/cmsis_os2.o
                0x000000000800a744                vApplicationGetIdleTaskMemory
 .text.vApplicationGetTimerTaskMemory
                0x000000000800a75c       0x18 build/cmsis_os2.o
                0x000000000800a75c                vApplicationGetTimerTaskMemory
 .text.prvHeapInit
                0x000000000800a774       0x64 build/heap_4.o
 .text.prvInsertBlockIntoFreeList
                0x000000000800a7d8       0x58 build/heap_4.o
 .text.pvPortMalloc
                0x000000000800a830      0x114 build/heap_4.o
                0x000000000800a830                pvPortMalloc
 .text.vPortFree
                0x000000000800a944       0x7c build/heap_4.o
                0x000000000800a944                vPortFree
 .text.prvTaskExitError
                0x000000000800a9c0       0x40 build/port.o
 .text.prvPortStartFirstTask
                0x000000000800aa00       0x28 build/port.o
 .text.vPortEnableVFP
                0x000000000800aa28       0x14 build/port.o
 .text.pxPortInitialiseStack
                0x000000000800aa3c       0x2c build/port.o
                0x000000000800aa3c                pxPortInitialiseStack
 *fill*         0x000000000800aa68        0x8 
 .text.SVC_Handler
                0x000000000800aa70       0x24 build/port.o
                0x000000000800aa70                SVC_Handler
 .text.vPortEnterCritical
                0x000000000800aa94       0x44 build/port.o
                0x000000000800aa94                vPortEnterCritical
 .text.vPortExitCritical
                0x000000000800aad8       0x2c build/port.o
                0x000000000800aad8                vPortExitCritical
 *fill*         0x000000000800ab04        0xc 
 .text.PendSV_Handler
                0x000000000800ab10       0x64 build/port.o
                0x000000000800ab10                PendSV_Handler
 .text.xPortSysTickHandler
                0x000000000800ab74       0x2c build/port.o
                0x000000000800ab74                xPortSysTickHandler
 .text.vPortSetupTimerInterrupt
                0x000000000800aba0       0x38 build/port.o
                0x000000000800aba0                vPortSetupTimerInterrupt
 .text.xPortStartScheduler
                0x000000000800abd8      0x110 build/port.o
                0x000000000800abd8                xPortStartScheduler
 .text.vPortValidateInterruptPriority
                0x000000000800ace8       0x5c build/port.o
                0x000000000800ace8                vPortValidateInterruptPriority
 .text.data_initializers
                0x000000000800ad44       0x18 build/startup_stm32wb55xx_cm4.o
 .text.Reset_Handler
                0x000000000800ad5c       0x54 build/startup_stm32wb55xx_cm4.o
                0x000000000800ad5c                Reset_Handler
 .text.Default_Handler
                0x000000000800adb0        0x2 build/startup_stm32wb55xx_cm4.o
                0x000000000800adb0                RTC_Alarm_IRQHandler
                0x000000000800adb0                EXTI2_IRQHandler
                0x000000000800adb0                TIM1_CC_IRQHandler
                0x000000000800adb0                TSC_IRQHandler
                0x000000000800adb0                USB_HP_IRQHandler
                0x000000000800adb0                EXTI3_IRQHandler
                0x000000000800adb0                LPTIM2_IRQHandler
                0x000000000800adb0                I2C3_ER_IRQHandler
                0x000000000800adb0                EXTI0_IRQHandler
                0x000000000800adb0                FPU_IRQHandler
                0x000000000800adb0                AES1_IRQHandler
                0x000000000800adb0                SPI1_IRQHandler
                0x000000000800adb0                PWR_SOTF_BLEACT_802ACT_RFPHASE_IRQHandler
                0x000000000800adb0                DMA2_Channel2_IRQHandler
                0x000000000800adb0                DMA1_Channel4_IRQHandler
                0x000000000800adb0                ADC1_IRQHandler
                0x000000000800adb0                PKA_IRQHandler
                0x000000000800adb0                DMA1_Channel7_IRQHandler
                0x000000000800adb0                LCD_IRQHandler
                0x000000000800adb0                IPCC_C1_TX_IRQHandler
                0x000000000800adb0                DMA2_Channel1_IRQHandler
                0x000000000800adb0                QUADSPI_IRQHandler
                0x000000000800adb0                I2C1_EV_IRQHandler
                0x000000000800adb0                DMAMUX1_OVR_IRQHandler
                0x000000000800adb0                DMA1_Channel6_IRQHandler
                0x000000000800adb0                DMA2_Channel4_IRQHandler
                0x000000000800adb0                RCC_IRQHandler
                0x000000000800adb0                DMA1_Channel1_IRQHandler
                0x000000000800adb0                Default_Handler
                0x000000000800adb0                DMA2_Channel7_IRQHandler
                0x000000000800adb0                EXTI15_10_IRQHandler
                0x000000000800adb0                IPCC_C1_RX_IRQHandler
                0x000000000800adb0                C2SEV_PWR_C2H_IRQHandler
                0x000000000800adb0                AES2_IRQHandler
                0x000000000800adb0                I2C3_EV_IRQHandler
                0x000000000800adb0                EXTI9_5_IRQHandler
                0x000000000800adb0                RTC_WKUP_IRQHandler
                0x000000000800adb0                PVD_PVM_IRQHandler
                0x000000000800adb0                SPI2_IRQHandler
                0x000000000800adb0                DMA2_Channel5_IRQHandler
                0x000000000800adb0                CRS_IRQHandler
                0x000000000800adb0                DMA1_Channel5_IRQHandler
                0x000000000800adb0                USB_LP_IRQHandler
                0x000000000800adb0                EXTI4_IRQHandler
                0x000000000800adb0                RNG_IRQHandler
                0x000000000800adb0                TIM1_TRG_COM_TIM17_IRQHandler
                0x000000000800adb0                TAMP_STAMP_LSECSS_IRQHandler
                0x000000000800adb0                DMA1_Channel3_IRQHandler
                0x000000000800adb0                COMP_IRQHandler
                0x000000000800adb0                HSEM_IRQHandler
                0x000000000800adb0                WWDG_IRQHandler
                0x000000000800adb0                LPUART1_IRQHandler
                0x000000000800adb0                DMA2_Channel6_IRQHandler
                0x000000000800adb0                TIM2_IRQHandler
                0x000000000800adb0                TIM1_BRK_IRQHandler
                0x000000000800adb0                EXTI1_IRQHandler
                0x000000000800adb0                DMA1_Channel2_IRQHandler
                0x000000000800adb0                FLASH_IRQHandler
                0x000000000800adb0                I2C1_ER_IRQHandler
                0x000000000800adb0                LPTIM1_IRQHandler
                0x000000000800adb0                SAI1_IRQHandler
                0x000000000800adb0                DMA2_Channel3_IRQHandler
 *fill*         0x000000000800adb2        0x2 
 .text.secp256k1_fe_normalize
                0x000000000800adb4      0x134 secp256k1/src/libsecp256k1_la-secp256k1.o
 .text.secp256k1_fe_normalize_weak
                0x000000000800aee8       0x8c secp256k1/src/libsecp256k1_la-secp256k1.o
 .text.secp256k1_fe_normalize_var
                0x000000000800af74      0x130 secp256k1/src/libsecp256k1_la-secp256k1.o
 .text.secp256k1_fe_normalizes_to_zero
                0x000000000800b0a4       0xa0 secp256k1/src/libsecp256k1_la-secp256k1.o
 .text.secp256k1_fe_normalizes_to_zero_var
                0x000000000800b144       0xbc secp256k1/src/libsecp256k1_la-secp256k1.o
 .text.secp256k1_fe_set_b32
                0x000000000800b200      0x180 secp256k1/src/libsecp256k1_la-secp256k1.o
 .text.secp256k1_fe_get_b32
                0x000000000800b380       0xf0 secp256k1/src/libsecp256k1_la-secp256k1.o
 .text.secp256k1_fe_add
                0x000000000800b470       0x58 secp256k1/src/libsecp256k1_la-secp256k1.o
 .text.secp256k1_fe_mul_inner
                0x000000000800b4c8      0x9f4 secp256k1/src/libsecp256k1_la-secp256k1.o
 .text.secp256k1_fe_sqr_inner
                0x000000000800bebc      0x840 secp256k1/src/libsecp256k1_la-secp256k1.o
 .text.secp256k1_fe_cmov
                0x000000000800c6fc       0x84 secp256k1/src/libsecp256k1_la-secp256k1.o
 .text.secp256k1_scalar_get_b32
                0x000000000800c780       0x94 secp256k1/src/libsecp256k1_la-secp256k1.o
 *fill*         0x000000000800c814        0x4 
 .text.secp256k1_scalar_negate
                0x000000000800c818      0x14c secp256k1/src/libsecp256k1_la-secp256k1.o
 .text.secp256k1_scalar_is_high
                0x000000000800c964       0xbc secp256k1/src/libsecp256k1_la-secp256k1.o
 .text.secp256k1_scalar_reduce_512
                0x000000000800ca20      0x8e8 secp256k1/src/libsecp256k1_la-secp256k1.o
 .text.secp256k1_scalar_mul_512
                0x000000000800d308      0x8ac secp256k1/src/libsecp256k1_la-secp256k1.o
 .text.secp256k1_scalar_sqr_512
                0x000000000800dbb4      0x90c secp256k1/src/libsecp256k1_la-secp256k1.o
 .text.secp256k1_scalar_inverse
                0x000000000800e4c0      0x5c8 secp256k1/src/libsecp256k1_la-secp256k1.o
 .text.secp256k1_sha256_transform
                0x000000000800ea88     0x1c68 secp256k1/src/libsecp256k1_la-secp256k1.o
 .text.default_error_callback_fn
                0x00000000080106f0       0x1c secp256k1/src/libsecp256k1_la-secp256k1.o
 .text.default_illegal_callback_fn
                0x000000000801070c       0x1c secp256k1/src/libsecp256k1_la-secp256k1.o
 .text.secp256k1_sha256_write
                0x0000000008010728       0x60 secp256k1/src/libsecp256k1_la-secp256k1.o
 .text.secp256k1_sha256_finalize
                0x0000000008010788       0xb8 secp256k1/src/libsecp256k1_la-secp256k1.o
 .text.secp256k1_hmac_sha256_initialize.constprop.21
                0x0000000008010840      0x190 secp256k1/src/libsecp256k1_la-secp256k1.o
 .text.secp256k1_fe_negate.constprop.27
                0x00000000080109d0       0x5c secp256k1/src/libsecp256k1_la-secp256k1.o
 .text.secp256k1_ge_to_storage
                0x0000000008010a2c       0xfc secp256k1/src/libsecp256k1_la-secp256k1.o
 .text.secp256k1_scalar_add
                0x0000000008010b28      0x2a0 secp256k1/src/libsecp256k1_la-secp256k1.o
 .text.secp256k1_scalar_set_b32
                0x0000000008010dc8      0x208 secp256k1/src/libsecp256k1_la-secp256k1.o
 .text.secp256k1_rfc6979_hmac_sha256_initialize
                0x0000000008010fd0      0x158 secp256k1/src/libsecp256k1_la-secp256k1.o
 .text.secp256k1_pubkey_load
                0x0000000008011128      0x174 secp256k1/src/libsecp256k1_la-secp256k1.o
 .text.secp256k1_fe_inv
                0x000000000801129c      0xa90 secp256k1/src/libsecp256k1_la-secp256k1.o
 .text.secp256k1_ge_set_gej
                0x0000000008011d2c       0x84 secp256k1/src/libsecp256k1_la-secp256k1.o
 .text.secp256k1_rfc6979_hmac_sha256_generate.constprop.20
                0x0000000008011db0      0x29c secp256k1/src/libsecp256k1_la-secp256k1.o
 .text.nonce_function_rfc6979
                0x000000000801204c       0xc0 secp256k1/src/libsecp256k1_la-secp256k1.o
 .text.secp256k1_gej_double_var.part.5
                0x000000000801210c      0x460 secp256k1/src/libsecp256k1_la-secp256k1.o
 .text.secp256k1_gej_add_ge
                0x000000000801256c      0x590 secp256k1/src/libsecp256k1_la-secp256k1.o
 .text.secp256k1_ecmult_gen
                0x0000000008012afc      0x308 secp256k1/src/libsecp256k1_la-secp256k1.o
 .text.secp256k1_ecdsa_sig_sign
                0x0000000008012e04      0x12c secp256k1/src/libsecp256k1_la-secp256k1.o
 .text.secp256k1_ecmult_gen_blind
                0x0000000008012f30      0x21c secp256k1/src/libsecp256k1_la-secp256k1.o
 .text.secp256k1_gej_add_ge_var
                0x000000000801314c      0x3a4 secp256k1/src/libsecp256k1_la-secp256k1.o
 .text.secp256k1_context_create
                0x00000000080134f0      0x35c secp256k1/src/libsecp256k1_la-secp256k1.o
                0x00000000080134f0                secp256k1_context_create
 .text.secp256k1_context_destroy
                0x000000000801384c       0x18 secp256k1/src/libsecp256k1_la-secp256k1.o
                0x000000000801384c                secp256k1_context_destroy
 .text.secp256k1_ec_pubkey_serialize
                0x0000000008013864       0xec secp256k1/src/libsecp256k1_la-secp256k1.o
                0x0000000008013864                secp256k1_ec_pubkey_serialize
 .text.secp256k1_ecdsa_signature_serialize_der
                0x0000000008013950      0x15c secp256k1/src/libsecp256k1_la-secp256k1.o
                0x0000000008013950                secp256k1_ecdsa_signature_serialize_der
 .text.secp256k1_ecdsa_sign
                0x0000000008013aac      0x18c secp256k1/src/libsecp256k1_la-secp256k1.o
                0x0000000008013aac                secp256k1_ecdsa_sign
 .text.secp256k1_ec_pubkey_create
                0x0000000008013c38       0xc0 secp256k1/src/libsecp256k1_la-secp256k1.o
                0x0000000008013c38                secp256k1_ec_pubkey_create
 .text.secp256k1_ecdsa_recoverable_signature_serialize_compact
                0x0000000008013cf8       0x94 secp256k1/src/libsecp256k1_la-secp256k1.o
                0x0000000008013cf8                secp256k1_ecdsa_recoverable_signature_serialize_compact
 .text.secp256k1_ecdsa_sign_recoverable
                0x0000000008013d8c      0x194 secp256k1/src/libsecp256k1_la-secp256k1.o
                0x0000000008013d8c                secp256k1_ecdsa_sign_recoverable
 *(.glue_7)
 .glue_7        0x0000000008013f20        0x0 linker stubs
 *(.glue_7t)
 .glue_7t       0x0000000008013f20        0x0 linker stubs
 *(.eh_frame)
 .eh_frame      0x0000000008013f20        0x0 /usr/lib/gcc/arm-none-eabi/8.3.1/thumb/v7e-m+fp/hard/crtbegin.o
 *(.init)
 .init          0x0000000008013f20        0x4 /usr/lib/gcc/arm-none-eabi/8.3.1/thumb/v7e-m+fp/hard/crti.o
                0x0000000008013f20                _init
 .init          0x0000000008013f24        0x8 /usr/lib/gcc/arm-none-eabi/8.3.1/thumb/v7e-m+fp/hard/crtn.o
 *(.fini)
 .fini          0x0000000008013f2c        0x4 /usr/lib/gcc/arm-none-eabi/8.3.1/thumb/v7e-m+fp/hard/crti.o
                0x0000000008013f2c                _fini
 .fini          0x0000000008013f30        0x8 /usr/lib/gcc/arm-none-eabi/8.3.1/thumb/v7e-m+fp/hard/crtn.o
                0x0000000008013f38                . = ALIGN (0x4)
                0x0000000008013f38                _etext = .

.vfp11_veneer   0x0000000008013f38        0x0
 .vfp11_veneer  0x0000000008013f38        0x0 linker stubs

.v4_bx          0x0000000008013f38        0x0
 .v4_bx         0x0000000008013f38        0x0 linker stubs

.iplt           0x0000000008013f38        0x0
 .iplt          0x0000000008013f38        0x0 /usr/lib/gcc/arm-none-eabi/8.3.1/thumb/v7e-m+fp/hard/crtbegin.o

.rodata         0x0000000008013f38    0x11330
                0x0000000008013f38                . = ALIGN (0x4)
 *(.rodata)
 .rodata        0x0000000008013f38       0x2c build/stm32wbxx_hal_rcc.o
 .rodata        0x0000000008013f64        0x4 /usr/lib/gcc/arm-none-eabi/8.3.1/../../../arm-none-eabi/lib/thumb/v7e-m+fp/hard/libc_nano.a(lib_a-impure.o)
                0x0000000008013f64                _global_impure_ptr
 .rodata        0x0000000008013f68      0x101 /usr/lib/gcc/arm-none-eabi/8.3.1/../../../arm-none-eabi/lib/thumb/v7e-m+fp/hard/libc_nano.a(lib_a-ctype_.o)
                0x0000000008013f68                _ctype_
 *fill*         0x0000000008014069        0x3 
 .rodata        0x000000000801406c       0x60 /usr/lib/gcc/arm-none-eabi/8.3.1/../../../arm-none-eabi/lib/thumb/v7e-m+fp/hard/libc_nano.a(lib_a-findfp.o)
                0x000000000801406c                __sf_fake_stderr
                0x000000000801408c                __sf_fake_stdout
                0x00000000080140ac                __sf_fake_stdin
 *fill*         0x00000000080140cc        0x4 
 .rodata        0x00000000080140d0      0x128 /usr/lib/gcc/arm-none-eabi/8.3.1/../../../arm-none-eabi/lib/thumb/v7e-m+fp/hard/libc_nano.a(lib_a-mprec.o)
                0x00000000080140e0                __mprec_tens
                0x00000000080141a8                __mprec_tinytens
                0x00000000080141d0                __mprec_bigtens
 *(.rodata*)
 .rodata.help.str1.4
                0x00000000080141f8       0x31 build/run.o
 *fill*         0x0000000008014229        0x3 
 .rodata.save_privkey.str1.4
                0x000000000801422c        0x5 build/run.o
 *fill*         0x0000000008014231        0x3 
 .rodata.signrech_parse.str1.4
                0x0000000008014234       0x2e build/run.o
 *fill*         0x0000000008014262        0x2 
 .rodata.str1.4
                0x0000000008014264       0x5c build/run.o
 .rodata.wallet_main.str1.4
                0x00000000080142c0        0x6 build/run.o
 *fill*         0x00000000080142c6        0x2 
 .rodata.StartDefaultTask.str1.4
                0x00000000080142c8       0x3b build/main.o
 *fill*         0x0000000008014303        0x1 
 .rodata.defaultTask_attributes
                0x0000000008014304       0x24 build/main.o
                0x0000000008014304                defaultTask_attributes
 .rodata.str1.4
                0x0000000008014328        0xc build/main.o
 .rodata.rcon   0x0000000008014334      0x100 build/encrypt.o
 .rodata.s      0x0000000008014434      0x100 build/encrypt.o
 .rodata.inv_s  0x0000000008014534      0x100 build/aes.o
 .rodata.mul11  0x0000000008014634      0x100 build/aes.o
 .rodata.mul13  0x0000000008014734      0x100 build/aes.o
 .rodata.mul14  0x0000000008014834      0x100 build/aes.o
 .rodata.mul2   0x0000000008014934      0x100 build/aes.o
 .rodata.mul3   0x0000000008014a34      0x100 build/aes.o
 .rodata.mul9   0x0000000008014b34      0x100 build/aes.o
 .rodata.s      0x0000000008014c34      0x100 build/aes.o
 .rodata.UARTPrescTable
                0x0000000008014d34       0x18 build/stm32wbxx_hal_uart.o
                0x0000000008014d34                UARTPrescTable
 .rodata.denominator.11272
                0x0000000008014d4c        0x8 build/stm32wbxx_hal_uart_ex.o
 .rodata.numerator.11271
                0x0000000008014d54        0x8 build/stm32wbxx_hal_uart_ex.o
 .rodata.AHBPrescTable
                0x0000000008014d5c       0x40 build/system_stm32wbxx.o
                0x0000000008014d5c                AHBPrescTable
 .rodata.APBPrescTable
                0x0000000008014d9c       0x20 build/system_stm32wbxx.o
                0x0000000008014d9c                APBPrescTable
 .rodata.MSIRangeTable
                0x0000000008014dbc       0x40 build/system_stm32wbxx.o
                0x0000000008014dbc                MSIRangeTable
 .rodata.vTaskStartScheduler.str1.4
                0x0000000008014dfc        0x5 build/tasks.o
 *fill*         0x0000000008014e01        0x3 
 .rodata.prvCheckForValidListAndQueue.str1.4
                0x0000000008014e04        0x5 build/timers.o
 *fill*         0x0000000008014e09        0x3 
 .rodata.xTimerCreateTimerTask.str1.4
                0x0000000008014e0c        0x8 build/timers.o
 .rodata.default_error_callback_fn.str1.4
                0x0000000008014e14       0x36 secp256k1/src/libsecp256k1_la-secp256k1.o
 *fill*         0x0000000008014e4a        0x2 
 .rodata.default_illegal_callback_fn.str1.4
                0x0000000008014e4c       0x25 secp256k1/src/libsecp256k1_la-secp256k1.o
 *fill*         0x0000000008014e71        0x3 
 .rodata.fe_1.7841
                0x0000000008014e74       0x28 secp256k1/src/libsecp256k1_la-secp256k1.o
 .rodata.one.8422
                0x0000000008014e9c        0x1 secp256k1/src/libsecp256k1_la-secp256k1.o
 *fill*         0x0000000008014e9d        0x3 
 .rodata.pad.8384
                0x0000000008014ea0       0x40 secp256k1/src/libsecp256k1_la-secp256k1.o
 .rodata.secp256k1_context_create.str1.4
                0x0000000008014ee0       0x1e secp256k1/src/libsecp256k1_la-secp256k1.o
 *fill*         0x0000000008014efe        0x2 
 .rodata.secp256k1_ec_pubkey_parse.str1.4
                0x0000000008014f00       0x1e secp256k1/src/libsecp256k1_la-secp256k1.o
 *fill*         0x0000000008014f1e        0x2 
 .rodata.secp256k1_ec_pubkey_serialize.str1.4
                0x0000000008014f20       0xb0 secp256k1/src/libsecp256k1_la-secp256k1.o
 .rodata.secp256k1_ecdsa_recoverable_signature_serialize_compact.str1.4
                0x0000000008014fd0        0xe secp256k1/src/libsecp256k1_la-secp256k1.o
 *fill*         0x0000000008014fde        0x2 
 .rodata.secp256k1_ecdsa_sign.str1.4
                0x0000000008014fe0       0x5f secp256k1/src/libsecp256k1_la-secp256k1.o
 *fill*         0x000000000801503f        0x1 
 .rodata.secp256k1_ecdsa_signature_parse_der.str1.4
                0x0000000008015040        0xc secp256k1/src/libsecp256k1_la-secp256k1.o
 .rodata.secp256k1_ecdsa_signature_serialize_compact.str1.4
                0x000000000801504c       0x11 secp256k1/src/libsecp256k1_la-secp256k1.o
 *fill*         0x000000000801505d        0x3 
 .rodata.secp256k1_ecdsa_verify.str1.4
                0x0000000008015060       0x42 secp256k1/src/libsecp256k1_la-secp256k1.o
 *fill*         0x00000000080150a2        0x2 
 .rodata.secp256k1_ecmult_static_context
                0x00000000080150a4    0x10000 secp256k1/src/libsecp256k1_la-secp256k1.o
 .rodata.secp256k1_ge_const_g
                0x00000000080250a4       0x54 secp256k1/src/libsecp256k1_la-secp256k1.o
 .rodata.secp256k1_nonce_function_rfc6979
                0x00000000080250f8        0x4 secp256k1/src/libsecp256k1_la-secp256k1.o
                0x00000000080250f8                secp256k1_nonce_function_rfc6979
 .rodata.secp256k1_pubkey_load.str1.4
                0x00000000080250fc       0x1e secp256k1/src/libsecp256k1_la-secp256k1.o
 *fill*         0x000000000802511a        0x2 
 .rodata.zero.8421
                0x000000000802511c        0x1 secp256k1/src/libsecp256k1_la-secp256k1.o
 *fill*         0x000000000802511d        0x3 
 .rodata.zero.8428
                0x0000000008025120        0x1 secp256k1/src/libsecp256k1_la-secp256k1.o
 *fill*         0x0000000008025121        0x3 
 .rodata.str1.4
                0x0000000008025124       0x13 /usr/lib/gcc/arm-none-eabi/8.3.1/../../../arm-none-eabi/lib/thumb/v7e-m+fp/hard/libc_nano.a(lib_a-nano-vfprintf.o)
 *fill*         0x0000000008025137        0x1 
 .rodata.str1.4
                0x0000000008025138       0x12 /usr/lib/gcc/arm-none-eabi/8.3.1/../../../arm-none-eabi/lib/thumb/v7e-m+fp/hard/libc_nano.a(lib_a-nano-vfprintf_float.o)
 *fill*         0x000000000802514a        0x2 
 .rodata.str1.4
                0x000000000802514c       0x25 /usr/lib/gcc/arm-none-eabi/8.3.1/../../../arm-none-eabi/lib/thumb/v7e-m+fp/hard/libc_nano.a(lib_a-nano-vfprintf_i.o)
 *fill*         0x0000000008025171        0x3 
 .rodata.str1.4
                0x0000000008025174       0x6d /usr/lib/gcc/arm-none-eabi/8.3.1/../../../arm-none-eabi/lib/thumb/v7e-m+fp/hard/libc_nano.a(lib_a-dtoa.o)
                                         0x71 (size before relaxing)
 *fill*         0x00000000080251e1        0x3 
 .rodata.str1.4
                0x00000000080251e4       0x33 /usr/lib/gcc/arm-none-eabi/8.3.1/../../../arm-none-eabi/lib/thumb/v7e-m+fp/hard/libc_nano.a(lib_a-mprec.o)
                                         0x5d (size before relaxing)
 *fill*         0x0000000008025217        0x1 
 .rodata.str1.4
                0x0000000008025218       0x3f /usr/lib/gcc/arm-none-eabi/8.3.1/../../../arm-none-eabi/lib/thumb/v7e-m+fp/hard/libc_nano.a(lib_a-assert.o)
                                         0x43 (size before relaxing)
 *fill*         0x0000000008025257        0x1 
 .rodata.str1.4
                0x0000000008025258        0xe /usr/lib/gcc/arm-none-eabi/8.3.1/../../../arm-none-eabi/lib/thumb/v7e-m+fp/hard/libc_nano.a(lib_a-locale.o)
                                         0x12 (size before relaxing)
                0x0000000008025268                . = ALIGN (0x4)
 *fill*         0x0000000008025266        0x2 

.ARM.extab
 *(.ARM.extab* .gnu.linkonce.armextab.*)

.ARM            0x0000000008025268        0x8
                0x0000000008025268                __exidx_start = .
 *(.ARM.exidx*)
 .ARM.exidx     0x0000000008025268        0x8 /usr/lib/gcc/arm-none-eabi/8.3.1/thumb/v7e-m+fp/hard/libgcc.a(_udivmoddi4.o)
                0x0000000008025270                __exidx_end = .

.rel.dyn        0x0000000008025270        0x0
 .rel.iplt      0x0000000008025270        0x0 /usr/lib/gcc/arm-none-eabi/8.3.1/thumb/v7e-m+fp/hard/crtbegin.o

.preinit_array  0x0000000008025270        0x0
                0x0000000008025270                PROVIDE (__preinit_array_start = .)
 *(.preinit_array*)
                0x0000000008025270                PROVIDE (__preinit_array_end = .)

.init_array     0x0000000008025270        0x4
                0x0000000008025270                PROVIDE (__init_array_start = .)
 *(SORT_BY_NAME(.init_array.*))
 *(.init_array*)
 .init_array    0x0000000008025270        0x4 /usr/lib/gcc/arm-none-eabi/8.3.1/thumb/v7e-m+fp/hard/crtbegin.o
                0x0000000008025274                PROVIDE (__init_array_end = .)

.fini_array     0x0000000008025274        0x4
                0x0000000008025274                PROVIDE (__fini_array_start = .)
 *(SORT_BY_NAME(.fini_array.*))
 *(.fini_array*)
 .fini_array    0x0000000008025274        0x4 /usr/lib/gcc/arm-none-eabi/8.3.1/thumb/v7e-m+fp/hard/crtbegin.o
                0x0000000008025278                PROVIDE (__fini_array_end = .)
                0x0000000008025278                _sidata = LOADADDR (.data)

.data           0x0000000020000008      0x30c load address 0x0000000008025278
                0x0000000020000008                . = ALIGN (0x4)
                0x0000000020000008                _sdata = .
 *(.data)
 .data          0x0000000020000008       0x64 /usr/lib/gcc/arm-none-eabi/8.3.1/../../../arm-none-eabi/lib/thumb/v7e-m+fp/hard/libc_nano.a(lib_a-impure.o)
                0x0000000020000008                _impure_ptr
 .data          0x000000002000006c      0x16c /usr/lib/gcc/arm-none-eabi/8.3.1/../../../arm-none-eabi/lib/thumb/v7e-m+fp/hard/libc_nano.a(lib_a-locale.o)
                0x000000002000006c                __global_locale
 *(.data*)
 .data.commands
                0x00000000200001d8       0x2c build/run.o
                0x00000000200001d8                commands
 .data.k        0x0000000020000204      0x100 build/sha256.o
                0x0000000020000204                k
 .data.uwTickFreq
                0x0000000020000304        0x1 build/stm32wbxx_hal.o
                0x0000000020000304                uwTickFreq
 *fill*         0x0000000020000305        0x3 
 .data.uwTickPrio
                0x0000000020000308        0x4 build/stm32wbxx_hal.o
                0x0000000020000308                uwTickPrio
 .data.SystemCoreClock
                0x000000002000030c        0x4 build/system_stm32wbxx.o
                0x000000002000030c                SystemCoreClock
 .data.uxCriticalNesting
                0x0000000020000310        0x4 build/port.o
                0x0000000020000314                . = ALIGN (0x4)
                0x0000000020000314                _edata = .

.tm_clone_table
                0x0000000020000314        0x0 load address 0x0000000008025584
 .tm_clone_table
                0x0000000020000314        0x0 /usr/lib/gcc/arm-none-eabi/8.3.1/thumb/v7e-m+fp/hard/crtbegin.o
 .tm_clone_table
                0x0000000020000314        0x0 /usr/lib/gcc/arm-none-eabi/8.3.1/thumb/v7e-m+fp/hard/crtend.o

.igot.plt       0x0000000020000314        0x0 load address 0x0000000008025584
 .igot.plt      0x0000000020000314        0x0 /usr/lib/gcc/arm-none-eabi/8.3.1/thumb/v7e-m+fp/hard/crtbegin.o
                0x0000000020000314                . = ALIGN (0x4)

.bss            0x0000000020000314     0xa0c4 load address 0x0000000008025584
                0x0000000020000314                _sbss = .
                0x0000000020000314                __bss_start__ = _sbss
 *(.bss)
 .bss           0x0000000020000314       0x1c /usr/lib/gcc/arm-none-eabi/8.3.1/thumb/v7e-m+fp/hard/crtbegin.o
 .bss           0x0000000020000330        0x8 /usr/lib/gcc/arm-none-eabi/8.3.1/../../../arm-none-eabi/lib/thumb/v7e-m+fp/hard/libc_nano.a(lib_a-nano-mallocr.o)
                0x0000000020000330                __malloc_free_list
                0x0000000020000334                __malloc_sbrk_start
 .bss           0x0000000020000338        0x4 /usr/lib/gcc/arm-none-eabi/8.3.1/../../../arm-none-eabi/lib/thumb/v7e-m+fp/hard/libnosys.a(sbrk.o)
 *(.bss*)
 .bss.pxCurrentTCB
                0x000000002000033c        0x4 build/tasks.o
                0x000000002000033c                pxCurrentTCB
 .bss.pxDelayedTaskList
                0x0000000020000340        0x4 build/tasks.o
 .bss.pxOverflowDelayedTaskList
                0x0000000020000344        0x4 build/tasks.o
 .bss.pxReadyTasksLists
                0x0000000020000348      0x460 build/tasks.o
 .bss.uxCurrentNumberOfTasks
                0x00000000200007a8        0x4 build/tasks.o
 .bss.uxDeletedTasksWaitingCleanUp
                0x00000000200007ac        0x4 build/tasks.o
 .bss.uxSchedulerSuspended
                0x00000000200007b0        0x4 build/tasks.o
 .bss.uxTaskNumber
                0x00000000200007b4        0x4 build/tasks.o
 .bss.uxTopReadyPriority
                0x00000000200007b8        0x4 build/tasks.o
 .bss.xDelayedTaskList1
                0x00000000200007bc       0x14 build/tasks.o
 .bss.xDelayedTaskList2
                0x00000000200007d0       0x14 build/tasks.o
 .bss.xNextTaskUnblockTime
                0x00000000200007e4        0x4 build/tasks.o
 .bss.xNumOfOverflows
                0x00000000200007e8        0x4 build/tasks.o
 .bss.xPendedTicks
                0x00000000200007ec        0x4 build/tasks.o
 .bss.xPendingReadyList
                0x00000000200007f0       0x14 build/tasks.o
 .bss.xSchedulerRunning
                0x0000000020000804        0x4 build/tasks.o
 .bss.xSuspendedTaskList
                0x0000000020000808       0x14 build/tasks.o
 .bss.xTasksWaitingTermination
                0x000000002000081c       0x14 build/tasks.o
 .bss.xTickCount
                0x0000000020000830        0x4 build/tasks.o
 .bss.xYieldPending
                0x0000000020000834        0x4 build/tasks.o
 .bss.pxCurrentTimerList
                0x0000000020000838        0x4 build/timers.o
 .bss.pxOverflowTimerList
                0x000000002000083c        0x4 build/timers.o
 .bss.ucStaticTimerQueueStorage.6932
                0x0000000020000840       0xa0 build/timers.o
 .bss.xActiveTimerList1
                0x00000000200008e0       0x14 build/timers.o
 .bss.xActiveTimerList2
                0x00000000200008f4       0x14 build/timers.o
 .bss.xLastTime.6881
                0x0000000020000908        0x4 build/timers.o
 .bss.xStaticTimerQueue.6931
                0x000000002000090c       0x50 build/timers.o
 .bss.xTimerQueue
                0x000000002000095c        0x4 build/timers.o
 .bss.xTimerTaskHandle
                0x0000000020000960        0x4 build/timers.o
 .bss.Idle_Stack.13070
                0x0000000020000964      0x800 build/cmsis_os2.o
 .bss.Idle_TCB.13069
                0x0000000020001164       0x5c build/cmsis_os2.o
 .bss.KernelState
                0x00000000200011c0        0x4 build/cmsis_os2.o
 .bss.Timer_Stack.13077
                0x00000000200011c4     0x1000 build/cmsis_os2.o
 .bss.Timer_TCB.13076
                0x00000000200021c4       0x5c build/cmsis_os2.o
 .bss.pxEnd     0x0000000020002220        0x4 build/heap_4.o
 .bss.ucHeap    0x0000000020002224     0x8000 build/heap_4.o
 .bss.xBlockAllocatedBit
                0x000000002000a224        0x4 build/heap_4.o
 .bss.xFreeBytesRemaining
                0x000000002000a228        0x4 build/heap_4.o
 .bss.xMinimumEverFreeBytesRemaining
                0x000000002000a22c        0x4 build/heap_4.o
 .bss.xNumberOfSuccessfulAllocations
                0x000000002000a230        0x4 build/heap_4.o
 .bss.xNumberOfSuccessfulFrees
                0x000000002000a234        0x4 build/heap_4.o
 .bss.xStart    0x000000002000a238        0x8 build/heap_4.o
 .bss.ucMaxSysCallPriority
                0x000000002000a240        0x1 build/port.o
 *fill*         0x000000002000a241        0x3 
 .bss.ulMaxPRIGROUPValue
                0x000000002000a244        0x4 build/port.o
 *(COMMON)
 COMMON         0x000000002000a248       0x61 build/run.o
                0x000000002000a248                dat
 *fill*         0x000000002000a2a9        0x3 
 COMMON         0x000000002000a2ac        0x4 build/retarget.o
                0x000000002000a2ac                gHuart
 COMMON         0x000000002000a2b0       0x94 build/main.o
                0x000000002000a2b0                defaultTaskHandle
                0x000000002000a2b4                huart1
 COMMON         0x000000002000a344       0x4c build/stm32wbxx_hal_timebase_tim.o
                0x000000002000a344                htim1
 COMMON         0x000000002000a390        0x4 build/stm32wbxx_hal.o
                0x000000002000a390                uwTick
 COMMON         0x000000002000a394       0x40 build/queue.o
                0x000000002000a394                xQueueRegistry
 COMMON         0x000000002000a3d4        0x4 /usr/lib/gcc/arm-none-eabi/8.3.1/../../../arm-none-eabi/lib/thumb/v7e-m+fp/hard/libc_nano.a(lib_a-reent.o)
                0x000000002000a3d4                errno
                0x000000002000a3d8                . = ALIGN (0x4)
                0x000000002000a3d8                _ebss = .
                0x000000002000a3d8                __bss_end__ = _ebss

._user_heap_stack
                0x000000002000a3d8      0x600 load address 0x0000000008025584
                0x000000002000a3d8                . = ALIGN (0x8)
                0x000000002000a3d8                PROVIDE (end = .)
                [!provide]                        PROVIDE (_end = .)
                0x000000002000a5d8                . = (. + _Min_Heap_Size)
 *fill*         0x000000002000a3d8      0x200 
                0x000000002000a9d8                . = (. + _Min_Stack_Size)
 *fill*         0x000000002000a5d8      0x400 
                0x000000002000a9d8                . = ALIGN (0x8)

/DISCARD/
 libc.a(*)
 libm.a(*)
 libgcc.a(*)

.ARM.attributes
                0x0000000000000000       0x30
 *(.ARM.attributes)
 .ARM.attributes
                0x0000000000000000       0x1e /usr/lib/gcc/arm-none-eabi/8.3.1/thumb/v7e-m+fp/hard/crti.o
 .ARM.attributes
                0x000000000000001e       0x34 /usr/lib/gcc/arm-none-eabi/8.3.1/thumb/v7e-m+fp/hard/crtbegin.o
 .ARM.attributes
                0x0000000000000052       0x34 build/run.o
 .ARM.attributes
                0x0000000000000086       0x34 build/retarget.o
 .ARM.attributes
                0x00000000000000ba       0x34 build/main.o
 .ARM.attributes
                0x00000000000000ee       0x34 build/encrypt.o
 .ARM.attributes
                0x0000000000000122       0x34 build/sha256.o
 .ARM.attributes
                0x0000000000000156       0x34 build/aes.o
 .ARM.attributes
                0x000000000000018a       0x34 build/stm32wbxx_it.o
 .ARM.attributes
                0x00000000000001be       0x34 build/stm32wbxx_hal_msp.o
 .ARM.attributes
                0x00000000000001f2       0x34 build/stm32wbxx_hal_timebase_tim.o
 .ARM.attributes
                0x0000000000000226       0x34 build/stm32wbxx_hal_rcc.o
 .ARM.attributes
                0x000000000000025a       0x34 build/stm32wbxx_hal_rcc_ex.o
 .ARM.attributes
                0x000000000000028e       0x34 build/stm32wbxx_hal_gpio.o
 .ARM.attributes
                0x00000000000002c2       0x34 build/stm32wbxx_hal_dma.o
 .ARM.attributes
                0x00000000000002f6       0x34 build/stm32wbxx_hal_pwr.o
 .ARM.attributes
                0x000000000000032a       0x34 build/stm32wbxx_hal_pwr_ex.o
 .ARM.attributes
                0x000000000000035e       0x34 build/stm32wbxx_hal_cortex.o
 .ARM.attributes
                0x0000000000000392       0x34 build/stm32wbxx_hal.o
 .ARM.attributes
                0x00000000000003c6       0x34 build/stm32wbxx_hal_uart.o
 .ARM.attributes
                0x00000000000003fa       0x34 build/stm32wbxx_hal_uart_ex.o
 .ARM.attributes
                0x000000000000042e       0x34 build/stm32wbxx_hal_tim.o
 .ARM.attributes
                0x0000000000000462       0x34 build/stm32wbxx_hal_tim_ex.o
 .ARM.attributes
                0x0000000000000496       0x34 build/system_stm32wbxx.o
 .ARM.attributes
                0x00000000000004ca       0x34 build/list.o
 .ARM.attributes
                0x00000000000004fe       0x34 build/queue.o
 .ARM.attributes
                0x0000000000000532       0x34 build/tasks.o
 .ARM.attributes
                0x0000000000000566       0x34 build/timers.o
 .ARM.attributes
                0x000000000000059a       0x34 build/cmsis_os2.o
 .ARM.attributes
                0x00000000000005ce       0x34 build/heap_4.o
 .ARM.attributes
                0x0000000000000602       0x34 build/port.o
 .ARM.attributes
                0x0000000000000636       0x21 build/startup_stm32wb55xx_cm4.o
 .ARM.attributes
                0x0000000000000657       0x34 secp256k1/src/libsecp256k1_la-secp256k1.o
 .ARM.attributes
                0x000000000000068b       0x34 /usr/lib/gcc/arm-none-eabi/8.3.1/../../../arm-none-eabi/lib/thumb/v7e-m+fp/hard/libc_nano.a(lib_a-abort.o)
 .ARM.attributes
                0x00000000000006bf       0x34 /usr/lib/gcc/arm-none-eabi/8.3.1/../../../arm-none-eabi/lib/thumb/v7e-m+fp/hard/libc_nano.a(lib_a-errno.o)
 .ARM.attributes
                0x00000000000006f3       0x34 /usr/lib/gcc/arm-none-eabi/8.3.1/../../../arm-none-eabi/lib/thumb/v7e-m+fp/hard/libc_nano.a(lib_a-fprintf.o)
 .ARM.attributes
                0x0000000000000727       0x34 /usr/lib/gcc/arm-none-eabi/8.3.1/../../../arm-none-eabi/lib/thumb/v7e-m+fp/hard/libc_nano.a(lib_a-getchar.o)
 .ARM.attributes
                0x000000000000075b       0x32 /usr/lib/gcc/arm-none-eabi/8.3.1/../../../arm-none-eabi/lib/thumb/v7e-m+fp/hard/libc_nano.a(lib_a-impure.o)
 .ARM.attributes
                0x000000000000078d       0x34 /usr/lib/gcc/arm-none-eabi/8.3.1/../../../arm-none-eabi/lib/thumb/v7e-m+fp/hard/libc_nano.a(lib_a-init.o)
 .ARM.attributes
                0x00000000000007c1       0x34 /usr/lib/gcc/arm-none-eabi/8.3.1/../../../arm-none-eabi/lib/thumb/v7e-m+fp/hard/libc_nano.a(lib_a-malloc.o)
 .ARM.attributes
                0x00000000000007f5       0x1c /usr/lib/gcc/arm-none-eabi/8.3.1/../../../arm-none-eabi/lib/thumb/v7e-m+fp/hard/libc_nano.a(lib_a-memchr.o)
 .ARM.attributes
                0x0000000000000811       0x34 /usr/lib/gcc/arm-none-eabi/8.3.1/../../../arm-none-eabi/lib/thumb/v7e-m+fp/hard/libc_nano.a(lib_a-memcmp.o)
 .ARM.attributes
                0x0000000000000845       0x1c /usr/lib/gcc/arm-none-eabi/8.3.1/../../../arm-none-eabi/lib/thumb/v7e-m+fp/hard/libc_nano.a(lib_a-memcpy.o)
 .ARM.attributes
                0x0000000000000861       0x34 /usr/lib/gcc/arm-none-eabi/8.3.1/../../../arm-none-eabi/lib/thumb/v7e-m+fp/hard/libc_nano.a(lib_a-memset.o)
 .ARM.attributes
                0x0000000000000895       0x34 /usr/lib/gcc/arm-none-eabi/8.3.1/../../../arm-none-eabi/lib/thumb/v7e-m+fp/hard/libc_nano.a(lib_a-nano-freer.o)
 .ARM.attributes
                0x00000000000008c9       0x34 /usr/lib/gcc/arm-none-eabi/8.3.1/../../../arm-none-eabi/lib/thumb/v7e-m+fp/hard/libc_nano.a(lib_a-nano-mallocr.o)
 .ARM.attributes
                0x00000000000008fd       0x34 /usr/lib/gcc/arm-none-eabi/8.3.1/../../../arm-none-eabi/lib/thumb/v7e-m+fp/hard/libc_nano.a(lib_a-nano-vfprintf.o)
 .ARM.attributes
                0x0000000000000931       0x34 /usr/lib/gcc/arm-none-eabi/8.3.1/../../../arm-none-eabi/lib/thumb/v7e-m+fp/hard/libc_nano.a(lib_a-nano-vfprintf_float.o)
 .ARM.attributes
                0x0000000000000965       0x34 /usr/lib/gcc/arm-none-eabi/8.3.1/../../../arm-none-eabi/lib/thumb/v7e-m+fp/hard/libc_nano.a(lib_a-nano-vfprintf_i.o)
 .ARM.attributes
                0x0000000000000999       0x34 /usr/lib/gcc/arm-none-eabi/8.3.1/../../../arm-none-eabi/lib/thumb/v7e-m+fp/hard/libc_nano.a(lib_a-printf.o)
 .ARM.attributes
                0x00000000000009cd       0x34 /usr/lib/gcc/arm-none-eabi/8.3.1/../../../arm-none-eabi/lib/thumb/v7e-m+fp/hard/libc_nano.a(lib_a-putchar.o)
 .ARM.attributes
                0x0000000000000a01       0x34 /usr/lib/gcc/arm-none-eabi/8.3.1/../../../arm-none-eabi/lib/thumb/v7e-m+fp/hard/libc_nano.a(lib_a-puts.o)
 .ARM.attributes
                0x0000000000000a35       0x34 /usr/lib/gcc/arm-none-eabi/8.3.1/../../../arm-none-eabi/lib/thumb/v7e-m+fp/hard/libc_nano.a(lib_a-sbrkr.o)
 .ARM.attributes
                0x0000000000000a69       0x34 /usr/lib/gcc/arm-none-eabi/8.3.1/../../../arm-none-eabi/lib/thumb/v7e-m+fp/hard/libc_nano.a(lib_a-setvbuf.o)
 .ARM.attributes
                0x0000000000000a9d       0x34 /usr/lib/gcc/arm-none-eabi/8.3.1/../../../arm-none-eabi/lib/thumb/v7e-m+fp/hard/libc_nano.a(lib_a-signal.o)
 .ARM.attributes
                0x0000000000000ad1       0x34 /usr/lib/gcc/arm-none-eabi/8.3.1/../../../arm-none-eabi/lib/thumb/v7e-m+fp/hard/libc_nano.a(lib_a-signalr.o)
 .ARM.attributes
                0x0000000000000b05       0x1c /usr/lib/gcc/arm-none-eabi/8.3.1/../../../arm-none-eabi/lib/thumb/v7e-m+fp/hard/libc_nano.a(lib_a-strlen.o)
 .ARM.attributes
                0x0000000000000b21       0x34 /usr/lib/gcc/arm-none-eabi/8.3.1/../../../arm-none-eabi/lib/thumb/v7e-m+fp/hard/libc_nano.a(lib_a-strncmp.o)
 .ARM.attributes
                0x0000000000000b55       0x34 /usr/lib/gcc/arm-none-eabi/8.3.1/../../../arm-none-eabi/lib/thumb/v7e-m+fp/hard/libc_nano.a(lib_a-strncpy.o)
 .ARM.attributes
                0x0000000000000b89       0x34 /usr/lib/gcc/arm-none-eabi/8.3.1/../../../arm-none-eabi/lib/thumb/v7e-m+fp/hard/libc_nano.a(lib_a-strtoul.o)
 .ARM.attributes
                0x0000000000000bbd       0x34 /usr/lib/gcc/arm-none-eabi/8.3.1/../../../arm-none-eabi/lib/thumb/v7e-m+fp/hard/libc_nano.a(lib_a-wbuf.o)
 .ARM.attributes
                0x0000000000000bf1       0x34 /usr/lib/gcc/arm-none-eabi/8.3.1/../../../arm-none-eabi/lib/thumb/v7e-m+fp/hard/libc_nano.a(lib_a-wsetup.o)
 .ARM.attributes
                0x0000000000000c25       0x32 /usr/lib/gcc/arm-none-eabi/8.3.1/../../../arm-none-eabi/lib/thumb/v7e-m+fp/hard/libc_nano.a(lib_a-ctype_.o)
 .ARM.attributes
                0x0000000000000c57       0x34 /usr/lib/gcc/arm-none-eabi/8.3.1/../../../arm-none-eabi/lib/thumb/v7e-m+fp/hard/libc_nano.a(lib_a-dtoa.o)
 .ARM.attributes
                0x0000000000000c8b       0x34 /usr/lib/gcc/arm-none-eabi/8.3.1/../../../arm-none-eabi/lib/thumb/v7e-m+fp/hard/libc_nano.a(lib_a-fflush.o)
 .ARM.attributes
                0x0000000000000cbf       0x34 /usr/lib/gcc/arm-none-eabi/8.3.1/../../../arm-none-eabi/lib/thumb/v7e-m+fp/hard/libc_nano.a(lib_a-findfp.o)
 .ARM.attributes
                0x0000000000000cf3       0x34 /usr/lib/gcc/arm-none-eabi/8.3.1/../../../arm-none-eabi/lib/thumb/v7e-m+fp/hard/libc_nano.a(lib_a-fvwrite.o)
 .ARM.attributes
                0x0000000000000d27       0x34 /usr/lib/gcc/arm-none-eabi/8.3.1/../../../arm-none-eabi/lib/thumb/v7e-m+fp/hard/libc_nano.a(lib_a-fwalk.o)
 .ARM.attributes
                0x0000000000000d5b       0x34 /usr/lib/gcc/arm-none-eabi/8.3.1/../../../arm-none-eabi/lib/thumb/v7e-m+fp/hard/libc_nano.a(lib_a-getc.o)
 .ARM.attributes
                0x0000000000000d8f       0x34 /usr/lib/gcc/arm-none-eabi/8.3.1/../../../arm-none-eabi/lib/thumb/v7e-m+fp/hard/libc_nano.a(lib_a-localeconv.o)
 .ARM.attributes
                0x0000000000000dc3       0x34 /usr/lib/gcc/arm-none-eabi/8.3.1/../../../arm-none-eabi/lib/thumb/v7e-m+fp/hard/libc_nano.a(lib_a-makebuf.o)
 .ARM.attributes
                0x0000000000000df7       0x34 /usr/lib/gcc/arm-none-eabi/8.3.1/../../../arm-none-eabi/lib/thumb/v7e-m+fp/hard/libc_nano.a(lib_a-memmove.o)
 .ARM.attributes
                0x0000000000000e2b       0x34 /usr/lib/gcc/arm-none-eabi/8.3.1/../../../arm-none-eabi/lib/thumb/v7e-m+fp/hard/libc_nano.a(lib_a-mlock.o)
 .ARM.attributes
                0x0000000000000e5f       0x34 /usr/lib/gcc/arm-none-eabi/8.3.1/../../../arm-none-eabi/lib/thumb/v7e-m+fp/hard/libc_nano.a(lib_a-mprec.o)
 .ARM.attributes
                0x0000000000000e93       0x34 /usr/lib/gcc/arm-none-eabi/8.3.1/../../../arm-none-eabi/lib/thumb/v7e-m+fp/hard/libc_nano.a(lib_a-nano-callocr.o)
 .ARM.attributes
                0x0000000000000ec7       0x34 /usr/lib/gcc/arm-none-eabi/8.3.1/../../../arm-none-eabi/lib/thumb/v7e-m+fp/hard/libc_nano.a(lib_a-nano-reallocr.o)
 .ARM.attributes
                0x0000000000000efb       0x34 /usr/lib/gcc/arm-none-eabi/8.3.1/../../../arm-none-eabi/lib/thumb/v7e-m+fp/hard/libc_nano.a(lib_a-putc.o)
 .ARM.attributes
                0x0000000000000f2f       0x34 /usr/lib/gcc/arm-none-eabi/8.3.1/../../../arm-none-eabi/lib/thumb/v7e-m+fp/hard/libc_nano.a(lib_a-reent.o)
 .ARM.attributes
                0x0000000000000f63       0x34 /usr/lib/gcc/arm-none-eabi/8.3.1/../../../arm-none-eabi/lib/thumb/v7e-m+fp/hard/libc_nano.a(lib_a-rget.o)
 .ARM.attributes
                0x0000000000000f97       0x34 /usr/lib/gcc/arm-none-eabi/8.3.1/../../../arm-none-eabi/lib/thumb/v7e-m+fp/hard/libc_nano.a(lib_a-stdio.o)
 .ARM.attributes
                0x0000000000000fcb       0x34 /usr/lib/gcc/arm-none-eabi/8.3.1/../../../arm-none-eabi/lib/thumb/v7e-m+fp/hard/libc_nano.a(lib_a-writer.o)
 .ARM.attributes
                0x0000000000000fff       0x34 /usr/lib/gcc/arm-none-eabi/8.3.1/../../../arm-none-eabi/lib/thumb/v7e-m+fp/hard/libc_nano.a(lib_a-assert.o)
 .ARM.attributes
                0x0000000000001033       0x34 /usr/lib/gcc/arm-none-eabi/8.3.1/../../../arm-none-eabi/lib/thumb/v7e-m+fp/hard/libc_nano.a(lib_a-closer.o)
 .ARM.attributes
                0x0000000000001067       0x34 /usr/lib/gcc/arm-none-eabi/8.3.1/../../../arm-none-eabi/lib/thumb/v7e-m+fp/hard/libc_nano.a(lib_a-fstatr.o)
 .ARM.attributes
                0x000000000000109b       0x34 /usr/lib/gcc/arm-none-eabi/8.3.1/../../../arm-none-eabi/lib/thumb/v7e-m+fp/hard/libc_nano.a(lib_a-isattyr.o)
 .ARM.attributes
                0x00000000000010cf       0x34 /usr/lib/gcc/arm-none-eabi/8.3.1/../../../arm-none-eabi/lib/thumb/v7e-m+fp/hard/libc_nano.a(lib_a-locale.o)
 .ARM.attributes
                0x0000000000001103       0x34 /usr/lib/gcc/arm-none-eabi/8.3.1/../../../arm-none-eabi/lib/thumb/v7e-m+fp/hard/libc_nano.a(lib_a-lseekr.o)
 .ARM.attributes
                0x0000000000001137       0x34 /usr/lib/gcc/arm-none-eabi/8.3.1/../../../arm-none-eabi/lib/thumb/v7e-m+fp/hard/libc_nano.a(lib_a-mbtowc_r.o)
 .ARM.attributes
                0x000000000000116b       0x34 /usr/lib/gcc/arm-none-eabi/8.3.1/../../../arm-none-eabi/lib/thumb/v7e-m+fp/hard/libc_nano.a(lib_a-nano-msizer.o)
 .ARM.attributes
                0x000000000000119f       0x34 /usr/lib/gcc/arm-none-eabi/8.3.1/../../../arm-none-eabi/lib/thumb/v7e-m+fp/hard/libc_nano.a(lib_a-readr.o)
 .ARM.attributes
                0x00000000000011d3       0x34 /usr/lib/gcc/arm-none-eabi/8.3.1/../../../arm-none-eabi/lib/thumb/v7e-m+fp/hard/libc_nano.a(lib_a-refill.o)
 .ARM.attributes
                0x0000000000001207       0x34 /usr/lib/gcc/arm-none-eabi/8.3.1/../../../arm-none-eabi/lib/thumb/v7e-m+fp/hard/libc_nano.a(lib_a-wctomb_r.o)
 .ARM.attributes
                0x000000000000123b       0x34 /usr/lib/gcc/arm-none-eabi/8.3.1/../../../arm-none-eabi/lib/thumb/v7e-m+fp/hard/libnosys.a(getpid.o)
 .ARM.attributes
                0x000000000000126f       0x34 /usr/lib/gcc/arm-none-eabi/8.3.1/../../../arm-none-eabi/lib/thumb/v7e-m+fp/hard/libnosys.a(kill.o)
 .ARM.attributes
                0x00000000000012a3       0x34 /usr/lib/gcc/arm-none-eabi/8.3.1/../../../arm-none-eabi/lib/thumb/v7e-m+fp/hard/libnosys.a(sbrk.o)
 .ARM.attributes
                0x00000000000012d7       0x34 /usr/lib/gcc/arm-none-eabi/8.3.1/../../../arm-none-eabi/lib/thumb/v7e-m+fp/hard/libnosys.a(_exit.o)
 .ARM.attributes
                0x000000000000130b       0x1e /usr/lib/gcc/arm-none-eabi/8.3.1/thumb/v7e-m+fp/hard/libgcc.a(_arm_addsubdf3.o)
 .ARM.attributes
                0x0000000000001329       0x1e /usr/lib/gcc/arm-none-eabi/8.3.1/thumb/v7e-m+fp/hard/libgcc.a(_arm_muldivdf3.o)
 .ARM.attributes
                0x0000000000001347       0x1e /usr/lib/gcc/arm-none-eabi/8.3.1/thumb/v7e-m+fp/hard/libgcc.a(_arm_cmpdf2.o)
 .ARM.attributes
                0x0000000000001365       0x1e /usr/lib/gcc/arm-none-eabi/8.3.1/thumb/v7e-m+fp/hard/libgcc.a(_arm_unorddf2.o)
 .ARM.attributes
                0x0000000000001383       0x1e /usr/lib/gcc/arm-none-eabi/8.3.1/thumb/v7e-m+fp/hard/libgcc.a(_arm_fixdfsi.o)
 .ARM.attributes
                0x00000000000013a1       0x1e /usr/lib/gcc/arm-none-eabi/8.3.1/thumb/v7e-m+fp/hard/libgcc.a(_aeabi_uldivmod.o)
 .ARM.attributes
                0x00000000000013bf       0x34 /usr/lib/gcc/arm-none-eabi/8.3.1/thumb/v7e-m+fp/hard/libgcc.a(_udivmoddi4.o)
 .ARM.attributes
                0x00000000000013f3       0x1e /usr/lib/gcc/arm-none-eabi/8.3.1/thumb/v7e-m+fp/hard/libgcc.a(_dvmd_tls.o)
 .ARM.attributes
                0x0000000000001411       0x32 /usr/lib/gcc/arm-none-eabi/8.3.1/thumb/v7e-m+fp/hard/crtend.o
 .ARM.attributes
                0x0000000000001443       0x1e /usr/lib/gcc/arm-none-eabi/8.3.1/thumb/v7e-m+fp/hard/crtn.o

MAPPING_TABLE
 *(MAPPING_TABLE)

MB_MEM1
 *(MB_MEM1)

MB_MEM2         0x0000000020030000        0x0
                0x0000000020030000                _sMB_MEM2 = .
 *(MB_MEM2)
                0x0000000020030000                _eMB_MEM2 = .
OUTPUT(build/wallet.elf elf32-littlearm)
LOAD linker stubs
LOAD /usr/lib/gcc/arm-none-eabi/8.3.1/../../../arm-none-eabi/lib/thumb/v7e-m+fp/hard/libc.a
LOAD /usr/lib/gcc/arm-none-eabi/8.3.1/../../../arm-none-eabi/lib/thumb/v7e-m+fp/hard/libm.a
LOAD /usr/lib/gcc/arm-none-eabi/8.3.1/thumb/v7e-m+fp/hard/libgcc.a

.comment        0x0000000000000000       0x9f
 .comment       0x0000000000000000       0x51 /usr/lib/gcc/arm-none-eabi/8.3.1/thumb/v7e-m+fp/hard/crtbegin.o
                                         0x52 (size before relaxing)
 .comment       0x0000000000000051       0x52 build/run.o
 .comment       0x0000000000000051       0x52 build/retarget.o
 .comment       0x0000000000000051       0x52 build/main.o
 .comment       0x0000000000000051       0x52 build/encrypt.o
 .comment       0x0000000000000051       0x52 build/sha256.o
 .comment       0x0000000000000051       0x52 build/aes.o
 .comment       0x0000000000000051       0x52 build/stm32wbxx_it.o
 .comment       0x0000000000000051       0x52 build/stm32wbxx_hal_msp.o
 .comment       0x0000000000000051       0x52 build/stm32wbxx_hal_timebase_tim.o
 .comment       0x0000000000000051       0x52 build/stm32wbxx_hal_rcc.o
 .comment       0x0000000000000051       0x52 build/stm32wbxx_hal_rcc_ex.o
 .comment       0x0000000000000051       0x52 build/stm32wbxx_hal_gpio.o
 .comment       0x0000000000000051       0x52 build/stm32wbxx_hal_dma.o
 .comment       0x0000000000000051       0x52 build/stm32wbxx_hal_pwr.o
 .comment       0x0000000000000051       0x52 build/stm32wbxx_hal_pwr_ex.o
 .comment       0x0000000000000051       0x52 build/stm32wbxx_hal_cortex.o
 .comment       0x0000000000000051       0x52 build/stm32wbxx_hal.o
 .comment       0x0000000000000051       0x52 build/stm32wbxx_hal_uart.o
 .comment       0x0000000000000051       0x52 build/stm32wbxx_hal_uart_ex.o
 .comment       0x0000000000000051       0x52 build/stm32wbxx_hal_tim.o
 .comment       0x0000000000000051       0x52 build/stm32wbxx_hal_tim_ex.o
 .comment       0x0000000000000051       0x52 build/system_stm32wbxx.o
 .comment       0x0000000000000051       0x52 build/list.o
 .comment       0x0000000000000051       0x52 build/queue.o
 .comment       0x0000000000000051       0x52 build/tasks.o
 .comment       0x0000000000000051       0x52 build/timers.o
 .comment       0x0000000000000051       0x52 build/cmsis_os2.o
 .comment       0x0000000000000051       0x52 build/heap_4.o
 .comment       0x0000000000000051       0x52 build/port.o
 .comment       0x0000000000000051       0x52 secp256k1/src/libsecp256k1_la-secp256k1.o
 .comment       0x0000000000000051       0x4e /usr/lib/gcc/arm-none-eabi/8.3.1/../../../arm-none-eabi/lib/thumb/v7e-m+fp/hard/libc_nano.a(lib_a-abort.o)
                                         0x4f (size before relaxing)
 .comment       0x000000000000009f       0x4f /usr/lib/gcc/arm-none-eabi/8.3.1/../../../arm-none-eabi/lib/thumb/v7e-m+fp/hard/libc_nano.a(lib_a-errno.o)
 .comment       0x000000000000009f       0x4f /usr/lib/gcc/arm-none-eabi/8.3.1/../../../arm-none-eabi/lib/thumb/v7e-m+fp/hard/libc_nano.a(lib_a-fprintf.o)
 .comment       0x000000000000009f       0x4f /usr/lib/gcc/arm-none-eabi/8.3.1/../../../arm-none-eabi/lib/thumb/v7e-m+fp/hard/libc_nano.a(lib_a-getchar.o)
 .comment       0x000000000000009f       0x4f /usr/lib/gcc/arm-none-eabi/8.3.1/../../../arm-none-eabi/lib/thumb/v7e-m+fp/hard/libc_nano.a(lib_a-impure.o)
 .comment       0x000000000000009f       0x4f /usr/lib/gcc/arm-none-eabi/8.3.1/../../../arm-none-eabi/lib/thumb/v7e-m+fp/hard/libc_nano.a(lib_a-init.o)
 .comment       0x000000000000009f       0x4f /usr/lib/gcc/arm-none-eabi/8.3.1/../../../arm-none-eabi/lib/thumb/v7e-m+fp/hard/libc_nano.a(lib_a-malloc.o)
 .comment       0x000000000000009f       0x4f /usr/lib/gcc/arm-none-eabi/8.3.1/../../../arm-none-eabi/lib/thumb/v7e-m+fp/hard/libc_nano.a(lib_a-memcmp.o)
 .comment       0x000000000000009f       0x4f /usr/lib/gcc/arm-none-eabi/8.3.1/../../../arm-none-eabi/lib/thumb/v7e-m+fp/hard/libc_nano.a(lib_a-memset.o)
 .comment       0x000000000000009f       0x4f /usr/lib/gcc/arm-none-eabi/8.3.1/../../../arm-none-eabi/lib/thumb/v7e-m+fp/hard/libc_nano.a(lib_a-nano-freer.o)
 .comment       0x000000000000009f       0x4f /usr/lib/gcc/arm-none-eabi/8.3.1/../../../arm-none-eabi/lib/thumb/v7e-m+fp/hard/libc_nano.a(lib_a-nano-mallocr.o)
 .comment       0x000000000000009f       0x4f /usr/lib/gcc/arm-none-eabi/8.3.1/../../../arm-none-eabi/lib/thumb/v7e-m+fp/hard/libc_nano.a(lib_a-nano-vfprintf.o)
 .comment       0x000000000000009f       0x4f /usr/lib/gcc/arm-none-eabi/8.3.1/../../../arm-none-eabi/lib/thumb/v7e-m+fp/hard/libc_nano.a(lib_a-nano-vfprintf_float.o)
 .comment       0x000000000000009f       0x4f /usr/lib/gcc/arm-none-eabi/8.3.1/../../../arm-none-eabi/lib/thumb/v7e-m+fp/hard/libc_nano.a(lib_a-nano-vfprintf_i.o)
 .comment       0x000000000000009f       0x4f /usr/lib/gcc/arm-none-eabi/8.3.1/../../../arm-none-eabi/lib/thumb/v7e-m+fp/hard/libc_nano.a(lib_a-printf.o)
 .comment       0x000000000000009f       0x4f /usr/lib/gcc/arm-none-eabi/8.3.1/../../../arm-none-eabi/lib/thumb/v7e-m+fp/hard/libc_nano.a(lib_a-putchar.o)
 .comment       0x000000000000009f       0x4f /usr/lib/gcc/arm-none-eabi/8.3.1/../../../arm-none-eabi/lib/thumb/v7e-m+fp/hard/libc_nano.a(lib_a-puts.o)
 .comment       0x000000000000009f       0x4f /usr/lib/gcc/arm-none-eabi/8.3.1/../../../arm-none-eabi/lib/thumb/v7e-m+fp/hard/libc_nano.a(lib_a-sbrkr.o)
 .comment       0x000000000000009f       0x4f /usr/lib/gcc/arm-none-eabi/8.3.1/../../../arm-none-eabi/lib/thumb/v7e-m+fp/hard/libc_nano.a(lib_a-setvbuf.o)
 .comment       0x000000000000009f       0x4f /usr/lib/gcc/arm-none-eabi/8.3.1/../../../arm-none-eabi/lib/thumb/v7e-m+fp/hard/libc_nano.a(lib_a-signal.o)
 .comment       0x000000000000009f       0x4f /usr/lib/gcc/arm-none-eabi/8.3.1/../../../arm-none-eabi/lib/thumb/v7e-m+fp/hard/libc_nano.a(lib_a-signalr.o)
 .comment       0x000000000000009f       0x4f /usr/lib/gcc/arm-none-eabi/8.3.1/../../../arm-none-eabi/lib/thumb/v7e-m+fp/hard/libc_nano.a(lib_a-strncmp.o)
 .comment       0x000000000000009f       0x4f /usr/lib/gcc/arm-none-eabi/8.3.1/../../../arm-none-eabi/lib/thumb/v7e-m+fp/hard/libc_nano.a(lib_a-strncpy.o)
 .comment       0x000000000000009f       0x4f /usr/lib/gcc/arm-none-eabi/8.3.1/../../../arm-none-eabi/lib/thumb/v7e-m+fp/hard/libc_nano.a(lib_a-strtoul.o)
 .comment       0x000000000000009f       0x4f /usr/lib/gcc/arm-none-eabi/8.3.1/../../../arm-none-eabi/lib/thumb/v7e-m+fp/hard/libc_nano.a(lib_a-wbuf.o)
 .comment       0x000000000000009f       0x4f /usr/lib/gcc/arm-none-eabi/8.3.1/../../../arm-none-eabi/lib/thumb/v7e-m+fp/hard/libc_nano.a(lib_a-wsetup.o)
 .comment       0x000000000000009f       0x4f /usr/lib/gcc/arm-none-eabi/8.3.1/../../../arm-none-eabi/lib/thumb/v7e-m+fp/hard/libc_nano.a(lib_a-ctype_.o)
 .comment       0x000000000000009f       0x4f /usr/lib/gcc/arm-none-eabi/8.3.1/../../../arm-none-eabi/lib/thumb/v7e-m+fp/hard/libc_nano.a(lib_a-dtoa.o)
 .comment       0x000000000000009f       0x4f /usr/lib/gcc/arm-none-eabi/8.3.1/../../../arm-none-eabi/lib/thumb/v7e-m+fp/hard/libc_nano.a(lib_a-fflush.o)
 .comment       0x000000000000009f       0x4f /usr/lib/gcc/arm-none-eabi/8.3.1/../../../arm-none-eabi/lib/thumb/v7e-m+fp/hard/libc_nano.a(lib_a-findfp.o)
 .comment       0x000000000000009f       0x4f /usr/lib/gcc/arm-none-eabi/8.3.1/../../../arm-none-eabi/lib/thumb/v7e-m+fp/hard/libc_nano.a(lib_a-fvwrite.o)
 .comment       0x000000000000009f       0x4f /usr/lib/gcc/arm-none-eabi/8.3.1/../../../arm-none-eabi/lib/thumb/v7e-m+fp/hard/libc_nano.a(lib_a-fwalk.o)
 .comment       0x000000000000009f       0x4f /usr/lib/gcc/arm-none-eabi/8.3.1/../../../arm-none-eabi/lib/thumb/v7e-m+fp/hard/libc_nano.a(lib_a-getc.o)
 .comment       0x000000000000009f       0x4f /usr/lib/gcc/arm-none-eabi/8.3.1/../../../arm-none-eabi/lib/thumb/v7e-m+fp/hard/libc_nano.a(lib_a-localeconv.o)
 .comment       0x000000000000009f       0x4f /usr/lib/gcc/arm-none-eabi/8.3.1/../../../arm-none-eabi/lib/thumb/v7e-m+fp/hard/libc_nano.a(lib_a-makebuf.o)
 .comment       0x000000000000009f       0x4f /usr/lib/gcc/arm-none-eabi/8.3.1/../../../arm-none-eabi/lib/thumb/v7e-m+fp/hard/libc_nano.a(lib_a-memmove.o)
 .comment       0x000000000000009f       0x4f /usr/lib/gcc/arm-none-eabi/8.3.1/../../../arm-none-eabi/lib/thumb/v7e-m+fp/hard/libc_nano.a(lib_a-mlock.o)
 .comment       0x000000000000009f       0x4f /usr/lib/gcc/arm-none-eabi/8.3.1/../../../arm-none-eabi/lib/thumb/v7e-m+fp/hard/libc_nano.a(lib_a-mprec.o)
 .comment       0x000000000000009f       0x4f /usr/lib/gcc/arm-none-eabi/8.3.1/../../../arm-none-eabi/lib/thumb/v7e-m+fp/hard/libc_nano.a(lib_a-nano-callocr.o)
 .comment       0x000000000000009f       0x4f /usr/lib/gcc/arm-none-eabi/8.3.1/../../../arm-none-eabi/lib/thumb/v7e-m+fp/hard/libc_nano.a(lib_a-nano-reallocr.o)
 .comment       0x000000000000009f       0x4f /usr/lib/gcc/arm-none-eabi/8.3.1/../../../arm-none-eabi/lib/thumb/v7e-m+fp/hard/libc_nano.a(lib_a-putc.o)
 .comment       0x000000000000009f       0x4f /usr/lib/gcc/arm-none-eabi/8.3.1/../../../arm-none-eabi/lib/thumb/v7e-m+fp/hard/libc_nano.a(lib_a-reent.o)
 .comment       0x000000000000009f       0x4f /usr/lib/gcc/arm-none-eabi/8.3.1/../../../arm-none-eabi/lib/thumb/v7e-m+fp/hard/libc_nano.a(lib_a-rget.o)
 .comment       0x000000000000009f       0x4f /usr/lib/gcc/arm-none-eabi/8.3.1/../../../arm-none-eabi/lib/thumb/v7e-m+fp/hard/libc_nano.a(lib_a-stdio.o)
 .comment       0x000000000000009f       0x4f /usr/lib/gcc/arm-none-eabi/8.3.1/../../../arm-none-eabi/lib/thumb/v7e-m+fp/hard/libc_nano.a(lib_a-writer.o)
 .comment       0x000000000000009f       0x4f /usr/lib/gcc/arm-none-eabi/8.3.1/../../../arm-none-eabi/lib/thumb/v7e-m+fp/hard/libc_nano.a(lib_a-assert.o)
 .comment       0x000000000000009f       0x4f /usr/lib/gcc/arm-none-eabi/8.3.1/../../../arm-none-eabi/lib/thumb/v7e-m+fp/hard/libc_nano.a(lib_a-closer.o)
 .comment       0x000000000000009f       0x4f /usr/lib/gcc/arm-none-eabi/8.3.1/../../../arm-none-eabi/lib/thumb/v7e-m+fp/hard/libc_nano.a(lib_a-fstatr.o)
 .comment       0x000000000000009f       0x4f /usr/lib/gcc/arm-none-eabi/8.3.1/../../../arm-none-eabi/lib/thumb/v7e-m+fp/hard/libc_nano.a(lib_a-isattyr.o)
 .comment       0x000000000000009f       0x4f /usr/lib/gcc/arm-none-eabi/8.3.1/../../../arm-none-eabi/lib/thumb/v7e-m+fp/hard/libc_nano.a(lib_a-locale.o)
 .comment       0x000000000000009f       0x4f /usr/lib/gcc/arm-none-eabi/8.3.1/../../../arm-none-eabi/lib/thumb/v7e-m+fp/hard/libc_nano.a(lib_a-lseekr.o)
 .comment       0x000000000000009f       0x4f /usr/lib/gcc/arm-none-eabi/8.3.1/../../../arm-none-eabi/lib/thumb/v7e-m+fp/hard/libc_nano.a(lib_a-mbtowc_r.o)
 .comment       0x000000000000009f       0x4f /usr/lib/gcc/arm-none-eabi/8.3.1/../../../arm-none-eabi/lib/thumb/v7e-m+fp/hard/libc_nano.a(lib_a-nano-msizer.o)
 .comment       0x000000000000009f       0x4f /usr/lib/gcc/arm-none-eabi/8.3.1/../../../arm-none-eabi/lib/thumb/v7e-m+fp/hard/libc_nano.a(lib_a-readr.o)
 .comment       0x000000000000009f       0x4f /usr/lib/gcc/arm-none-eabi/8.3.1/../../../arm-none-eabi/lib/thumb/v7e-m+fp/hard/libc_nano.a(lib_a-refill.o)
 .comment       0x000000000000009f       0x4f /usr/lib/gcc/arm-none-eabi/8.3.1/../../../arm-none-eabi/lib/thumb/v7e-m+fp/hard/libc_nano.a(lib_a-wctomb_r.o)
 .comment       0x000000000000009f       0x4f /usr/lib/gcc/arm-none-eabi/8.3.1/../../../arm-none-eabi/lib/thumb/v7e-m+fp/hard/libnosys.a(getpid.o)
 .comment       0x000000000000009f       0x4f /usr/lib/gcc/arm-none-eabi/8.3.1/../../../arm-none-eabi/lib/thumb/v7e-m+fp/hard/libnosys.a(kill.o)
 .comment       0x000000000000009f       0x4f /usr/lib/gcc/arm-none-eabi/8.3.1/../../../arm-none-eabi/lib/thumb/v7e-m+fp/hard/libnosys.a(sbrk.o)
 .comment       0x000000000000009f       0x4f /usr/lib/gcc/arm-none-eabi/8.3.1/../../../arm-none-eabi/lib/thumb/v7e-m+fp/hard/libnosys.a(_exit.o)
 .comment       0x000000000000009f       0x52 /usr/lib/gcc/arm-none-eabi/8.3.1/thumb/v7e-m+fp/hard/libgcc.a(_udivmoddi4.o)
 .comment       0x000000000000009f       0x52 /usr/lib/gcc/arm-none-eabi/8.3.1/thumb/v7e-m+fp/hard/crtend.o

.debug_info     0x0000000000000000    0x6d68a
 .debug_info    0x0000000000000000     0x2cde build/run.o
 .debug_info    0x0000000000002cde     0x19a1 build/retarget.o
 .debug_info    0x000000000000467f     0x3609 build/main.o
 .debug_info    0x0000000000007c88     0x1857 build/encrypt.o
 .debug_info    0x00000000000094df     0x197a build/sha256.o
 .debug_info    0x000000000000ae59     0x129f build/aes.o
 .debug_info    0x000000000000c0f8      0xeed build/stm32wbxx_it.o
 .debug_info    0x000000000000cfe5     0x1350 build/stm32wbxx_hal_msp.o
 .debug_info    0x000000000000e335     0x1274 build/stm32wbxx_hal_timebase_tim.o
 .debug_info    0x000000000000f5a9     0x27e3 build/stm32wbxx_hal_rcc.o
 .debug_info    0x0000000000011d8c     0x36ea build/stm32wbxx_hal_rcc_ex.o
 .debug_info    0x0000000000015476      0x987 build/stm32wbxx_hal_gpio.o
 .debug_info    0x0000000000015dfd      0xc74 build/stm32wbxx_hal_dma.o
 .debug_info    0x0000000000016a71      0xcf7 build/stm32wbxx_hal_pwr.o
 .debug_info    0x0000000000017768     0x17a9 build/stm32wbxx_hal_pwr_ex.o
 .debug_info    0x0000000000018f11     0x1244 build/stm32wbxx_hal_cortex.o
 .debug_info    0x000000000001a155     0x1aa2 build/stm32wbxx_hal.o
 .debug_info    0x000000000001bbf7     0x6ea1 build/stm32wbxx_hal_uart.o
 .debug_info    0x0000000000022a98     0x1548 build/stm32wbxx_hal_uart_ex.o
 .debug_info    0x0000000000023fe0     0x42bd build/stm32wbxx_hal_tim.o
 .debug_info    0x000000000002829d     0x21b4 build/stm32wbxx_hal_tim_ex.o
 .debug_info    0x000000000002a451      0x95e build/system_stm32wbxx.o
 .debug_info    0x000000000002adaf      0xc8c build/list.o
 .debug_info    0x000000000002ba3b     0x34ab build/queue.o
 .debug_info    0x000000000002eee6     0x3e76 build/tasks.o
 .debug_info    0x0000000000032d5c     0x25df build/timers.o
 .debug_info    0x000000000003533b     0x5b4e build/cmsis_os2.o
 .debug_info    0x000000000003ae89      0xfdc build/heap_4.o
 .debug_info    0x000000000003be65      0x628 build/port.o
 .debug_info    0x000000000003c48d       0x22 build/startup_stm32wb55xx_cm4.o
 .debug_info    0x000000000003c4af      0x9b5 /usr/lib/gcc/arm-none-eabi/8.3.1/../../../arm-none-eabi/lib/thumb/v7e-m+fp/hard/libc_nano.a(lib_a-abort.o)
 .debug_info    0x000000000003ce64      0x953 /usr/lib/gcc/arm-none-eabi/8.3.1/../../../arm-none-eabi/lib/thumb/v7e-m+fp/hard/libc_nano.a(lib_a-errno.o)
 .debug_info    0x000000000003d7b7      0xa7a /usr/lib/gcc/arm-none-eabi/8.3.1/../../../arm-none-eabi/lib/thumb/v7e-m+fp/hard/libc_nano.a(lib_a-fprintf.o)
 .debug_info    0x000000000003e231      0xbc9 /usr/lib/gcc/arm-none-eabi/8.3.1/../../../arm-none-eabi/lib/thumb/v7e-m+fp/hard/libc_nano.a(lib_a-getchar.o)
 .debug_info    0x000000000003edfa      0x92a /usr/lib/gcc/arm-none-eabi/8.3.1/../../../arm-none-eabi/lib/thumb/v7e-m+fp/hard/libc_nano.a(lib_a-impure.o)
 .debug_info    0x000000000003f724      0x11a /usr/lib/gcc/arm-none-eabi/8.3.1/../../../arm-none-eabi/lib/thumb/v7e-m+fp/hard/libc_nano.a(lib_a-init.o)
 .debug_info    0x000000000003f83e      0x9b6 /usr/lib/gcc/arm-none-eabi/8.3.1/../../../arm-none-eabi/lib/thumb/v7e-m+fp/hard/libc_nano.a(lib_a-malloc.o)
 .debug_info    0x00000000000401f4       0x26 /usr/lib/gcc/arm-none-eabi/8.3.1/../../../arm-none-eabi/lib/thumb/v7e-m+fp/hard/libc_nano.a(lib_a-memchr.o)
 .debug_info    0x000000000004021a      0x9c2 /usr/lib/gcc/arm-none-eabi/8.3.1/../../../arm-none-eabi/lib/thumb/v7e-m+fp/hard/libc_nano.a(lib_a-memcmp.o)
 .debug_info    0x0000000000040bdc       0x26 /usr/lib/gcc/arm-none-eabi/8.3.1/../../../arm-none-eabi/lib/thumb/v7e-m+fp/hard/libc_nano.a(lib_a-memcpy.o)
 .debug_info    0x0000000000040c02      0xf21 /usr/lib/gcc/arm-none-eabi/8.3.1/../../../arm-none-eabi/lib/thumb/v7e-m+fp/hard/libc_nano.a(lib_a-memset.o)
 .debug_info    0x0000000000041b23      0xb85 /usr/lib/gcc/arm-none-eabi/8.3.1/../../../arm-none-eabi/lib/thumb/v7e-m+fp/hard/libc_nano.a(lib_a-nano-freer.o)
 .debug_info    0x00000000000426a8      0xc5a /usr/lib/gcc/arm-none-eabi/8.3.1/../../../arm-none-eabi/lib/thumb/v7e-m+fp/hard/libc_nano.a(lib_a-nano-mallocr.o)
 .debug_info    0x0000000000043302     0x176a /usr/lib/gcc/arm-none-eabi/8.3.1/../../../arm-none-eabi/lib/thumb/v7e-m+fp/hard/libc_nano.a(lib_a-nano-vfprintf.o)
 .debug_info    0x0000000000044a6c     0x1b1f /usr/lib/gcc/arm-none-eabi/8.3.1/../../../arm-none-eabi/lib/thumb/v7e-m+fp/hard/libc_nano.a(lib_a-nano-vfprintf_float.o)
 .debug_info    0x000000000004658b     0x1592 /usr/lib/gcc/arm-none-eabi/8.3.1/../../../arm-none-eabi/lib/thumb/v7e-m+fp/hard/libc_nano.a(lib_a-nano-vfprintf_i.o)
 .debug_info    0x0000000000047b1d      0xc67 /usr/lib/gcc/arm-none-eabi/8.3.1/../../../arm-none-eabi/lib/thumb/v7e-m+fp/hard/libc_nano.a(lib_a-printf.o)
 .debug_info    0x0000000000048784      0xbf0 /usr/lib/gcc/arm-none-eabi/8.3.1/../../../arm-none-eabi/lib/thumb/v7e-m+fp/hard/libc_nano.a(lib_a-putchar.o)
 .debug_info    0x0000000000049374      0xd13 /usr/lib/gcc/arm-none-eabi/8.3.1/../../../arm-none-eabi/lib/thumb/v7e-m+fp/hard/libc_nano.a(lib_a-puts.o)
 .debug_info    0x000000000004a087      0x9fb /usr/lib/gcc/arm-none-eabi/8.3.1/../../../arm-none-eabi/lib/thumb/v7e-m+fp/hard/libc_nano.a(lib_a-sbrkr.o)
 .debug_info    0x000000000004aa82      0xce2 /usr/lib/gcc/arm-none-eabi/8.3.1/../../../arm-none-eabi/lib/thumb/v7e-m+fp/hard/libc_nano.a(lib_a-setvbuf.o)
 .debug_info    0x000000000004b764      0xd5c /usr/lib/gcc/arm-none-eabi/8.3.1/../../../arm-none-eabi/lib/thumb/v7e-m+fp/hard/libc_nano.a(lib_a-signal.o)
 .debug_info    0x000000000004c4c0      0xa44 /usr/lib/gcc/arm-none-eabi/8.3.1/../../../arm-none-eabi/lib/thumb/v7e-m+fp/hard/libc_nano.a(lib_a-signalr.o)
 .debug_info    0x000000000004cf04       0x26 /usr/lib/gcc/arm-none-eabi/8.3.1/../../../arm-none-eabi/lib/thumb/v7e-m+fp/hard/libc_nano.a(lib_a-strlen.o)
 .debug_info    0x000000000004cf2a      0x995 /usr/lib/gcc/arm-none-eabi/8.3.1/../../../arm-none-eabi/lib/thumb/v7e-m+fp/hard/libc_nano.a(lib_a-strncmp.o)
 .debug_info    0x000000000004d8bf      0x9d2 /usr/lib/gcc/arm-none-eabi/8.3.1/../../../arm-none-eabi/lib/thumb/v7e-m+fp/hard/libc_nano.a(lib_a-strncpy.o)
 .debug_info    0x000000000004e291     0x11df /usr/lib/gcc/arm-none-eabi/8.3.1/../../../arm-none-eabi/lib/thumb/v7e-m+fp/hard/libc_nano.a(lib_a-strtoul.o)
 .debug_info    0x000000000004f470      0xc90 /usr/lib/gcc/arm-none-eabi/8.3.1/../../../arm-none-eabi/lib/thumb/v7e-m+fp/hard/libc_nano.a(lib_a-wbuf.o)
 .debug_info    0x0000000000050100      0xbfa /usr/lib/gcc/arm-none-eabi/8.3.1/../../../arm-none-eabi/lib/thumb/v7e-m+fp/hard/libc_nano.a(lib_a-wsetup.o)
 .debug_info    0x0000000000050cfa      0xe91 /usr/lib/gcc/arm-none-eabi/8.3.1/../../../arm-none-eabi/lib/thumb/v7e-m+fp/hard/libc_nano.a(lib_a-ctype_.o)
 .debug_info    0x0000000000051b8b     0x1b48 /usr/lib/gcc/arm-none-eabi/8.3.1/../../../arm-none-eabi/lib/thumb/v7e-m+fp/hard/libc_nano.a(lib_a-dtoa.o)
 .debug_info    0x00000000000536d3      0xd73 /usr/lib/gcc/arm-none-eabi/8.3.1/../../../arm-none-eabi/lib/thumb/v7e-m+fp/hard/libc_nano.a(lib_a-fflush.o)
 .debug_info    0x0000000000054446     0x11a8 /usr/lib/gcc/arm-none-eabi/8.3.1/../../../arm-none-eabi/lib/thumb/v7e-m+fp/hard/libc_nano.a(lib_a-findfp.o)
 .debug_info    0x00000000000555ee      0xeed /usr/lib/gcc/arm-none-eabi/8.3.1/../../../arm-none-eabi/lib/thumb/v7e-m+fp/hard/libc_nano.a(lib_a-fvwrite.o)
 .debug_info    0x00000000000564db      0xca4 /usr/lib/gcc/arm-none-eabi/8.3.1/../../../arm-none-eabi/lib/thumb/v7e-m+fp/hard/libc_nano.a(lib_a-fwalk.o)
 .debug_info    0x000000000005717f      0xc43 /usr/lib/gcc/arm-none-eabi/8.3.1/../../../arm-none-eabi/lib/thumb/v7e-m+fp/hard/libc_nano.a(lib_a-getc.o)
 .debug_info    0x0000000000057dc2      0xf49 /usr/lib/gcc/arm-none-eabi/8.3.1/../../../arm-none-eabi/lib/thumb/v7e-m+fp/hard/libc_nano.a(lib_a-localeconv.o)
 .debug_info    0x0000000000058d0b      0xf68 /usr/lib/gcc/arm-none-eabi/8.3.1/../../../arm-none-eabi/lib/thumb/v7e-m+fp/hard/libc_nano.a(lib_a-makebuf.o)
 .debug_info    0x0000000000059c73      0xf2b /usr/lib/gcc/arm-none-eabi/8.3.1/../../../arm-none-eabi/lib/thumb/v7e-m+fp/hard/libc_nano.a(lib_a-memmove.o)
 .debug_info    0x000000000005ab9e      0x961 /usr/lib/gcc/arm-none-eabi/8.3.1/../../../arm-none-eabi/lib/thumb/v7e-m+fp/hard/libc_nano.a(lib_a-mlock.o)
 .debug_info    0x000000000005b4ff     0x2417 /usr/lib/gcc/arm-none-eabi/8.3.1/../../../arm-none-eabi/lib/thumb/v7e-m+fp/hard/libc_nano.a(lib_a-mprec.o)
 .debug_info    0x000000000005d916      0xafe /usr/lib/gcc/arm-none-eabi/8.3.1/../../../arm-none-eabi/lib/thumb/v7e-m+fp/hard/libc_nano.a(lib_a-nano-callocr.o)
 .debug_info    0x000000000005e414      0xb77 /usr/lib/gcc/arm-none-eabi/8.3.1/../../../arm-none-eabi/lib/thumb/v7e-m+fp/hard/libc_nano.a(lib_a-nano-reallocr.o)
 .debug_info    0x000000000005ef8b      0xd09 /usr/lib/gcc/arm-none-eabi/8.3.1/../../../arm-none-eabi/lib/thumb/v7e-m+fp/hard/libc_nano.a(lib_a-putc.o)
 .debug_info    0x000000000005fc94      0xb0f /usr/lib/gcc/arm-none-eabi/8.3.1/../../../arm-none-eabi/lib/thumb/v7e-m+fp/hard/libc_nano.a(lib_a-reent.o)
 .debug_info    0x00000000000607a3      0xc12 /usr/lib/gcc/arm-none-eabi/8.3.1/../../../arm-none-eabi/lib/thumb/v7e-m+fp/hard/libc_nano.a(lib_a-rget.o)
 .debug_info    0x00000000000613b5      0xe67 /usr/lib/gcc/arm-none-eabi/8.3.1/../../../arm-none-eabi/lib/thumb/v7e-m+fp/hard/libc_nano.a(lib_a-stdio.o)
 .debug_info    0x000000000006221c      0xa2c /usr/lib/gcc/arm-none-eabi/8.3.1/../../../arm-none-eabi/lib/thumb/v7e-m+fp/hard/libc_nano.a(lib_a-writer.o)
 .debug_info    0x0000000000062c48      0xa41 /usr/lib/gcc/arm-none-eabi/8.3.1/../../../arm-none-eabi/lib/thumb/v7e-m+fp/hard/libc_nano.a(lib_a-assert.o)
 .debug_info    0x0000000000063689      0x9d8 /usr/lib/gcc/arm-none-eabi/8.3.1/../../../arm-none-eabi/lib/thumb/v7e-m+fp/hard/libc_nano.a(lib_a-closer.o)
 .debug_info    0x0000000000064061      0xc24 /usr/lib/gcc/arm-none-eabi/8.3.1/../../../arm-none-eabi/lib/thumb/v7e-m+fp/hard/libc_nano.a(lib_a-fstatr.o)
 .debug_info    0x0000000000064c85      0x9d8 /usr/lib/gcc/arm-none-eabi/8.3.1/../../../arm-none-eabi/lib/thumb/v7e-m+fp/hard/libc_nano.a(lib_a-isattyr.o)
 .debug_info    0x000000000006565d     0x10ca /usr/lib/gcc/arm-none-eabi/8.3.1/../../../arm-none-eabi/lib/thumb/v7e-m+fp/hard/libc_nano.a(lib_a-locale.o)
 .debug_info    0x0000000000066727      0xa0d /usr/lib/gcc/arm-none-eabi/8.3.1/../../../arm-none-eabi/lib/thumb/v7e-m+fp/hard/libc_nano.a(lib_a-lseekr.o)
 .debug_info    0x0000000000067134     0x1044 /usr/lib/gcc/arm-none-eabi/8.3.1/../../../arm-none-eabi/lib/thumb/v7e-m+fp/hard/libc_nano.a(lib_a-mbtowc_r.o)
 .debug_info    0x0000000000068178      0xaa6 /usr/lib/gcc/arm-none-eabi/8.3.1/../../../arm-none-eabi/lib/thumb/v7e-m+fp/hard/libc_nano.a(lib_a-nano-msizer.o)
 .debug_info    0x0000000000068c1e      0xa25 /usr/lib/gcc/arm-none-eabi/8.3.1/../../../arm-none-eabi/lib/thumb/v7e-m+fp/hard/libc_nano.a(lib_a-readr.o)
 .debug_info    0x0000000000069643      0xcd8 /usr/lib/gcc/arm-none-eabi/8.3.1/../../../arm-none-eabi/lib/thumb/v7e-m+fp/hard/libc_nano.a(lib_a-refill.o)
 .debug_info    0x000000000006a31b      0xffd /usr/lib/gcc/arm-none-eabi/8.3.1/../../../arm-none-eabi/lib/thumb/v7e-m+fp/hard/libc_nano.a(lib_a-wctomb_r.o)
 .debug_info    0x000000000006b318      0x959 /usr/lib/gcc/arm-none-eabi/8.3.1/../../../arm-none-eabi/lib/thumb/v7e-m+fp/hard/libnosys.a(getpid.o)
 .debug_info    0x000000000006bc71      0x97c /usr/lib/gcc/arm-none-eabi/8.3.1/../../../arm-none-eabi/lib/thumb/v7e-m+fp/hard/libnosys.a(kill.o)
 .debug_info    0x000000000006c5ed       0x9d /usr/lib/gcc/arm-none-eabi/8.3.1/../../../arm-none-eabi/lib/thumb/v7e-m+fp/hard/libnosys.a(sbrk.o)
 .debug_info    0x000000000006c68a       0xa3 /usr/lib/gcc/arm-none-eabi/8.3.1/../../../arm-none-eabi/lib/thumb/v7e-m+fp/hard/libnosys.a(_exit.o)
 .debug_info    0x000000000006c72d       0x26 /usr/lib/gcc/arm-none-eabi/8.3.1/thumb/v7e-m+fp/hard/libgcc.a(_arm_addsubdf3.o)
 .debug_info    0x000000000006c753       0x26 /usr/lib/gcc/arm-none-eabi/8.3.1/thumb/v7e-m+fp/hard/libgcc.a(_arm_muldivdf3.o)
 .debug_info    0x000000000006c779       0x26 /usr/lib/gcc/arm-none-eabi/8.3.1/thumb/v7e-m+fp/hard/libgcc.a(_arm_cmpdf2.o)
 .debug_info    0x000000000006c79f       0x26 /usr/lib/gcc/arm-none-eabi/8.3.1/thumb/v7e-m+fp/hard/libgcc.a(_arm_unorddf2.o)
 .debug_info    0x000000000006c7c5       0x26 /usr/lib/gcc/arm-none-eabi/8.3.1/thumb/v7e-m+fp/hard/libgcc.a(_arm_fixdfsi.o)
 .debug_info    0x000000000006c7eb       0x26 /usr/lib/gcc/arm-none-eabi/8.3.1/thumb/v7e-m+fp/hard/libgcc.a(_aeabi_uldivmod.o)
 .debug_info    0x000000000006c811      0xe53 /usr/lib/gcc/arm-none-eabi/8.3.1/thumb/v7e-m+fp/hard/libgcc.a(_udivmoddi4.o)
 .debug_info    0x000000000006d664       0x26 /usr/lib/gcc/arm-none-eabi/8.3.1/thumb/v7e-m+fp/hard/libgcc.a(_dvmd_tls.o)

.debug_abbrev   0x0000000000000000     0xe480
 .debug_abbrev  0x0000000000000000      0x3b5 build/run.o
 .debug_abbrev  0x00000000000003b5      0x2e5 build/retarget.o
 .debug_abbrev  0x000000000000069a      0x461 build/main.o
 .debug_abbrev  0x0000000000000afb      0x2d9 build/encrypt.o
 .debug_abbrev  0x0000000000000dd4      0x301 build/sha256.o
 .debug_abbrev  0x00000000000010d5      0x2a4 build/aes.o
 .debug_abbrev  0x0000000000001379      0x196 build/stm32wbxx_it.o
 .debug_abbrev  0x000000000000150f      0x237 build/stm32wbxx_hal_msp.o
 .debug_abbrev  0x0000000000001746      0x287 build/stm32wbxx_hal_timebase_tim.o
 .debug_abbrev  0x00000000000019cd      0x350 build/stm32wbxx_hal_rcc.o
 .debug_abbrev  0x0000000000001d1d      0x43b build/stm32wbxx_hal_rcc_ex.o
 .debug_abbrev  0x0000000000002158      0x244 build/stm32wbxx_hal_gpio.o
 .debug_abbrev  0x000000000000239c      0x290 build/stm32wbxx_hal_dma.o
 .debug_abbrev  0x000000000000262c      0x239 build/stm32wbxx_hal_pwr.o
 .debug_abbrev  0x0000000000002865      0x376 build/stm32wbxx_hal_pwr_ex.o
 .debug_abbrev  0x0000000000002bdb      0x3aa build/stm32wbxx_hal_cortex.o
 .debug_abbrev  0x0000000000002f85      0x392 build/stm32wbxx_hal.o
 .debug_abbrev  0x0000000000003317      0x360 build/stm32wbxx_hal_uart.o
 .debug_abbrev  0x0000000000003677      0x32e build/stm32wbxx_hal_uart_ex.o
 .debug_abbrev  0x00000000000039a5      0x2af build/stm32wbxx_hal_tim.o
 .debug_abbrev  0x0000000000003c54      0x2ab build/stm32wbxx_hal_tim_ex.o
 .debug_abbrev  0x0000000000003eff      0x179 build/system_stm32wbxx.o
 .debug_abbrev  0x0000000000004078      0x245 build/list.o
 .debug_abbrev  0x00000000000042bd      0x44c build/queue.o
 .debug_abbrev  0x0000000000004709      0x46d build/tasks.o
 .debug_abbrev  0x0000000000004b76      0x3e4 build/timers.o
 .debug_abbrev  0x0000000000004f5a      0x5c7 build/cmsis_os2.o
 .debug_abbrev  0x0000000000005521      0x38a build/heap_4.o
 .debug_abbrev  0x00000000000058ab      0x293 build/port.o
 .debug_abbrev  0x0000000000005b3e       0x12 build/startup_stm32wb55xx_cm4.o
 .debug_abbrev  0x0000000000005b50      0x1cd /usr/lib/gcc/arm-none-eabi/8.3.1/../../../arm-none-eabi/lib/thumb/v7e-m+fp/hard/libc_nano.a(lib_a-abort.o)
 .debug_abbrev  0x0000000000005d1d      0x198 /usr/lib/gcc/arm-none-eabi/8.3.1/../../../arm-none-eabi/lib/thumb/v7e-m+fp/hard/libc_nano.a(lib_a-errno.o)
 .debug_abbrev  0x0000000000005eb5      0x23c /usr/lib/gcc/arm-none-eabi/8.3.1/../../../arm-none-eabi/lib/thumb/v7e-m+fp/hard/libc_nano.a(lib_a-fprintf.o)
 .debug_abbrev  0x00000000000060f1      0x276 /usr/lib/gcc/arm-none-eabi/8.3.1/../../../arm-none-eabi/lib/thumb/v7e-m+fp/hard/libc_nano.a(lib_a-getchar.o)
 .debug_abbrev  0x0000000000006367      0x17a /usr/lib/gcc/arm-none-eabi/8.3.1/../../../arm-none-eabi/lib/thumb/v7e-m+fp/hard/libc_nano.a(lib_a-impure.o)
 .debug_abbrev  0x00000000000064e1       0xcc /usr/lib/gcc/arm-none-eabi/8.3.1/../../../arm-none-eabi/lib/thumb/v7e-m+fp/hard/libc_nano.a(lib_a-init.o)
 .debug_abbrev  0x00000000000065ad      0x1f2 /usr/lib/gcc/arm-none-eabi/8.3.1/../../../arm-none-eabi/lib/thumb/v7e-m+fp/hard/libc_nano.a(lib_a-malloc.o)
 .debug_abbrev  0x000000000000679f       0x14 /usr/lib/gcc/arm-none-eabi/8.3.1/../../../arm-none-eabi/lib/thumb/v7e-m+fp/hard/libc_nano.a(lib_a-memchr.o)
 .debug_abbrev  0x00000000000067b3      0x1af /usr/lib/gcc/arm-none-eabi/8.3.1/../../../arm-none-eabi/lib/thumb/v7e-m+fp/hard/libc_nano.a(lib_a-memcmp.o)
 .debug_abbrev  0x0000000000006962       0x14 /usr/lib/gcc/arm-none-eabi/8.3.1/../../../arm-none-eabi/lib/thumb/v7e-m+fp/hard/libc_nano.a(lib_a-memcpy.o)
 .debug_abbrev  0x0000000000006976      0x1d9 /usr/lib/gcc/arm-none-eabi/8.3.1/../../../arm-none-eabi/lib/thumb/v7e-m+fp/hard/libc_nano.a(lib_a-memset.o)
 .debug_abbrev  0x0000000000006b4f      0x286 /usr/lib/gcc/arm-none-eabi/8.3.1/../../../arm-none-eabi/lib/thumb/v7e-m+fp/hard/libc_nano.a(lib_a-nano-freer.o)
 .debug_abbrev  0x0000000000006dd5      0x2d1 /usr/lib/gcc/arm-none-eabi/8.3.1/../../../arm-none-eabi/lib/thumb/v7e-m+fp/hard/libc_nano.a(lib_a-nano-mallocr.o)
 .debug_abbrev  0x00000000000070a6      0x337 /usr/lib/gcc/arm-none-eabi/8.3.1/../../../arm-none-eabi/lib/thumb/v7e-m+fp/hard/libc_nano.a(lib_a-nano-vfprintf.o)
 .debug_abbrev  0x00000000000073dd      0x351 /usr/lib/gcc/arm-none-eabi/8.3.1/../../../arm-none-eabi/lib/thumb/v7e-m+fp/hard/libc_nano.a(lib_a-nano-vfprintf_float.o)
 .debug_abbrev  0x000000000000772e      0x2dc /usr/lib/gcc/arm-none-eabi/8.3.1/../../../arm-none-eabi/lib/thumb/v7e-m+fp/hard/libc_nano.a(lib_a-nano-vfprintf_i.o)
 .debug_abbrev  0x0000000000007a0a      0x29f /usr/lib/gcc/arm-none-eabi/8.3.1/../../../arm-none-eabi/lib/thumb/v7e-m+fp/hard/libc_nano.a(lib_a-printf.o)
 .debug_abbrev  0x0000000000007ca9      0x268 /usr/lib/gcc/arm-none-eabi/8.3.1/../../../arm-none-eabi/lib/thumb/v7e-m+fp/hard/libc_nano.a(lib_a-putchar.o)
 .debug_abbrev  0x0000000000007f11      0x2de /usr/lib/gcc/arm-none-eabi/8.3.1/../../../arm-none-eabi/lib/thumb/v7e-m+fp/hard/libc_nano.a(lib_a-puts.o)
 .debug_abbrev  0x00000000000081ef      0x212 /usr/lib/gcc/arm-none-eabi/8.3.1/../../../arm-none-eabi/lib/thumb/v7e-m+fp/hard/libc_nano.a(lib_a-sbrkr.o)
 .debug_abbrev  0x0000000000008401      0x27d /usr/lib/gcc/arm-none-eabi/8.3.1/../../../arm-none-eabi/lib/thumb/v7e-m+fp/hard/libc_nano.a(lib_a-setvbuf.o)
 .debug_abbrev  0x000000000000867e      0x32d /usr/lib/gcc/arm-none-eabi/8.3.1/../../../arm-none-eabi/lib/thumb/v7e-m+fp/hard/libc_nano.a(lib_a-signal.o)
 .debug_abbrev  0x00000000000089ab      0x217 /usr/lib/gcc/arm-none-eabi/8.3.1/../../../arm-none-eabi/lib/thumb/v7e-m+fp/hard/libc_nano.a(lib_a-signalr.o)
 .debug_abbrev  0x0000000000008bc2       0x14 /usr/lib/gcc/arm-none-eabi/8.3.1/../../../arm-none-eabi/lib/thumb/v7e-m+fp/hard/libc_nano.a(lib_a-strlen.o)
 .debug_abbrev  0x0000000000008bd6      0x1aa /usr/lib/gcc/arm-none-eabi/8.3.1/../../../arm-none-eabi/lib/thumb/v7e-m+fp/hard/libc_nano.a(lib_a-strncmp.o)
 .debug_abbrev  0x0000000000008d80      0x1d6 /usr/lib/gcc/arm-none-eabi/8.3.1/../../../arm-none-eabi/lib/thumb/v7e-m+fp/hard/libc_nano.a(lib_a-strncpy.o)
 .debug_abbrev  0x0000000000008f56      0x2a6 /usr/lib/gcc/arm-none-eabi/8.3.1/../../../arm-none-eabi/lib/thumb/v7e-m+fp/hard/libc_nano.a(lib_a-strtoul.o)
 .debug_abbrev  0x00000000000091fc      0x285 /usr/lib/gcc/arm-none-eabi/8.3.1/../../../arm-none-eabi/lib/thumb/v7e-m+fp/hard/libc_nano.a(lib_a-wbuf.o)
 .debug_abbrev  0x0000000000009481      0x23a /usr/lib/gcc/arm-none-eabi/8.3.1/../../../arm-none-eabi/lib/thumb/v7e-m+fp/hard/libc_nano.a(lib_a-wsetup.o)
 .debug_abbrev  0x00000000000096bb      0x178 /usr/lib/gcc/arm-none-eabi/8.3.1/../../../arm-none-eabi/lib/thumb/v7e-m+fp/hard/libc_nano.a(lib_a-ctype_.o)
 .debug_abbrev  0x0000000000009833      0x310 /usr/lib/gcc/arm-none-eabi/8.3.1/../../../arm-none-eabi/lib/thumb/v7e-m+fp/hard/libc_nano.a(lib_a-dtoa.o)
 .debug_abbrev  0x0000000000009b43      0x2e4 /usr/lib/gcc/arm-none-eabi/8.3.1/../../../arm-none-eabi/lib/thumb/v7e-m+fp/hard/libc_nano.a(lib_a-fflush.o)
 .debug_abbrev  0x0000000000009e27      0x3dc /usr/lib/gcc/arm-none-eabi/8.3.1/../../../arm-none-eabi/lib/thumb/v7e-m+fp/hard/libc_nano.a(lib_a-findfp.o)
 .debug_abbrev  0x000000000000a203      0x270 /usr/lib/gcc/arm-none-eabi/8.3.1/../../../arm-none-eabi/lib/thumb/v7e-m+fp/hard/libc_nano.a(lib_a-fvwrite.o)
 .debug_abbrev  0x000000000000a473      0x210 /usr/lib/gcc/arm-none-eabi/8.3.1/../../../arm-none-eabi/lib/thumb/v7e-m+fp/hard/libc_nano.a(lib_a-fwalk.o)
 .debug_abbrev  0x000000000000a683      0x26d /usr/lib/gcc/arm-none-eabi/8.3.1/../../../arm-none-eabi/lib/thumb/v7e-m+fp/hard/libc_nano.a(lib_a-getc.o)
 .debug_abbrev  0x000000000000a8f0      0x23f /usr/lib/gcc/arm-none-eabi/8.3.1/../../../arm-none-eabi/lib/thumb/v7e-m+fp/hard/libc_nano.a(lib_a-localeconv.o)
 .debug_abbrev  0x000000000000ab2f      0x2f6 /usr/lib/gcc/arm-none-eabi/8.3.1/../../../arm-none-eabi/lib/thumb/v7e-m+fp/hard/libc_nano.a(lib_a-makebuf.o)
 .debug_abbrev  0x000000000000ae25      0x1de /usr/lib/gcc/arm-none-eabi/8.3.1/../../../arm-none-eabi/lib/thumb/v7e-m+fp/hard/libc_nano.a(lib_a-memmove.o)
 .debug_abbrev  0x000000000000b003      0x1c5 /usr/lib/gcc/arm-none-eabi/8.3.1/../../../arm-none-eabi/lib/thumb/v7e-m+fp/hard/libc_nano.a(lib_a-mlock.o)
 .debug_abbrev  0x000000000000b1c8      0x474 /usr/lib/gcc/arm-none-eabi/8.3.1/../../../arm-none-eabi/lib/thumb/v7e-m+fp/hard/libc_nano.a(lib_a-mprec.o)
 .debug_abbrev  0x000000000000b63c      0x20d /usr/lib/gcc/arm-none-eabi/8.3.1/../../../arm-none-eabi/lib/thumb/v7e-m+fp/hard/libc_nano.a(lib_a-nano-callocr.o)
 .debug_abbrev  0x000000000000b849      0x22a /usr/lib/gcc/arm-none-eabi/8.3.1/../../../arm-none-eabi/lib/thumb/v7e-m+fp/hard/libc_nano.a(lib_a-nano-reallocr.o)
 .debug_abbrev  0x000000000000ba73      0x2c1 /usr/lib/gcc/arm-none-eabi/8.3.1/../../../arm-none-eabi/lib/thumb/v7e-m+fp/hard/libc_nano.a(lib_a-putc.o)
 .debug_abbrev  0x000000000000bd34      0x268 /usr/lib/gcc/arm-none-eabi/8.3.1/../../../arm-none-eabi/lib/thumb/v7e-m+fp/hard/libc_nano.a(lib_a-reent.o)
 .debug_abbrev  0x000000000000bf9c      0x251 /usr/lib/gcc/arm-none-eabi/8.3.1/../../../arm-none-eabi/lib/thumb/v7e-m+fp/hard/libc_nano.a(lib_a-rget.o)
 .debug_abbrev  0x000000000000c1ed      0x26f /usr/lib/gcc/arm-none-eabi/8.3.1/../../../arm-none-eabi/lib/thumb/v7e-m+fp/hard/libc_nano.a(lib_a-stdio.o)
 .debug_abbrev  0x000000000000c45c      0x1ec /usr/lib/gcc/arm-none-eabi/8.3.1/../../../arm-none-eabi/lib/thumb/v7e-m+fp/hard/libc_nano.a(lib_a-writer.o)
 .debug_abbrev  0x000000000000c648      0x1ff /usr/lib/gcc/arm-none-eabi/8.3.1/../../../arm-none-eabi/lib/thumb/v7e-m+fp/hard/libc_nano.a(lib_a-assert.o)
 .debug_abbrev  0x000000000000c847      0x1e7 /usr/lib/gcc/arm-none-eabi/8.3.1/../../../arm-none-eabi/lib/thumb/v7e-m+fp/hard/libc_nano.a(lib_a-closer.o)
 .debug_abbrev  0x000000000000ca2e      0x1fb /usr/lib/gcc/arm-none-eabi/8.3.1/../../../arm-none-eabi/lib/thumb/v7e-m+fp/hard/libc_nano.a(lib_a-fstatr.o)
 .debug_abbrev  0x000000000000cc29      0x1e7 /usr/lib/gcc/arm-none-eabi/8.3.1/../../../arm-none-eabi/lib/thumb/v7e-m+fp/hard/libc_nano.a(lib_a-isattyr.o)
 .debug_abbrev  0x000000000000ce10      0x2aa /usr/lib/gcc/arm-none-eabi/8.3.1/../../../arm-none-eabi/lib/thumb/v7e-m+fp/hard/libc_nano.a(lib_a-locale.o)
 .debug_abbrev  0x000000000000d0ba      0x1fb /usr/lib/gcc/arm-none-eabi/8.3.1/../../../arm-none-eabi/lib/thumb/v7e-m+fp/hard/libc_nano.a(lib_a-lseekr.o)
 .debug_abbrev  0x000000000000d2b5      0x221 /usr/lib/gcc/arm-none-eabi/8.3.1/../../../arm-none-eabi/lib/thumb/v7e-m+fp/hard/libc_nano.a(lib_a-mbtowc_r.o)
 .debug_abbrev  0x000000000000d4d6      0x1e5 /usr/lib/gcc/arm-none-eabi/8.3.1/../../../arm-none-eabi/lib/thumb/v7e-m+fp/hard/libc_nano.a(lib_a-nano-msizer.o)
 .debug_abbrev  0x000000000000d6bb      0x1e7 /usr/lib/gcc/arm-none-eabi/8.3.1/../../../arm-none-eabi/lib/thumb/v7e-m+fp/hard/libc_nano.a(lib_a-readr.o)
 .debug_abbrev  0x000000000000d8a2      0x288 /usr/lib/gcc/arm-none-eabi/8.3.1/../../../arm-none-eabi/lib/thumb/v7e-m+fp/hard/libc_nano.a(lib_a-refill.o)
 .debug_abbrev  0x000000000000db2a      0x22b /usr/lib/gcc/arm-none-eabi/8.3.1/../../../arm-none-eabi/lib/thumb/v7e-m+fp/hard/libc_nano.a(lib_a-wctomb_r.o)
 .debug_abbrev  0x000000000000dd55      0x1d6 /usr/lib/gcc/arm-none-eabi/8.3.1/../../../arm-none-eabi/lib/thumb/v7e-m+fp/hard/libnosys.a(getpid.o)
 .debug_abbrev  0x000000000000df2b      0x1fb /usr/lib/gcc/arm-none-eabi/8.3.1/../../../arm-none-eabi/lib/thumb/v7e-m+fp/hard/libnosys.a(kill.o)
 .debug_abbrev  0x000000000000e126       0xa2 /usr/lib/gcc/arm-none-eabi/8.3.1/../../../arm-none-eabi/lib/thumb/v7e-m+fp/hard/libnosys.a(sbrk.o)
 .debug_abbrev  0x000000000000e1c8       0x6a /usr/lib/gcc/arm-none-eabi/8.3.1/../../../arm-none-eabi/lib/thumb/v7e-m+fp/hard/libnosys.a(_exit.o)
 .debug_abbrev  0x000000000000e232       0x14 /usr/lib/gcc/arm-none-eabi/8.3.1/thumb/v7e-m+fp/hard/libgcc.a(_arm_addsubdf3.o)
 .debug_abbrev  0x000000000000e246       0x14 /usr/lib/gcc/arm-none-eabi/8.3.1/thumb/v7e-m+fp/hard/libgcc.a(_arm_muldivdf3.o)
 .debug_abbrev  0x000000000000e25a       0x14 /usr/lib/gcc/arm-none-eabi/8.3.1/thumb/v7e-m+fp/hard/libgcc.a(_arm_cmpdf2.o)
 .debug_abbrev  0x000000000000e26e       0x14 /usr/lib/gcc/arm-none-eabi/8.3.1/thumb/v7e-m+fp/hard/libgcc.a(_arm_unorddf2.o)
 .debug_abbrev  0x000000000000e282       0x14 /usr/lib/gcc/arm-none-eabi/8.3.1/thumb/v7e-m+fp/hard/libgcc.a(_arm_fixdfsi.o)
 .debug_abbrev  0x000000000000e296       0x14 /usr/lib/gcc/arm-none-eabi/8.3.1/thumb/v7e-m+fp/hard/libgcc.a(_aeabi_uldivmod.o)
 .debug_abbrev  0x000000000000e2aa      0x1c2 /usr/lib/gcc/arm-none-eabi/8.3.1/thumb/v7e-m+fp/hard/libgcc.a(_udivmoddi4.o)
 .debug_abbrev  0x000000000000e46c       0x14 /usr/lib/gcc/arm-none-eabi/8.3.1/thumb/v7e-m+fp/hard/libgcc.a(_dvmd_tls.o)

.debug_loc      0x0000000000000000    0x31e54
 .debug_loc     0x0000000000000000      0xe63 build/run.o
 .debug_loc     0x0000000000000e63      0x50a build/retarget.o
 .debug_loc     0x000000000000136d      0x263 build/main.o
 .debug_loc     0x00000000000015d0      0x54b build/encrypt.o
 .debug_loc     0x0000000000001b1b      0x5df build/sha256.o
 .debug_loc     0x00000000000020fa      0x5fe build/aes.o
 .debug_loc     0x00000000000026f8       0x40 build/stm32wbxx_it.o
 .debug_loc     0x0000000000002738      0x14e build/stm32wbxx_hal_msp.o
 .debug_loc     0x0000000000002886       0xe5 build/stm32wbxx_hal_timebase_tim.o
 .debug_loc     0x000000000000296b     0x1021 build/stm32wbxx_hal_rcc.o
 .debug_loc     0x000000000000398c     0x1fc6 build/stm32wbxx_hal_rcc_ex.o
 .debug_loc     0x0000000000005952      0x3dc build/stm32wbxx_hal_gpio.o
 .debug_loc     0x0000000000005d2e      0xa0a build/stm32wbxx_hal_dma.o
 .debug_loc     0x0000000000006738      0x274 build/stm32wbxx_hal_pwr.o
 .debug_loc     0x00000000000069ac      0xdb8 build/stm32wbxx_hal_pwr_ex.o
 .debug_loc     0x0000000000007764      0x738 build/stm32wbxx_hal_cortex.o
 .debug_loc     0x0000000000007e9c      0x5cc build/stm32wbxx_hal.o
 .debug_loc     0x0000000000008468     0x60b3 build/stm32wbxx_hal_uart.o
 .debug_loc     0x000000000000e51b      0xd01 build/stm32wbxx_hal_uart_ex.o
 .debug_loc     0x000000000000f21c     0x62c2 build/stm32wbxx_hal_tim.o
 .debug_loc     0x00000000000154de     0x2c20 build/stm32wbxx_hal_tim_ex.o
 .debug_loc     0x00000000000180fe       0xe6 build/system_stm32wbxx.o
 .debug_loc     0x00000000000181e4       0xbf build/list.o
 .debug_loc     0x00000000000182a3     0x20db build/queue.o
 .debug_loc     0x000000000001a37e     0x2c32 build/tasks.o
 .debug_loc     0x000000000001cfb0     0x14f3 build/timers.o
 .debug_loc     0x000000000001e4a3     0x5c78 build/cmsis_os2.o
 .debug_loc     0x000000000002411b      0x4cb build/heap_4.o
 .debug_loc     0x00000000000245e6      0x1c0 build/port.o
 .debug_loc     0x00000000000247a6       0xa6 /usr/lib/gcc/arm-none-eabi/8.3.1/../../../arm-none-eabi/lib/thumb/v7e-m+fp/hard/libc_nano.a(lib_a-fprintf.o)
 .debug_loc     0x000000000002484c       0xa5 /usr/lib/gcc/arm-none-eabi/8.3.1/../../../arm-none-eabi/lib/thumb/v7e-m+fp/hard/libc_nano.a(lib_a-getchar.o)
 .debug_loc     0x00000000000248f1       0xba /usr/lib/gcc/arm-none-eabi/8.3.1/../../../arm-none-eabi/lib/thumb/v7e-m+fp/hard/libc_nano.a(lib_a-init.o)
 .debug_loc     0x00000000000249ab       0x64 /usr/lib/gcc/arm-none-eabi/8.3.1/../../../arm-none-eabi/lib/thumb/v7e-m+fp/hard/libc_nano.a(lib_a-malloc.o)
 .debug_loc     0x0000000000024a0f      0x196 /usr/lib/gcc/arm-none-eabi/8.3.1/../../../arm-none-eabi/lib/thumb/v7e-m+fp/hard/libc_nano.a(lib_a-memcmp.o)
 .debug_loc     0x0000000000024ba5      0x231 /usr/lib/gcc/arm-none-eabi/8.3.1/../../../arm-none-eabi/lib/thumb/v7e-m+fp/hard/libc_nano.a(lib_a-memset.o)
 .debug_loc     0x0000000000024dd6      0x211 /usr/lib/gcc/arm-none-eabi/8.3.1/../../../arm-none-eabi/lib/thumb/v7e-m+fp/hard/libc_nano.a(lib_a-nano-freer.o)
 .debug_loc     0x0000000000024fe7      0x437 /usr/lib/gcc/arm-none-eabi/8.3.1/../../../arm-none-eabi/lib/thumb/v7e-m+fp/hard/libc_nano.a(lib_a-nano-mallocr.o)
 .debug_loc     0x000000000002541e      0x7a3 /usr/lib/gcc/arm-none-eabi/8.3.1/../../../arm-none-eabi/lib/thumb/v7e-m+fp/hard/libc_nano.a(lib_a-nano-vfprintf.o)
 .debug_loc     0x0000000000025bc1      0xa2d /usr/lib/gcc/arm-none-eabi/8.3.1/../../../arm-none-eabi/lib/thumb/v7e-m+fp/hard/libc_nano.a(lib_a-nano-vfprintf_float.o)
 .debug_loc     0x00000000000265ee      0x7ab /usr/lib/gcc/arm-none-eabi/8.3.1/../../../arm-none-eabi/lib/thumb/v7e-m+fp/hard/libc_nano.a(lib_a-nano-vfprintf_i.o)
 .debug_loc     0x0000000000026d99       0x98 /usr/lib/gcc/arm-none-eabi/8.3.1/../../../arm-none-eabi/lib/thumb/v7e-m+fp/hard/libc_nano.a(lib_a-printf.o)
 .debug_loc     0x0000000000026e31      0x13e /usr/lib/gcc/arm-none-eabi/8.3.1/../../../arm-none-eabi/lib/thumb/v7e-m+fp/hard/libc_nano.a(lib_a-putchar.o)
 .debug_loc     0x0000000000026f6f      0x32d /usr/lib/gcc/arm-none-eabi/8.3.1/../../../arm-none-eabi/lib/thumb/v7e-m+fp/hard/libc_nano.a(lib_a-puts.o)
 .debug_loc     0x000000000002729c       0x6c /usr/lib/gcc/arm-none-eabi/8.3.1/../../../arm-none-eabi/lib/thumb/v7e-m+fp/hard/libc_nano.a(lib_a-sbrkr.o)
 .debug_loc     0x0000000000027308      0x222 /usr/lib/gcc/arm-none-eabi/8.3.1/../../../arm-none-eabi/lib/thumb/v7e-m+fp/hard/libc_nano.a(lib_a-setvbuf.o)
 .debug_loc     0x000000000002752a      0x560 /usr/lib/gcc/arm-none-eabi/8.3.1/../../../arm-none-eabi/lib/thumb/v7e-m+fp/hard/libc_nano.a(lib_a-signal.o)
 .debug_loc     0x0000000000027a8a       0xd0 /usr/lib/gcc/arm-none-eabi/8.3.1/../../../arm-none-eabi/lib/thumb/v7e-m+fp/hard/libc_nano.a(lib_a-signalr.o)
 .debug_loc     0x0000000000027b5a      0x1dc /usr/lib/gcc/arm-none-eabi/8.3.1/../../../arm-none-eabi/lib/thumb/v7e-m+fp/hard/libc_nano.a(lib_a-strncmp.o)
 .debug_loc     0x0000000000027d36      0x1b6 /usr/lib/gcc/arm-none-eabi/8.3.1/../../../arm-none-eabi/lib/thumb/v7e-m+fp/hard/libc_nano.a(lib_a-strncpy.o)
 .debug_loc     0x0000000000027eec      0x554 /usr/lib/gcc/arm-none-eabi/8.3.1/../../../arm-none-eabi/lib/thumb/v7e-m+fp/hard/libc_nano.a(lib_a-strtoul.o)
 .debug_loc     0x0000000000028440      0x193 /usr/lib/gcc/arm-none-eabi/8.3.1/../../../arm-none-eabi/lib/thumb/v7e-m+fp/hard/libc_nano.a(lib_a-wbuf.o)
 .debug_loc     0x00000000000285d3       0xb7 /usr/lib/gcc/arm-none-eabi/8.3.1/../../../arm-none-eabi/lib/thumb/v7e-m+fp/hard/libc_nano.a(lib_a-wsetup.o)
 .debug_loc     0x000000000002868a     0x33ea /usr/lib/gcc/arm-none-eabi/8.3.1/../../../arm-none-eabi/lib/thumb/v7e-m+fp/hard/libc_nano.a(lib_a-dtoa.o)
 .debug_loc     0x000000000002ba74      0x3f5 /usr/lib/gcc/arm-none-eabi/8.3.1/../../../arm-none-eabi/lib/thumb/v7e-m+fp/hard/libc_nano.a(lib_a-fflush.o)
 .debug_loc     0x000000000002be69      0x339 /usr/lib/gcc/arm-none-eabi/8.3.1/../../../arm-none-eabi/lib/thumb/v7e-m+fp/hard/libc_nano.a(lib_a-findfp.o)
 .debug_loc     0x000000000002c1a2      0x669 /usr/lib/gcc/arm-none-eabi/8.3.1/../../../arm-none-eabi/lib/thumb/v7e-m+fp/hard/libc_nano.a(lib_a-fvwrite.o)
 .debug_loc     0x000000000002c80b      0x24f /usr/lib/gcc/arm-none-eabi/8.3.1/../../../arm-none-eabi/lib/thumb/v7e-m+fp/hard/libc_nano.a(lib_a-fwalk.o)
 .debug_loc     0x000000000002ca5a      0x22c /usr/lib/gcc/arm-none-eabi/8.3.1/../../../arm-none-eabi/lib/thumb/v7e-m+fp/hard/libc_nano.a(lib_a-getc.o)
 .debug_loc     0x000000000002cc86       0x6f /usr/lib/gcc/arm-none-eabi/8.3.1/../../../arm-none-eabi/lib/thumb/v7e-m+fp/hard/libc_nano.a(lib_a-localeconv.o)
 .debug_loc     0x000000000002ccf5      0x192 /usr/lib/gcc/arm-none-eabi/8.3.1/../../../arm-none-eabi/lib/thumb/v7e-m+fp/hard/libc_nano.a(lib_a-makebuf.o)
 .debug_loc     0x000000000002ce87      0x2f1 /usr/lib/gcc/arm-none-eabi/8.3.1/../../../arm-none-eabi/lib/thumb/v7e-m+fp/hard/libc_nano.a(lib_a-memmove.o)
 .debug_loc     0x000000000002d178     0x2443 /usr/lib/gcc/arm-none-eabi/8.3.1/../../../arm-none-eabi/lib/thumb/v7e-m+fp/hard/libc_nano.a(lib_a-mprec.o)
 .debug_loc     0x000000000002f5bb       0x91 /usr/lib/gcc/arm-none-eabi/8.3.1/../../../arm-none-eabi/lib/thumb/v7e-m+fp/hard/libc_nano.a(lib_a-nano-callocr.o)
 .debug_loc     0x000000000002f64c      0x133 /usr/lib/gcc/arm-none-eabi/8.3.1/../../../arm-none-eabi/lib/thumb/v7e-m+fp/hard/libc_nano.a(lib_a-nano-reallocr.o)
 .debug_loc     0x000000000002f77f      0x400 /usr/lib/gcc/arm-none-eabi/8.3.1/../../../arm-none-eabi/lib/thumb/v7e-m+fp/hard/libc_nano.a(lib_a-putc.o)
 .debug_loc     0x000000000002fb7f      0x135 /usr/lib/gcc/arm-none-eabi/8.3.1/../../../arm-none-eabi/lib/thumb/v7e-m+fp/hard/libc_nano.a(lib_a-reent.o)
 .debug_loc     0x000000000002fcb4      0x106 /usr/lib/gcc/arm-none-eabi/8.3.1/../../../arm-none-eabi/lib/thumb/v7e-m+fp/hard/libc_nano.a(lib_a-rget.o)
 .debug_loc     0x000000000002fdba      0x393 /usr/lib/gcc/arm-none-eabi/8.3.1/../../../arm-none-eabi/lib/thumb/v7e-m+fp/hard/libc_nano.a(lib_a-stdio.o)
 .debug_loc     0x000000000003014d       0xdd /usr/lib/gcc/arm-none-eabi/8.3.1/../../../arm-none-eabi/lib/thumb/v7e-m+fp/hard/libc_nano.a(lib_a-writer.o)
 .debug_loc     0x000000000003022a      0x15c /usr/lib/gcc/arm-none-eabi/8.3.1/../../../arm-none-eabi/lib/thumb/v7e-m+fp/hard/libc_nano.a(lib_a-assert.o)
 .debug_loc     0x0000000000030386       0x6c /usr/lib/gcc/arm-none-eabi/8.3.1/../../../arm-none-eabi/lib/thumb/v7e-m+fp/hard/libc_nano.a(lib_a-closer.o)
 .debug_loc     0x00000000000303f2       0xab /usr/lib/gcc/arm-none-eabi/8.3.1/../../../arm-none-eabi/lib/thumb/v7e-m+fp/hard/libc_nano.a(lib_a-fstatr.o)
 .debug_loc     0x000000000003049d       0x6c /usr/lib/gcc/arm-none-eabi/8.3.1/../../../arm-none-eabi/lib/thumb/v7e-m+fp/hard/libc_nano.a(lib_a-isattyr.o)
 .debug_loc     0x0000000000030509      0x189 /usr/lib/gcc/arm-none-eabi/8.3.1/../../../arm-none-eabi/lib/thumb/v7e-m+fp/hard/libc_nano.a(lib_a-locale.o)
 .debug_loc     0x0000000000030692       0xdd /usr/lib/gcc/arm-none-eabi/8.3.1/../../../arm-none-eabi/lib/thumb/v7e-m+fp/hard/libc_nano.a(lib_a-lseekr.o)
 .debug_loc     0x000000000003076f      0x21d /usr/lib/gcc/arm-none-eabi/8.3.1/../../../arm-none-eabi/lib/thumb/v7e-m+fp/hard/libc_nano.a(lib_a-mbtowc_r.o)
 .debug_loc     0x000000000003098c       0x86 /usr/lib/gcc/arm-none-eabi/8.3.1/../../../arm-none-eabi/lib/thumb/v7e-m+fp/hard/libc_nano.a(lib_a-nano-msizer.o)
 .debug_loc     0x0000000000030a12       0xdd /usr/lib/gcc/arm-none-eabi/8.3.1/../../../arm-none-eabi/lib/thumb/v7e-m+fp/hard/libc_nano.a(lib_a-readr.o)
 .debug_loc     0x0000000000030aef      0x19f /usr/lib/gcc/arm-none-eabi/8.3.1/../../../arm-none-eabi/lib/thumb/v7e-m+fp/hard/libc_nano.a(lib_a-refill.o)
 .debug_loc     0x0000000000030c8e      0x13a /usr/lib/gcc/arm-none-eabi/8.3.1/../../../arm-none-eabi/lib/thumb/v7e-m+fp/hard/libc_nano.a(lib_a-wctomb_r.o)
 .debug_loc     0x0000000000030dc8       0x25 /usr/lib/gcc/arm-none-eabi/8.3.1/../../../arm-none-eabi/lib/thumb/v7e-m+fp/hard/libnosys.a(kill.o)
 .debug_loc     0x0000000000030ded       0x3e /usr/lib/gcc/arm-none-eabi/8.3.1/../../../arm-none-eabi/lib/thumb/v7e-m+fp/hard/libnosys.a(sbrk.o)
 .debug_loc     0x0000000000030e2b       0x15 /usr/lib/gcc/arm-none-eabi/8.3.1/../../../arm-none-eabi/lib/thumb/v7e-m+fp/hard/libnosys.a(_exit.o)
 .debug_loc     0x0000000000030e40     0x1014 /usr/lib/gcc/arm-none-eabi/8.3.1/thumb/v7e-m+fp/hard/libgcc.a(_udivmoddi4.o)

.debug_aranges  0x0000000000000000     0x23a8
 .debug_aranges
                0x0000000000000000       0x90 build/run.o
 .debug_aranges
                0x0000000000000090       0x50 build/retarget.o
 .debug_aranges
                0x00000000000000e0       0x70 build/main.o
 .debug_aranges
                0x0000000000000150       0x40 build/encrypt.o
 .debug_aranges
                0x0000000000000190       0x48 build/sha256.o
 .debug_aranges
                0x00000000000001d8       0x88 build/aes.o
 .debug_aranges
                0x0000000000000260       0x58 build/stm32wbxx_it.o
 .debug_aranges
                0x00000000000002b8       0x30 build/stm32wbxx_hal_msp.o
 .debug_aranges
                0x00000000000002e8       0x30 build/stm32wbxx_hal_timebase_tim.o
 .debug_aranges
                0x0000000000000318       0xa8 build/stm32wbxx_hal_rcc.o
 .debug_aranges
                0x00000000000003c0      0x130 build/stm32wbxx_hal_rcc_ex.o
 .debug_aranges
                0x00000000000004f0       0x58 build/stm32wbxx_hal_gpio.o
 .debug_aranges
                0x0000000000000548       0x90 build/stm32wbxx_hal_dma.o
 .debug_aranges
                0x00000000000005d8       0x98 build/stm32wbxx_hal_pwr.o
 .debug_aranges
                0x0000000000000670      0x1b8 build/stm32wbxx_hal_pwr_ex.o
 .debug_aranges
                0x0000000000000828       0xa0 build/stm32wbxx_hal_cortex.o
 .debug_aranges
                0x00000000000008c8      0x158 build/stm32wbxx_hal.o
 .debug_aranges
                0x0000000000000a20      0x248 build/stm32wbxx_hal_uart.o
 .debug_aranges
                0x0000000000000c68       0xa0 build/stm32wbxx_hal_uart_ex.o
 .debug_aranges
                0x0000000000000d08      0x3e0 build/stm32wbxx_hal_tim.o
 .debug_aranges
                0x00000000000010e8      0x190 build/stm32wbxx_hal_tim_ex.o
 .debug_aranges
                0x0000000000001278       0x28 build/system_stm32wbxx.o
 .debug_aranges
                0x00000000000012a0       0x40 build/list.o
 .debug_aranges
                0x00000000000012e0      0x158 build/queue.o
 .debug_aranges
                0x0000000000001438      0x208 build/tasks.o
 .debug_aranges
                0x0000000000001640       0xf0 build/timers.o
 .debug_aranges
                0x0000000000001730      0x2a0 build/cmsis_os2.o
 .debug_aranges
                0x00000000000019d0       0x58 build/heap_4.o
 .debug_aranges
                0x0000000000001a28       0x80 build/port.o
 .debug_aranges
                0x0000000000001aa8       0x30 build/startup_stm32wb55xx_cm4.o
 .debug_aranges
                0x0000000000001ad8       0x20 /usr/lib/gcc/arm-none-eabi/8.3.1/../../../arm-none-eabi/lib/thumb/v7e-m+fp/hard/libc_nano.a(lib_a-abort.o)
 .debug_aranges
                0x0000000000001af8       0x20 /usr/lib/gcc/arm-none-eabi/8.3.1/../../../arm-none-eabi/lib/thumb/v7e-m+fp/hard/libc_nano.a(lib_a-errno.o)
 .debug_aranges
                0x0000000000001b18       0x20 /usr/lib/gcc/arm-none-eabi/8.3.1/../../../arm-none-eabi/lib/thumb/v7e-m+fp/hard/libc_nano.a(lib_a-fprintf.o)
 .debug_aranges
                0x0000000000001b38       0x20 /usr/lib/gcc/arm-none-eabi/8.3.1/../../../arm-none-eabi/lib/thumb/v7e-m+fp/hard/libc_nano.a(lib_a-getchar.o)
 .debug_aranges
                0x0000000000001b58       0x18 /usr/lib/gcc/arm-none-eabi/8.3.1/../../../arm-none-eabi/lib/thumb/v7e-m+fp/hard/libc_nano.a(lib_a-impure.o)
 .debug_aranges
                0x0000000000001b70       0x20 /usr/lib/gcc/arm-none-eabi/8.3.1/../../../arm-none-eabi/lib/thumb/v7e-m+fp/hard/libc_nano.a(lib_a-init.o)
 .debug_aranges
                0x0000000000001b90       0x20 /usr/lib/gcc/arm-none-eabi/8.3.1/../../../arm-none-eabi/lib/thumb/v7e-m+fp/hard/libc_nano.a(lib_a-malloc.o)
 .debug_aranges
                0x0000000000001bb0       0x20 /usr/lib/gcc/arm-none-eabi/8.3.1/../../../arm-none-eabi/lib/thumb/v7e-m+fp/hard/libc_nano.a(lib_a-memchr.o)
 .debug_aranges
                0x0000000000001bd0       0x20 /usr/lib/gcc/arm-none-eabi/8.3.1/../../../arm-none-eabi/lib/thumb/v7e-m+fp/hard/libc_nano.a(lib_a-memcmp.o)
 .debug_aranges
                0x0000000000001bf0       0x20 /usr/lib/gcc/arm-none-eabi/8.3.1/../../../arm-none-eabi/lib/thumb/v7e-m+fp/hard/libc_nano.a(lib_a-memcpy.o)
 .debug_aranges
                0x0000000000001c10       0x20 /usr/lib/gcc/arm-none-eabi/8.3.1/../../../arm-none-eabi/lib/thumb/v7e-m+fp/hard/libc_nano.a(lib_a-memset.o)
 .debug_aranges
                0x0000000000001c30       0x20 /usr/lib/gcc/arm-none-eabi/8.3.1/../../../arm-none-eabi/lib/thumb/v7e-m+fp/hard/libc_nano.a(lib_a-nano-freer.o)
 .debug_aranges
                0x0000000000001c50       0x20 /usr/lib/gcc/arm-none-eabi/8.3.1/../../../arm-none-eabi/lib/thumb/v7e-m+fp/hard/libc_nano.a(lib_a-nano-mallocr.o)
 .debug_aranges
                0x0000000000001c70       0x20 /usr/lib/gcc/arm-none-eabi/8.3.1/../../../arm-none-eabi/lib/thumb/v7e-m+fp/hard/libc_nano.a(lib_a-nano-vfprintf.o)
 .debug_aranges
                0x0000000000001c90       0x20 /usr/lib/gcc/arm-none-eabi/8.3.1/../../../arm-none-eabi/lib/thumb/v7e-m+fp/hard/libc_nano.a(lib_a-nano-vfprintf_float.o)
 .debug_aranges
                0x0000000000001cb0       0x20 /usr/lib/gcc/arm-none-eabi/8.3.1/../../../arm-none-eabi/lib/thumb/v7e-m+fp/hard/libc_nano.a(lib_a-nano-vfprintf_i.o)
 .debug_aranges
                0x0000000000001cd0       0x20 /usr/lib/gcc/arm-none-eabi/8.3.1/../../../arm-none-eabi/lib/thumb/v7e-m+fp/hard/libc_nano.a(lib_a-printf.o)
 .debug_aranges
                0x0000000000001cf0       0x20 /usr/lib/gcc/arm-none-eabi/8.3.1/../../../arm-none-eabi/lib/thumb/v7e-m+fp/hard/libc_nano.a(lib_a-putchar.o)
 .debug_aranges
                0x0000000000001d10       0x20 /usr/lib/gcc/arm-none-eabi/8.3.1/../../../arm-none-eabi/lib/thumb/v7e-m+fp/hard/libc_nano.a(lib_a-puts.o)
 .debug_aranges
                0x0000000000001d30       0x20 /usr/lib/gcc/arm-none-eabi/8.3.1/../../../arm-none-eabi/lib/thumb/v7e-m+fp/hard/libc_nano.a(lib_a-sbrkr.o)
 .debug_aranges
                0x0000000000001d50       0x20 /usr/lib/gcc/arm-none-eabi/8.3.1/../../../arm-none-eabi/lib/thumb/v7e-m+fp/hard/libc_nano.a(lib_a-setvbuf.o)
 .debug_aranges
                0x0000000000001d70       0x20 /usr/lib/gcc/arm-none-eabi/8.3.1/../../../arm-none-eabi/lib/thumb/v7e-m+fp/hard/libc_nano.a(lib_a-signal.o)
 .debug_aranges
                0x0000000000001d90       0x20 /usr/lib/gcc/arm-none-eabi/8.3.1/../../../arm-none-eabi/lib/thumb/v7e-m+fp/hard/libc_nano.a(lib_a-signalr.o)
 .debug_aranges
                0x0000000000001db0       0x20 /usr/lib/gcc/arm-none-eabi/8.3.1/../../../arm-none-eabi/lib/thumb/v7e-m+fp/hard/libc_nano.a(lib_a-strlen.o)
 .debug_aranges
                0x0000000000001dd0       0x20 /usr/lib/gcc/arm-none-eabi/8.3.1/../../../arm-none-eabi/lib/thumb/v7e-m+fp/hard/libc_nano.a(lib_a-strncmp.o)
 .debug_aranges
                0x0000000000001df0       0x20 /usr/lib/gcc/arm-none-eabi/8.3.1/../../../arm-none-eabi/lib/thumb/v7e-m+fp/hard/libc_nano.a(lib_a-strncpy.o)
 .debug_aranges
                0x0000000000001e10       0x20 /usr/lib/gcc/arm-none-eabi/8.3.1/../../../arm-none-eabi/lib/thumb/v7e-m+fp/hard/libc_nano.a(lib_a-strtoul.o)
 .debug_aranges
                0x0000000000001e30       0x20 /usr/lib/gcc/arm-none-eabi/8.3.1/../../../arm-none-eabi/lib/thumb/v7e-m+fp/hard/libc_nano.a(lib_a-wbuf.o)
 .debug_aranges
                0x0000000000001e50       0x20 /usr/lib/gcc/arm-none-eabi/8.3.1/../../../arm-none-eabi/lib/thumb/v7e-m+fp/hard/libc_nano.a(lib_a-wsetup.o)
 .debug_aranges
                0x0000000000001e70       0x18 /usr/lib/gcc/arm-none-eabi/8.3.1/../../../arm-none-eabi/lib/thumb/v7e-m+fp/hard/libc_nano.a(lib_a-ctype_.o)
 .debug_aranges
                0x0000000000001e88       0x20 /usr/lib/gcc/arm-none-eabi/8.3.1/../../../arm-none-eabi/lib/thumb/v7e-m+fp/hard/libc_nano.a(lib_a-dtoa.o)
 .debug_aranges
                0x0000000000001ea8       0x20 /usr/lib/gcc/arm-none-eabi/8.3.1/../../../arm-none-eabi/lib/thumb/v7e-m+fp/hard/libc_nano.a(lib_a-fflush.o)
 .debug_aranges
                0x0000000000001ec8       0x20 /usr/lib/gcc/arm-none-eabi/8.3.1/../../../arm-none-eabi/lib/thumb/v7e-m+fp/hard/libc_nano.a(lib_a-findfp.o)
 .debug_aranges
                0x0000000000001ee8       0x20 /usr/lib/gcc/arm-none-eabi/8.3.1/../../../arm-none-eabi/lib/thumb/v7e-m+fp/hard/libc_nano.a(lib_a-fvwrite.o)
 .debug_aranges
                0x0000000000001f08       0x20 /usr/lib/gcc/arm-none-eabi/8.3.1/../../../arm-none-eabi/lib/thumb/v7e-m+fp/hard/libc_nano.a(lib_a-fwalk.o)
 .debug_aranges
                0x0000000000001f28       0x20 /usr/lib/gcc/arm-none-eabi/8.3.1/../../../arm-none-eabi/lib/thumb/v7e-m+fp/hard/libc_nano.a(lib_a-getc.o)
 .debug_aranges
                0x0000000000001f48       0x20 /usr/lib/gcc/arm-none-eabi/8.3.1/../../../arm-none-eabi/lib/thumb/v7e-m+fp/hard/libc_nano.a(lib_a-localeconv.o)
 .debug_aranges
                0x0000000000001f68       0x20 /usr/lib/gcc/arm-none-eabi/8.3.1/../../../arm-none-eabi/lib/thumb/v7e-m+fp/hard/libc_nano.a(lib_a-makebuf.o)
 .debug_aranges
                0x0000000000001f88       0x20 /usr/lib/gcc/arm-none-eabi/8.3.1/../../../arm-none-eabi/lib/thumb/v7e-m+fp/hard/libc_nano.a(lib_a-memmove.o)
 .debug_aranges
                0x0000000000001fa8       0x20 /usr/lib/gcc/arm-none-eabi/8.3.1/../../../arm-none-eabi/lib/thumb/v7e-m+fp/hard/libc_nano.a(lib_a-mlock.o)
 .debug_aranges
                0x0000000000001fc8       0x20 /usr/lib/gcc/arm-none-eabi/8.3.1/../../../arm-none-eabi/lib/thumb/v7e-m+fp/hard/libc_nano.a(lib_a-mprec.o)
 .debug_aranges
                0x0000000000001fe8       0x20 /usr/lib/gcc/arm-none-eabi/8.3.1/../../../arm-none-eabi/lib/thumb/v7e-m+fp/hard/libc_nano.a(lib_a-nano-callocr.o)
 .debug_aranges
                0x0000000000002008       0x20 /usr/lib/gcc/arm-none-eabi/8.3.1/../../../arm-none-eabi/lib/thumb/v7e-m+fp/hard/libc_nano.a(lib_a-nano-reallocr.o)
 .debug_aranges
                0x0000000000002028       0x20 /usr/lib/gcc/arm-none-eabi/8.3.1/../../../arm-none-eabi/lib/thumb/v7e-m+fp/hard/libc_nano.a(lib_a-putc.o)
 .debug_aranges
                0x0000000000002048       0x20 /usr/lib/gcc/arm-none-eabi/8.3.1/../../../arm-none-eabi/lib/thumb/v7e-m+fp/hard/libc_nano.a(lib_a-reent.o)
 .debug_aranges
                0x0000000000002068       0x20 /usr/lib/gcc/arm-none-eabi/8.3.1/../../../arm-none-eabi/lib/thumb/v7e-m+fp/hard/libc_nano.a(lib_a-rget.o)
 .debug_aranges
                0x0000000000002088       0x20 /usr/lib/gcc/arm-none-eabi/8.3.1/../../../arm-none-eabi/lib/thumb/v7e-m+fp/hard/libc_nano.a(lib_a-stdio.o)
 .debug_aranges
                0x00000000000020a8       0x20 /usr/lib/gcc/arm-none-eabi/8.3.1/../../../arm-none-eabi/lib/thumb/v7e-m+fp/hard/libc_nano.a(lib_a-writer.o)
 .debug_aranges
                0x00000000000020c8       0x20 /usr/lib/gcc/arm-none-eabi/8.3.1/../../../arm-none-eabi/lib/thumb/v7e-m+fp/hard/libc_nano.a(lib_a-assert.o)
 .debug_aranges
                0x00000000000020e8       0x20 /usr/lib/gcc/arm-none-eabi/8.3.1/../../../arm-none-eabi/lib/thumb/v7e-m+fp/hard/libc_nano.a(lib_a-closer.o)
 .debug_aranges
                0x0000000000002108       0x20 /usr/lib/gcc/arm-none-eabi/8.3.1/../../../arm-none-eabi/lib/thumb/v7e-m+fp/hard/libc_nano.a(lib_a-fstatr.o)
 .debug_aranges
                0x0000000000002128       0x20 /usr/lib/gcc/arm-none-eabi/8.3.1/../../../arm-none-eabi/lib/thumb/v7e-m+fp/hard/libc_nano.a(lib_a-isattyr.o)
 .debug_aranges
                0x0000000000002148       0x20 /usr/lib/gcc/arm-none-eabi/8.3.1/../../../arm-none-eabi/lib/thumb/v7e-m+fp/hard/libc_nano.a(lib_a-locale.o)
 .debug_aranges
                0x0000000000002168       0x20 /usr/lib/gcc/arm-none-eabi/8.3.1/../../../arm-none-eabi/lib/thumb/v7e-m+fp/hard/libc_nano.a(lib_a-lseekr.o)
 .debug_aranges
                0x0000000000002188       0x20 /usr/lib/gcc/arm-none-eabi/8.3.1/../../../arm-none-eabi/lib/thumb/v7e-m+fp/hard/libc_nano.a(lib_a-mbtowc_r.o)
 .debug_aranges
                0x00000000000021a8       0x20 /usr/lib/gcc/arm-none-eabi/8.3.1/../../../arm-none-eabi/lib/thumb/v7e-m+fp/hard/libc_nano.a(lib_a-nano-msizer.o)
 .debug_aranges
                0x00000000000021c8       0x20 /usr/lib/gcc/arm-none-eabi/8.3.1/../../../arm-none-eabi/lib/thumb/v7e-m+fp/hard/libc_nano.a(lib_a-readr.o)
 .debug_aranges
                0x00000000000021e8       0x20 /usr/lib/gcc/arm-none-eabi/8.3.1/../../../arm-none-eabi/lib/thumb/v7e-m+fp/hard/libc_nano.a(lib_a-refill.o)
 .debug_aranges
                0x0000000000002208       0x20 /usr/lib/gcc/arm-none-eabi/8.3.1/../../../arm-none-eabi/lib/thumb/v7e-m+fp/hard/libc_nano.a(lib_a-wctomb_r.o)
 .debug_aranges
                0x0000000000002228       0x20 /usr/lib/gcc/arm-none-eabi/8.3.1/../../../arm-none-eabi/lib/thumb/v7e-m+fp/hard/libnosys.a(getpid.o)
 .debug_aranges
                0x0000000000002248       0x20 /usr/lib/gcc/arm-none-eabi/8.3.1/../../../arm-none-eabi/lib/thumb/v7e-m+fp/hard/libnosys.a(kill.o)
 .debug_aranges
                0x0000000000002268       0x20 /usr/lib/gcc/arm-none-eabi/8.3.1/../../../arm-none-eabi/lib/thumb/v7e-m+fp/hard/libnosys.a(sbrk.o)
 .debug_aranges
                0x0000000000002288       0x20 /usr/lib/gcc/arm-none-eabi/8.3.1/../../../arm-none-eabi/lib/thumb/v7e-m+fp/hard/libnosys.a(_exit.o)
 .debug_aranges
                0x00000000000022a8       0x20 /usr/lib/gcc/arm-none-eabi/8.3.1/thumb/v7e-m+fp/hard/libgcc.a(_arm_addsubdf3.o)
 .debug_aranges
                0x00000000000022c8       0x20 /usr/lib/gcc/arm-none-eabi/8.3.1/thumb/v7e-m+fp/hard/libgcc.a(_arm_muldivdf3.o)
 .debug_aranges
                0x00000000000022e8       0x20 /usr/lib/gcc/arm-none-eabi/8.3.1/thumb/v7e-m+fp/hard/libgcc.a(_arm_cmpdf2.o)
 .debug_aranges
                0x0000000000002308       0x20 /usr/lib/gcc/arm-none-eabi/8.3.1/thumb/v7e-m+fp/hard/libgcc.a(_arm_unorddf2.o)
 .debug_aranges
                0x0000000000002328       0x20 /usr/lib/gcc/arm-none-eabi/8.3.1/thumb/v7e-m+fp/hard/libgcc.a(_arm_fixdfsi.o)
 .debug_aranges
                0x0000000000002348       0x20 /usr/lib/gcc/arm-none-eabi/8.3.1/thumb/v7e-m+fp/hard/libgcc.a(_aeabi_uldivmod.o)
 .debug_aranges
                0x0000000000002368       0x20 /usr/lib/gcc/arm-none-eabi/8.3.1/thumb/v7e-m+fp/hard/libgcc.a(_udivmoddi4.o)
 .debug_aranges
                0x0000000000002388       0x20 /usr/lib/gcc/arm-none-eabi/8.3.1/thumb/v7e-m+fp/hard/libgcc.a(_dvmd_tls.o)

.debug_ranges   0x0000000000000000     0x2878
 .debug_ranges  0x0000000000000000       0xf8 build/run.o
 .debug_ranges  0x00000000000000f8       0x58 build/retarget.o
 .debug_ranges  0x0000000000000150       0x78 build/main.o
 .debug_ranges  0x00000000000001c8       0x90 build/encrypt.o
 .debug_ranges  0x0000000000000258       0x38 build/sha256.o
 .debug_ranges  0x0000000000000290       0xa8 build/aes.o
 .debug_ranges  0x0000000000000338       0x48 build/stm32wbxx_it.o
 .debug_ranges  0x0000000000000380       0x20 build/stm32wbxx_hal_msp.o
 .debug_ranges  0x00000000000003a0       0x20 build/stm32wbxx_hal_timebase_tim.o
 .debug_ranges  0x00000000000003c0      0x1b0 build/stm32wbxx_hal_rcc.o
 .debug_ranges  0x0000000000000570      0x3e0 build/stm32wbxx_hal_rcc_ex.o
 .debug_ranges  0x0000000000000950       0x48 build/stm32wbxx_hal_gpio.o
 .debug_ranges  0x0000000000000998       0x80 build/stm32wbxx_hal_dma.o
 .debug_ranges  0x0000000000000a18       0x88 build/stm32wbxx_hal_pwr.o
 .debug_ranges  0x0000000000000aa0      0x1a8 build/stm32wbxx_hal_pwr_ex.o
 .debug_ranges  0x0000000000000c48       0xd8 build/stm32wbxx_hal_cortex.o
 .debug_ranges  0x0000000000000d20      0x160 build/stm32wbxx_hal.o
 .debug_ranges  0x0000000000000e80      0x250 build/stm32wbxx_hal_uart.o
 .debug_ranges  0x00000000000010d0       0x90 build/stm32wbxx_hal_uart_ex.o
 .debug_ranges  0x0000000000001160      0x3d0 build/stm32wbxx_hal_tim.o
 .debug_ranges  0x0000000000001530      0x180 build/stm32wbxx_hal_tim_ex.o
 .debug_ranges  0x00000000000016b0       0x18 build/system_stm32wbxx.o
 .debug_ranges  0x00000000000016c8       0x30 build/list.o
 .debug_ranges  0x00000000000016f8      0x218 build/queue.o
 .debug_ranges  0x0000000000001910      0x338 build/tasks.o
 .debug_ranges  0x0000000000001c48       0xe0 build/timers.o
 .debug_ranges  0x0000000000001d28      0x2a8 build/cmsis_os2.o
 .debug_ranges  0x0000000000001fd0       0x48 build/heap_4.o
 .debug_ranges  0x0000000000002018       0x88 build/port.o
 .debug_ranges  0x00000000000020a0       0x28 build/startup_stm32wb55xx_cm4.o
 .debug_ranges  0x00000000000020c8       0x18 /usr/lib/gcc/arm-none-eabi/8.3.1/../../../arm-none-eabi/lib/thumb/v7e-m+fp/hard/libc_nano.a(lib_a-nano-freer.o)
 .debug_ranges  0x00000000000020e0       0x38 /usr/lib/gcc/arm-none-eabi/8.3.1/../../../arm-none-eabi/lib/thumb/v7e-m+fp/hard/libc_nano.a(lib_a-nano-mallocr.o)
 .debug_ranges  0x0000000000002118       0x28 /usr/lib/gcc/arm-none-eabi/8.3.1/../../../arm-none-eabi/lib/thumb/v7e-m+fp/hard/libc_nano.a(lib_a-nano-vfprintf.o)
 .debug_ranges  0x0000000000002140       0x30 /usr/lib/gcc/arm-none-eabi/8.3.1/../../../arm-none-eabi/lib/thumb/v7e-m+fp/hard/libc_nano.a(lib_a-nano-vfprintf_float.o)
 .debug_ranges  0x0000000000002170       0x98 /usr/lib/gcc/arm-none-eabi/8.3.1/../../../arm-none-eabi/lib/thumb/v7e-m+fp/hard/libc_nano.a(lib_a-nano-vfprintf_i.o)
 .debug_ranges  0x0000000000002208       0x68 /usr/lib/gcc/arm-none-eabi/8.3.1/../../../arm-none-eabi/lib/thumb/v7e-m+fp/hard/libc_nano.a(lib_a-puts.o)
 .debug_ranges  0x0000000000002270       0x20 /usr/lib/gcc/arm-none-eabi/8.3.1/../../../arm-none-eabi/lib/thumb/v7e-m+fp/hard/libc_nano.a(lib_a-setvbuf.o)
 .debug_ranges  0x0000000000002290       0x30 /usr/lib/gcc/arm-none-eabi/8.3.1/../../../arm-none-eabi/lib/thumb/v7e-m+fp/hard/libc_nano.a(lib_a-signal.o)
 .debug_ranges  0x00000000000022c0       0x20 /usr/lib/gcc/arm-none-eabi/8.3.1/../../../arm-none-eabi/lib/thumb/v7e-m+fp/hard/libc_nano.a(lib_a-wbuf.o)
 .debug_ranges  0x00000000000022e0       0x30 /usr/lib/gcc/arm-none-eabi/8.3.1/../../../arm-none-eabi/lib/thumb/v7e-m+fp/hard/libc_nano.a(lib_a-wsetup.o)
 .debug_ranges  0x0000000000002310       0x60 /usr/lib/gcc/arm-none-eabi/8.3.1/../../../arm-none-eabi/lib/thumb/v7e-m+fp/hard/libc_nano.a(lib_a-dtoa.o)
 .debug_ranges  0x0000000000002370       0x68 /usr/lib/gcc/arm-none-eabi/8.3.1/../../../arm-none-eabi/lib/thumb/v7e-m+fp/hard/libc_nano.a(lib_a-fflush.o)
 .debug_ranges  0x00000000000023d8       0xe8 /usr/lib/gcc/arm-none-eabi/8.3.1/../../../arm-none-eabi/lib/thumb/v7e-m+fp/hard/libc_nano.a(lib_a-findfp.o)
 .debug_ranges  0x00000000000024c0       0x18 /usr/lib/gcc/arm-none-eabi/8.3.1/../../../arm-none-eabi/lib/thumb/v7e-m+fp/hard/libc_nano.a(lib_a-fvwrite.o)
 .debug_ranges  0x00000000000024d8       0x58 /usr/lib/gcc/arm-none-eabi/8.3.1/../../../arm-none-eabi/lib/thumb/v7e-m+fp/hard/libc_nano.a(lib_a-getc.o)
 .debug_ranges  0x0000000000002530       0x28 /usr/lib/gcc/arm-none-eabi/8.3.1/../../../arm-none-eabi/lib/thumb/v7e-m+fp/hard/libc_nano.a(lib_a-makebuf.o)
 .debug_ranges  0x0000000000002558      0x160 /usr/lib/gcc/arm-none-eabi/8.3.1/../../../arm-none-eabi/lib/thumb/v7e-m+fp/hard/libc_nano.a(lib_a-mprec.o)
 .debug_ranges  0x00000000000026b8       0xa8 /usr/lib/gcc/arm-none-eabi/8.3.1/../../../arm-none-eabi/lib/thumb/v7e-m+fp/hard/libc_nano.a(lib_a-putc.o)
 .debug_ranges  0x0000000000002760       0x20 /usr/lib/gcc/arm-none-eabi/8.3.1/../../../arm-none-eabi/lib/thumb/v7e-m+fp/hard/libc_nano.a(lib_a-rget.o)
 .debug_ranges  0x0000000000002780       0x20 /usr/lib/gcc/arm-none-eabi/8.3.1/../../../arm-none-eabi/lib/thumb/v7e-m+fp/hard/libc_nano.a(lib_a-refill.o)
 .debug_ranges  0x00000000000027a0       0xd8 /usr/lib/gcc/arm-none-eabi/8.3.1/thumb/v7e-m+fp/hard/libgcc.a(_udivmoddi4.o)

.debug_line     0x0000000000000000    0x2cf2f
 .debug_line    0x0000000000000000      0xb13 build/run.o
 .debug_line    0x0000000000000b13      0x42e build/retarget.o
 .debug_line    0x0000000000000f41      0x778 build/main.o
 .debug_line    0x00000000000016b9      0x4b6 build/encrypt.o
 .debug_line    0x0000000000001b6f      0x794 build/sha256.o
 .debug_line    0x0000000000002303      0x8b0 build/aes.o
 .debug_line    0x0000000000002bb3      0x267 build/stm32wbxx_it.o
 .debug_line    0x0000000000002e1a      0x2be build/stm32wbxx_hal_msp.o
 .debug_line    0x00000000000030d8      0x2a7 build/stm32wbxx_hal_timebase_tim.o
 .debug_line    0x000000000000337f     0x19f8 build/stm32wbxx_hal_rcc.o
 .debug_line    0x0000000000004d77     0x24c3 build/stm32wbxx_hal_rcc_ex.o
 .debug_line    0x000000000000723a      0x671 build/stm32wbxx_hal_gpio.o
 .debug_line    0x00000000000078ab      0xc00 build/stm32wbxx_hal_dma.o
 .debug_line    0x00000000000084ab      0x481 build/stm32wbxx_hal_pwr.o
 .debug_line    0x000000000000892c      0xd24 build/stm32wbxx_hal_pwr_ex.o
 .debug_line    0x0000000000009650      0x706 build/stm32wbxx_hal_cortex.o
 .debug_line    0x0000000000009d56      0x99c build/stm32wbxx_hal.o
 .debug_line    0x000000000000a6f2     0x5999 build/stm32wbxx_hal_uart.o
 .debug_line    0x000000000001008b      0xbef build/stm32wbxx_hal_uart_ex.o
 .debug_line    0x0000000000010c7a     0x4869 build/stm32wbxx_hal_tim.o
 .debug_line    0x00000000000154e3     0x1d67 build/stm32wbxx_hal_tim_ex.o
 .debug_line    0x000000000001724a      0x2b2 build/system_stm32wbxx.o
 .debug_line    0x00000000000174fc      0x34e build/list.o
 .debug_line    0x000000000001784a     0x1efb build/queue.o
 .debug_line    0x0000000000019745     0x2bf3 build/tasks.o
 .debug_line    0x000000000001c338      0xe50 build/timers.o
 .debug_line    0x000000000001d188     0x2a07 build/cmsis_os2.o
 .debug_line    0x000000000001fb8f      0x6b1 build/heap_4.o
 .debug_line    0x0000000000020240      0x63a build/port.o
 .debug_line    0x000000000002087a       0x83 build/startup_stm32wb55xx_cm4.o
 .debug_line    0x00000000000208fd      0x15f /usr/lib/gcc/arm-none-eabi/8.3.1/../../../arm-none-eabi/lib/thumb/v7e-m+fp/hard/libc_nano.a(lib_a-abort.o)
 .debug_line    0x0000000000020a5c      0x108 /usr/lib/gcc/arm-none-eabi/8.3.1/../../../arm-none-eabi/lib/thumb/v7e-m+fp/hard/libc_nano.a(lib_a-errno.o)
 .debug_line    0x0000000000020b64      0x19a /usr/lib/gcc/arm-none-eabi/8.3.1/../../../arm-none-eabi/lib/thumb/v7e-m+fp/hard/libc_nano.a(lib_a-fprintf.o)
 .debug_line    0x0000000000020cfe      0x1f5 /usr/lib/gcc/arm-none-eabi/8.3.1/../../../arm-none-eabi/lib/thumb/v7e-m+fp/hard/libc_nano.a(lib_a-getchar.o)
 .debug_line    0x0000000000020ef3       0xe3 /usr/lib/gcc/arm-none-eabi/8.3.1/../../../arm-none-eabi/lib/thumb/v7e-m+fp/hard/libc_nano.a(lib_a-impure.o)
 .debug_line    0x0000000000020fd6      0x10d /usr/lib/gcc/arm-none-eabi/8.3.1/../../../arm-none-eabi/lib/thumb/v7e-m+fp/hard/libc_nano.a(lib_a-init.o)
 .debug_line    0x00000000000210e3      0x15e /usr/lib/gcc/arm-none-eabi/8.3.1/../../../arm-none-eabi/lib/thumb/v7e-m+fp/hard/libc_nano.a(lib_a-malloc.o)
 .debug_line    0x0000000000021241       0xa4 /usr/lib/gcc/arm-none-eabi/8.3.1/../../../arm-none-eabi/lib/thumb/v7e-m+fp/hard/libc_nano.a(lib_a-memchr.o)
 .debug_line    0x00000000000212e5      0x1d4 /usr/lib/gcc/arm-none-eabi/8.3.1/../../../arm-none-eabi/lib/thumb/v7e-m+fp/hard/libc_nano.a(lib_a-memcmp.o)
 .debug_line    0x00000000000214b9       0xbe /usr/lib/gcc/arm-none-eabi/8.3.1/../../../arm-none-eabi/lib/thumb/v7e-m+fp/hard/libc_nano.a(lib_a-memcpy.o)
 .debug_line    0x0000000000021577      0x26b /usr/lib/gcc/arm-none-eabi/8.3.1/../../../arm-none-eabi/lib/thumb/v7e-m+fp/hard/libc_nano.a(lib_a-memset.o)
 .debug_line    0x00000000000217e2      0x2af /usr/lib/gcc/arm-none-eabi/8.3.1/../../../arm-none-eabi/lib/thumb/v7e-m+fp/hard/libc_nano.a(lib_a-nano-freer.o)
 .debug_line    0x0000000000021a91      0x2f2 /usr/lib/gcc/arm-none-eabi/8.3.1/../../../arm-none-eabi/lib/thumb/v7e-m+fp/hard/libc_nano.a(lib_a-nano-mallocr.o)
 .debug_line    0x0000000000021d83      0x726 /usr/lib/gcc/arm-none-eabi/8.3.1/../../../arm-none-eabi/lib/thumb/v7e-m+fp/hard/libc_nano.a(lib_a-nano-vfprintf.o)
 .debug_line    0x00000000000224a9      0x9cc /usr/lib/gcc/arm-none-eabi/8.3.1/../../../arm-none-eabi/lib/thumb/v7e-m+fp/hard/libc_nano.a(lib_a-nano-vfprintf_float.o)
 .debug_line    0x0000000000022e75      0x790 /usr/lib/gcc/arm-none-eabi/8.3.1/../../../arm-none-eabi/lib/thumb/v7e-m+fp/hard/libc_nano.a(lib_a-nano-vfprintf_i.o)
 .debug_line    0x0000000000023605      0x1fc /usr/lib/gcc/arm-none-eabi/8.3.1/../../../arm-none-eabi/lib/thumb/v7e-m+fp/hard/libc_nano.a(lib_a-printf.o)
 .debug_line    0x0000000000023801      0x1ec /usr/lib/gcc/arm-none-eabi/8.3.1/../../../arm-none-eabi/lib/thumb/v7e-m+fp/hard/libc_nano.a(lib_a-putchar.o)
 .debug_line    0x00000000000239ed      0x316 /usr/lib/gcc/arm-none-eabi/8.3.1/../../../arm-none-eabi/lib/thumb/v7e-m+fp/hard/libc_nano.a(lib_a-puts.o)
 .debug_line    0x0000000000023d03      0x182 /usr/lib/gcc/arm-none-eabi/8.3.1/../../../arm-none-eabi/lib/thumb/v7e-m+fp/hard/libc_nano.a(lib_a-sbrkr.o)
 .debug_line    0x0000000000023e85      0x378 /usr/lib/gcc/arm-none-eabi/8.3.1/../../../arm-none-eabi/lib/thumb/v7e-m+fp/hard/libc_nano.a(lib_a-setvbuf.o)
 .debug_line    0x00000000000241fd      0x3cc /usr/lib/gcc/arm-none-eabi/8.3.1/../../../arm-none-eabi/lib/thumb/v7e-m+fp/hard/libc_nano.a(lib_a-signal.o)
 .debug_line    0x00000000000245c9      0x1a4 /usr/lib/gcc/arm-none-eabi/8.3.1/../../../arm-none-eabi/lib/thumb/v7e-m+fp/hard/libc_nano.a(lib_a-signalr.o)
 .debug_line    0x000000000002476d       0xaf /usr/lib/gcc/arm-none-eabi/8.3.1/../../../arm-none-eabi/lib/thumb/v7e-m+fp/hard/libc_nano.a(lib_a-strlen.o)
 .debug_line    0x000000000002481c      0x232 /usr/lib/gcc/arm-none-eabi/8.3.1/../../../arm-none-eabi/lib/thumb/v7e-m+fp/hard/libc_nano.a(lib_a-strncmp.o)
 .debug_line    0x0000000000024a4e      0x1e5 /usr/lib/gcc/arm-none-eabi/8.3.1/../../../arm-none-eabi/lib/thumb/v7e-m+fp/hard/libc_nano.a(lib_a-strncpy.o)
 .debug_line    0x0000000000024c33      0x379 /usr/lib/gcc/arm-none-eabi/8.3.1/../../../arm-none-eabi/lib/thumb/v7e-m+fp/hard/libc_nano.a(lib_a-strtoul.o)
 .debug_line    0x0000000000024fac      0x27c /usr/lib/gcc/arm-none-eabi/8.3.1/../../../arm-none-eabi/lib/thumb/v7e-m+fp/hard/libc_nano.a(lib_a-wbuf.o)
 .debug_line    0x0000000000025228      0x311 /usr/lib/gcc/arm-none-eabi/8.3.1/../../../arm-none-eabi/lib/thumb/v7e-m+fp/hard/libc_nano.a(lib_a-wsetup.o)
 .debug_line    0x0000000000025539      0x154 /usr/lib/gcc/arm-none-eabi/8.3.1/../../../arm-none-eabi/lib/thumb/v7e-m+fp/hard/libc_nano.a(lib_a-ctype_.o)
 .debug_line    0x000000000002568d     0x13f3 /usr/lib/gcc/arm-none-eabi/8.3.1/../../../arm-none-eabi/lib/thumb/v7e-m+fp/hard/libc_nano.a(lib_a-dtoa.o)
 .debug_line    0x0000000000026a80      0x418 /usr/lib/gcc/arm-none-eabi/8.3.1/../../../arm-none-eabi/lib/thumb/v7e-m+fp/hard/libc_nano.a(lib_a-fflush.o)
 .debug_line    0x0000000000026e98      0x561 /usr/lib/gcc/arm-none-eabi/8.3.1/../../../arm-none-eabi/lib/thumb/v7e-m+fp/hard/libc_nano.a(lib_a-findfp.o)
 .debug_line    0x00000000000273f9      0x5e8 /usr/lib/gcc/arm-none-eabi/8.3.1/../../../arm-none-eabi/lib/thumb/v7e-m+fp/hard/libc_nano.a(lib_a-fvwrite.o)
 .debug_line    0x00000000000279e1      0x289 /usr/lib/gcc/arm-none-eabi/8.3.1/../../../arm-none-eabi/lib/thumb/v7e-m+fp/hard/libc_nano.a(lib_a-fwalk.o)
 .debug_line    0x0000000000027c6a      0x2f2 /usr/lib/gcc/arm-none-eabi/8.3.1/../../../arm-none-eabi/lib/thumb/v7e-m+fp/hard/libc_nano.a(lib_a-getc.o)
 .debug_line    0x0000000000027f5c      0x1ca /usr/lib/gcc/arm-none-eabi/8.3.1/../../../arm-none-eabi/lib/thumb/v7e-m+fp/hard/libc_nano.a(lib_a-localeconv.o)
 .debug_line    0x0000000000028126      0x36f /usr/lib/gcc/arm-none-eabi/8.3.1/../../../arm-none-eabi/lib/thumb/v7e-m+fp/hard/libc_nano.a(lib_a-makebuf.o)
 .debug_line    0x0000000000028495      0x287 /usr/lib/gcc/arm-none-eabi/8.3.1/../../../arm-none-eabi/lib/thumb/v7e-m+fp/hard/libc_nano.a(lib_a-memmove.o)
 .debug_line    0x000000000002871c      0x13d /usr/lib/gcc/arm-none-eabi/8.3.1/../../../arm-none-eabi/lib/thumb/v7e-m+fp/hard/libc_nano.a(lib_a-mlock.o)
 .debug_line    0x0000000000028859     0x148d /usr/lib/gcc/arm-none-eabi/8.3.1/../../../arm-none-eabi/lib/thumb/v7e-m+fp/hard/libc_nano.a(lib_a-mprec.o)
 .debug_line    0x0000000000029ce6      0x17a /usr/lib/gcc/arm-none-eabi/8.3.1/../../../arm-none-eabi/lib/thumb/v7e-m+fp/hard/libc_nano.a(lib_a-nano-callocr.o)
 .debug_line    0x0000000000029e60      0x1c5 /usr/lib/gcc/arm-none-eabi/8.3.1/../../../arm-none-eabi/lib/thumb/v7e-m+fp/hard/libc_nano.a(lib_a-nano-reallocr.o)
 .debug_line    0x000000000002a025      0x364 /usr/lib/gcc/arm-none-eabi/8.3.1/../../../arm-none-eabi/lib/thumb/v7e-m+fp/hard/libc_nano.a(lib_a-putc.o)
 .debug_line    0x000000000002a389      0x275 /usr/lib/gcc/arm-none-eabi/8.3.1/../../../arm-none-eabi/lib/thumb/v7e-m+fp/hard/libc_nano.a(lib_a-reent.o)
 .debug_line    0x000000000002a5fe      0x1ef /usr/lib/gcc/arm-none-eabi/8.3.1/../../../arm-none-eabi/lib/thumb/v7e-m+fp/hard/libc_nano.a(lib_a-rget.o)
 .debug_line    0x000000000002a7ed      0x25f /usr/lib/gcc/arm-none-eabi/8.3.1/../../../arm-none-eabi/lib/thumb/v7e-m+fp/hard/libc_nano.a(lib_a-stdio.o)
 .debug_line    0x000000000002aa4c      0x188 /usr/lib/gcc/arm-none-eabi/8.3.1/../../../arm-none-eabi/lib/thumb/v7e-m+fp/hard/libc_nano.a(lib_a-writer.o)
 .debug_line    0x000000000002abd4      0x18d /usr/lib/gcc/arm-none-eabi/8.3.1/../../../arm-none-eabi/lib/thumb/v7e-m+fp/hard/libc_nano.a(lib_a-assert.o)
 .debug_line    0x000000000002ad61      0x182 /usr/lib/gcc/arm-none-eabi/8.3.1/../../../arm-none-eabi/lib/thumb/v7e-m+fp/hard/libc_nano.a(lib_a-closer.o)
 .debug_line    0x000000000002aee3      0x213 /usr/lib/gcc/arm-none-eabi/8.3.1/../../../arm-none-eabi/lib/thumb/v7e-m+fp/hard/libc_nano.a(lib_a-fstatr.o)
 .debug_line    0x000000000002b0f6      0x183 /usr/lib/gcc/arm-none-eabi/8.3.1/../../../arm-none-eabi/lib/thumb/v7e-m+fp/hard/libc_nano.a(lib_a-isattyr.o)
 .debug_line    0x000000000002b279      0x252 /usr/lib/gcc/arm-none-eabi/8.3.1/../../../arm-none-eabi/lib/thumb/v7e-m+fp/hard/libc_nano.a(lib_a-locale.o)
 .debug_line    0x000000000002b4cb      0x188 /usr/lib/gcc/arm-none-eabi/8.3.1/../../../arm-none-eabi/lib/thumb/v7e-m+fp/hard/libc_nano.a(lib_a-lseekr.o)
 .debug_line    0x000000000002b653      0x228 /usr/lib/gcc/arm-none-eabi/8.3.1/../../../arm-none-eabi/lib/thumb/v7e-m+fp/hard/libc_nano.a(lib_a-mbtowc_r.o)
 .debug_line    0x000000000002b87b      0x166 /usr/lib/gcc/arm-none-eabi/8.3.1/../../../arm-none-eabi/lib/thumb/v7e-m+fp/hard/libc_nano.a(lib_a-nano-msizer.o)
 .debug_line    0x000000000002b9e1      0x187 /usr/lib/gcc/arm-none-eabi/8.3.1/../../../arm-none-eabi/lib/thumb/v7e-m+fp/hard/libc_nano.a(lib_a-readr.o)
 .debug_line    0x000000000002bb68      0x373 /usr/lib/gcc/arm-none-eabi/8.3.1/../../../arm-none-eabi/lib/thumb/v7e-m+fp/hard/libc_nano.a(lib_a-refill.o)
 .debug_line    0x000000000002bedb      0x212 /usr/lib/gcc/arm-none-eabi/8.3.1/../../../arm-none-eabi/lib/thumb/v7e-m+fp/hard/libc_nano.a(lib_a-wctomb_r.o)
 .debug_line    0x000000000002c0ed      0x10b /usr/lib/gcc/arm-none-eabi/8.3.1/../../../arm-none-eabi/lib/thumb/v7e-m+fp/hard/libnosys.a(getpid.o)
 .debug_line    0x000000000002c1f8      0x10a /usr/lib/gcc/arm-none-eabi/8.3.1/../../../arm-none-eabi/lib/thumb/v7e-m+fp/hard/libnosys.a(kill.o)
 .debug_line    0x000000000002c302       0x79 /usr/lib/gcc/arm-none-eabi/8.3.1/../../../arm-none-eabi/lib/thumb/v7e-m+fp/hard/libnosys.a(sbrk.o)
 .debug_line    0x000000000002c37b       0x6e /usr/lib/gcc/arm-none-eabi/8.3.1/../../../arm-none-eabi/lib/thumb/v7e-m+fp/hard/libnosys.a(_exit.o)
 .debug_line    0x000000000002c3e9      0x185 /usr/lib/gcc/arm-none-eabi/8.3.1/thumb/v7e-m+fp/hard/libgcc.a(_arm_addsubdf3.o)
 .debug_line    0x000000000002c56e      0x19e /usr/lib/gcc/arm-none-eabi/8.3.1/thumb/v7e-m+fp/hard/libgcc.a(_arm_muldivdf3.o)
 .debug_line    0x000000000002c70c       0xbd /usr/lib/gcc/arm-none-eabi/8.3.1/thumb/v7e-m+fp/hard/libgcc.a(_arm_cmpdf2.o)
 .debug_line    0x000000000002c7c9       0x6e /usr/lib/gcc/arm-none-eabi/8.3.1/thumb/v7e-m+fp/hard/libgcc.a(_arm_unorddf2.o)
 .debug_line    0x000000000002c837       0x79 /usr/lib/gcc/arm-none-eabi/8.3.1/thumb/v7e-m+fp/hard/libgcc.a(_arm_fixdfsi.o)
 .debug_line    0x000000000002c8b0       0x60 /usr/lib/gcc/arm-none-eabi/8.3.1/thumb/v7e-m+fp/hard/libgcc.a(_aeabi_uldivmod.o)
 .debug_line    0x000000000002c910      0x5bf /usr/lib/gcc/arm-none-eabi/8.3.1/thumb/v7e-m+fp/hard/libgcc.a(_udivmoddi4.o)
 .debug_line    0x000000000002cecf       0x60 /usr/lib/gcc/arm-none-eabi/8.3.1/thumb/v7e-m+fp/hard/libgcc.a(_dvmd_tls.o)

.debug_str      0x0000000000000000     0xdad7
 .debug_str     0x0000000000000000      0x809 build/run.o
                                        0x934 (size before relaxing)
 .debug_str     0x0000000000000809      0x7f5 build/retarget.o
                                        0xe18 (size before relaxing)
 .debug_str     0x0000000000000ffe      0xf10 build/main.o
                                       0x1ccd (size before relaxing)
 .debug_str     0x0000000000001f0e       0xab build/encrypt.o
                                        0x67a (size before relaxing)
 .debug_str     0x0000000000001fb9       0x89 build/sha256.o
                                        0x671 (size before relaxing)
 .debug_str     0x0000000000002042       0xcf build/aes.o
                                        0x679 (size before relaxing)
 .debug_str     0x0000000000002111       0xd5 build/stm32wbxx_it.o
                                        0xbe1 (size before relaxing)
 .debug_str     0x00000000000021e6      0x4d4 build/stm32wbxx_hal_msp.o
                                        0xf86 (size before relaxing)
 .debug_str     0x00000000000026ba       0xe3 build/stm32wbxx_hal_timebase_tim.o
                                       0x10cf (size before relaxing)
 .debug_str     0x000000000000279d      0x897 build/stm32wbxx_hal_rcc.o
                                       0x1113 (size before relaxing)
 .debug_str     0x0000000000003034      0xc07 build/stm32wbxx_hal_rcc_ex.o
                                       0x16b8 (size before relaxing)
 .debug_str     0x0000000000003c3b      0x115 build/stm32wbxx_hal_gpio.o
                                        0x5a6 (size before relaxing)
 .debug_str     0x0000000000003d50      0x2a6 build/stm32wbxx_hal_dma.o
                                        0x8b2 (size before relaxing)
 .debug_str     0x0000000000003ff6      0x321 build/stm32wbxx_hal_pwr.o
                                        0x7e5 (size before relaxing)
 .debug_str     0x0000000000004317      0x867 build/stm32wbxx_hal_pwr_ex.o
                                        0xe8e (size before relaxing)
 .debug_str     0x0000000000004b7e      0x43a build/stm32wbxx_hal_cortex.o
                                        0xc6b (size before relaxing)
 .debug_str     0x0000000000004fb8      0x75d build/stm32wbxx_hal.o
                                       0x131a (size before relaxing)
 .debug_str     0x0000000000005715      0x812 build/stm32wbxx_hal_uart.o
                                       0x13f9 (size before relaxing)
 .debug_str     0x0000000000005f27      0x22d build/stm32wbxx_hal_uart_ex.o
                                        0xc21 (size before relaxing)
 .debug_str     0x0000000000006154      0xec1 build/stm32wbxx_hal_tim.o
                                       0x18e5 (size before relaxing)
 .debug_str     0x0000000000007015      0x6e8 build/stm32wbxx_hal_tim_ex.o
                                       0x1251 (size before relaxing)
 .debug_str     0x00000000000076fd       0x57 build/system_stm32wbxx.o
                                        0x5ca (size before relaxing)
 .debug_str     0x0000000000007754      0x14d build/list.o
                                        0x6e0 (size before relaxing)
 .debug_str     0x00000000000078a1      0xa1a build/queue.o
                                       0x10e3 (size before relaxing)
 .debug_str     0x00000000000082bb      0xc95 build/tasks.o
                                       0x16b0 (size before relaxing)
 .debug_str     0x0000000000008f50      0x5d8 build/timers.o
                                       0x101c (size before relaxing)
 .debug_str     0x0000000000009528      0xc22 build/cmsis_os2.o
                                       0x2578 (size before relaxing)
 .debug_str     0x000000000000a14a      0x2bf build/heap_4.o
                                        0x8e4 (size before relaxing)
 .debug_str     0x000000000000a409      0x17d build/port.o
                                        0x45d (size before relaxing)
 .debug_str     0x000000000000a586       0x28 build/startup_stm32wb55xx_cm4.o
                                         0x40 (size before relaxing)
 .debug_str     0x000000000000a5ae      0x1d7 /usr/lib/gcc/arm-none-eabi/8.3.1/../../../arm-none-eabi/lib/thumb/v7e-m+fp/hard/libc_nano.a(lib_a-abort.o)
                                        0x620 (size before relaxing)
 .debug_str     0x000000000000a785       0x93 /usr/lib/gcc/arm-none-eabi/8.3.1/../../../arm-none-eabi/lib/thumb/v7e-m+fp/hard/libc_nano.a(lib_a-errno.o)
                                        0x5f4 (size before relaxing)
 .debug_str     0x000000000000a818       0xca /usr/lib/gcc/arm-none-eabi/8.3.1/../../../arm-none-eabi/lib/thumb/v7e-m+fp/hard/libc_nano.a(lib_a-fprintf.o)
                                        0x621 (size before relaxing)
 .debug_str     0x000000000000a8e2      0x149 /usr/lib/gcc/arm-none-eabi/8.3.1/../../../arm-none-eabi/lib/thumb/v7e-m+fp/hard/libc_nano.a(lib_a-getchar.o)
                                        0x73b (size before relaxing)
 .debug_str     0x000000000000aa2b       0xa0 /usr/lib/gcc/arm-none-eabi/8.3.1/../../../arm-none-eabi/lib/thumb/v7e-m+fp/hard/libc_nano.a(lib_a-impure.o)
                                        0x5e2 (size before relaxing)
 .debug_str     0x000000000000aacb       0xf0 /usr/lib/gcc/arm-none-eabi/8.3.1/../../../arm-none-eabi/lib/thumb/v7e-m+fp/hard/libc_nano.a(lib_a-init.o)
                                        0x229 (size before relaxing)
 .debug_str     0x000000000000abbb       0x52 /usr/lib/gcc/arm-none-eabi/8.3.1/../../../arm-none-eabi/lib/thumb/v7e-m+fp/hard/libc_nano.a(lib_a-malloc.o)
                                        0x613 (size before relaxing)
 .debug_str     0x000000000000ac0d       0xb2 /usr/lib/gcc/arm-none-eabi/8.3.1/../../../arm-none-eabi/lib/thumb/v7e-m+fp/hard/libc_nano.a(lib_a-memchr.o)
 .debug_str     0x000000000000acbf       0x96 /usr/lib/gcc/arm-none-eabi/8.3.1/../../../arm-none-eabi/lib/thumb/v7e-m+fp/hard/libc_nano.a(lib_a-memcmp.o)
                                        0x5e6 (size before relaxing)
 .debug_str     0x000000000000ad55       0x43 /usr/lib/gcc/arm-none-eabi/8.3.1/../../../arm-none-eabi/lib/thumb/v7e-m+fp/hard/libc_nano.a(lib_a-memcpy.o)
                                         0xb9 (size before relaxing)
 .debug_str     0x000000000000ad98      0x29a /usr/lib/gcc/arm-none-eabi/8.3.1/../../../arm-none-eabi/lib/thumb/v7e-m+fp/hard/libc_nano.a(lib_a-memset.o)
                                        0x90f (size before relaxing)
 .debug_str     0x000000000000b032      0x120 /usr/lib/gcc/arm-none-eabi/8.3.1/../../../arm-none-eabi/lib/thumb/v7e-m+fp/hard/libc_nano.a(lib_a-nano-freer.o)
                                        0x712 (size before relaxing)
 .debug_str     0x000000000000b152       0x32 /usr/lib/gcc/arm-none-eabi/8.3.1/../../../arm-none-eabi/lib/thumb/v7e-m+fp/hard/libc_nano.a(lib_a-nano-mallocr.o)
                                        0x729 (size before relaxing)
 .debug_str     0x000000000000b184      0x1a7 /usr/lib/gcc/arm-none-eabi/8.3.1/../../../arm-none-eabi/lib/thumb/v7e-m+fp/hard/libc_nano.a(lib_a-nano-vfprintf.o)
                                        0xc2e (size before relaxing)
 .debug_str     0x000000000000b32b       0xfd /usr/lib/gcc/arm-none-eabi/8.3.1/../../../arm-none-eabi/lib/thumb/v7e-m+fp/hard/libc_nano.a(lib_a-nano-vfprintf_float.o)
                                        0xc2f (size before relaxing)
 .debug_str     0x000000000000b428       0x6a /usr/lib/gcc/arm-none-eabi/8.3.1/../../../arm-none-eabi/lib/thumb/v7e-m+fp/hard/libc_nano.a(lib_a-nano-vfprintf_i.o)
                                        0xbac (size before relaxing)
 .debug_str     0x000000000000b492       0x3d /usr/lib/gcc/arm-none-eabi/8.3.1/../../../arm-none-eabi/lib/thumb/v7e-m+fp/hard/libc_nano.a(lib_a-printf.o)
                                        0x75c (size before relaxing)
 .debug_str     0x000000000000b4cf       0x47 /usr/lib/gcc/arm-none-eabi/8.3.1/../../../arm-none-eabi/lib/thumb/v7e-m+fp/hard/libc_nano.a(lib_a-putchar.o)
                                        0x73b (size before relaxing)
 .debug_str     0x000000000000b516       0x43 /usr/lib/gcc/arm-none-eabi/8.3.1/../../../arm-none-eabi/lib/thumb/v7e-m+fp/hard/libc_nano.a(lib_a-puts.o)
                                        0x765 (size before relaxing)
 .debug_str     0x000000000000b559       0x47 /usr/lib/gcc/arm-none-eabi/8.3.1/../../../arm-none-eabi/lib/thumb/v7e-m+fp/hard/libc_nano.a(lib_a-sbrkr.o)
                                        0x625 (size before relaxing)
 .debug_str     0x000000000000b5a0       0x5a /usr/lib/gcc/arm-none-eabi/8.3.1/../../../arm-none-eabi/lib/thumb/v7e-m+fp/hard/libc_nano.a(lib_a-setvbuf.o)
                                        0x783 (size before relaxing)
 .debug_str     0x000000000000b5fa       0xfc /usr/lib/gcc/arm-none-eabi/8.3.1/../../../arm-none-eabi/lib/thumb/v7e-m+fp/hard/libc_nano.a(lib_a-signal.o)
                                        0x685 (size before relaxing)
 .debug_str     0x000000000000b6f6       0x42 /usr/lib/gcc/arm-none-eabi/8.3.1/../../../arm-none-eabi/lib/thumb/v7e-m+fp/hard/libc_nano.a(lib_a-signalr.o)
                                        0x62a (size before relaxing)
 .debug_str     0x000000000000b738       0x42 /usr/lib/gcc/arm-none-eabi/8.3.1/../../../arm-none-eabi/lib/thumb/v7e-m+fp/hard/libc_nano.a(lib_a-strlen.o)
                                         0xb8 (size before relaxing)
 .debug_str     0x000000000000b77a       0x35 /usr/lib/gcc/arm-none-eabi/8.3.1/../../../arm-none-eabi/lib/thumb/v7e-m+fp/hard/libc_nano.a(lib_a-strncmp.o)
                                        0x5e8 (size before relaxing)
 .debug_str     0x000000000000b7af       0x57 /usr/lib/gcc/arm-none-eabi/8.3.1/../../../arm-none-eabi/lib/thumb/v7e-m+fp/hard/libc_nano.a(lib_a-strncpy.o)
                                        0x610 (size before relaxing)
 .debug_str     0x000000000000b806       0xab /usr/lib/gcc/arm-none-eabi/8.3.1/../../../arm-none-eabi/lib/thumb/v7e-m+fp/hard/libc_nano.a(lib_a-strtoul.o)
                                        0x9a2 (size before relaxing)
 .debug_str     0x000000000000b8b1       0x39 /usr/lib/gcc/arm-none-eabi/8.3.1/../../../arm-none-eabi/lib/thumb/v7e-m+fp/hard/libc_nano.a(lib_a-wbuf.o)
                                        0x76b (size before relaxing)
 .debug_str     0x000000000000b8ea       0x40 /usr/lib/gcc/arm-none-eabi/8.3.1/../../../arm-none-eabi/lib/thumb/v7e-m+fp/hard/libc_nano.a(lib_a-wsetup.o)
                                        0x766 (size before relaxing)
 .debug_str     0x000000000000b92a       0x94 /usr/lib/gcc/arm-none-eabi/8.3.1/../../../arm-none-eabi/lib/thumb/v7e-m+fp/hard/libc_nano.a(lib_a-ctype_.o)
                                        0x8fa (size before relaxing)
 .debug_str     0x000000000000b9be      0x17e /usr/lib/gcc/arm-none-eabi/8.3.1/../../../arm-none-eabi/lib/thumb/v7e-m+fp/hard/libc_nano.a(lib_a-dtoa.o)
                                        0xae6 (size before relaxing)
 .debug_str     0x000000000000bb3c       0x63 /usr/lib/gcc/arm-none-eabi/8.3.1/../../../arm-none-eabi/lib/thumb/v7e-m+fp/hard/libc_nano.a(lib_a-fflush.o)
                                        0x794 (size before relaxing)
 .debug_str     0x000000000000bb9f      0x14f /usr/lib/gcc/arm-none-eabi/8.3.1/../../../arm-none-eabi/lib/thumb/v7e-m+fp/hard/libc_nano.a(lib_a-findfp.o)
                                        0x8a4 (size before relaxing)
 .debug_str     0x000000000000bcee       0x65 /usr/lib/gcc/arm-none-eabi/8.3.1/../../../arm-none-eabi/lib/thumb/v7e-m+fp/hard/libc_nano.a(lib_a-fvwrite.o)
                                        0x7e5 (size before relaxing)
 .debug_str     0x000000000000bd53       0x41 /usr/lib/gcc/arm-none-eabi/8.3.1/../../../arm-none-eabi/lib/thumb/v7e-m+fp/hard/libc_nano.a(lib_a-fwalk.o)
                                        0x758 (size before relaxing)
 .debug_str     0x000000000000bd94       0x40 /usr/lib/gcc/arm-none-eabi/8.3.1/../../../arm-none-eabi/lib/thumb/v7e-m+fp/hard/libc_nano.a(lib_a-getc.o)
                                        0x750 (size before relaxing)
 .debug_str     0x000000000000bdd4       0xc3 /usr/lib/gcc/arm-none-eabi/8.3.1/../../../arm-none-eabi/lib/thumb/v7e-m+fp/hard/libc_nano.a(lib_a-localeconv.o)
                                        0x974 (size before relaxing)
 .debug_str     0x000000000000be97       0x5f /usr/lib/gcc/arm-none-eabi/8.3.1/../../../arm-none-eabi/lib/thumb/v7e-m+fp/hard/libc_nano.a(lib_a-makebuf.o)
                                        0x8d9 (size before relaxing)
 .debug_str     0x000000000000bef6       0x47 /usr/lib/gcc/arm-none-eabi/8.3.1/../../../arm-none-eabi/lib/thumb/v7e-m+fp/hard/libc_nano.a(lib_a-memmove.o)
                                        0x92e (size before relaxing)
 .debug_str     0x000000000000bf3d       0x4c /usr/lib/gcc/arm-none-eabi/8.3.1/../../../arm-none-eabi/lib/thumb/v7e-m+fp/hard/libc_nano.a(lib_a-mlock.o)
                                        0x60e (size before relaxing)
 .debug_str     0x000000000000bf89       0x8d /usr/lib/gcc/arm-none-eabi/8.3.1/../../../arm-none-eabi/lib/thumb/v7e-m+fp/hard/libc_nano.a(lib_a-mprec.o)
                                        0xa8f (size before relaxing)
 .debug_str     0x000000000000c016        0x5 /usr/lib/gcc/arm-none-eabi/8.3.1/../../../arm-none-eabi/lib/thumb/v7e-m+fp/hard/libc_nano.a(lib_a-nano-callocr.o)
                                        0x6e8 (size before relaxing)
 .debug_str     0x000000000000c01b       0x23 /usr/lib/gcc/arm-none-eabi/8.3.1/../../../arm-none-eabi/lib/thumb/v7e-m+fp/hard/libc_nano.a(lib_a-nano-reallocr.o)
                                        0x70f (size before relaxing)
 .debug_str     0x000000000000c03e       0x36 /usr/lib/gcc/arm-none-eabi/8.3.1/../../../arm-none-eabi/lib/thumb/v7e-m+fp/hard/libc_nano.a(lib_a-putc.o)
                                        0x75f (size before relaxing)
 .debug_str     0x000000000000c074       0x5e /usr/lib/gcc/arm-none-eabi/8.3.1/../../../arm-none-eabi/lib/thumb/v7e-m+fp/hard/libc_nano.a(lib_a-reent.o)
                                        0x61e (size before relaxing)
 .debug_str     0x000000000000c0d2       0x45 /usr/lib/gcc/arm-none-eabi/8.3.1/../../../arm-none-eabi/lib/thumb/v7e-m+fp/hard/libc_nano.a(lib_a-rget.o)
                                        0x761 (size before relaxing)
 .debug_str     0x000000000000c117       0x92 /usr/lib/gcc/arm-none-eabi/8.3.1/../../../arm-none-eabi/lib/thumb/v7e-m+fp/hard/libc_nano.a(lib_a-stdio.o)
                                        0x7ac (size before relaxing)
 .debug_str     0x000000000000c1a9       0x33 /usr/lib/gcc/arm-none-eabi/8.3.1/../../../arm-none-eabi/lib/thumb/v7e-m+fp/hard/libc_nano.a(lib_a-writer.o)
                                        0x622 (size before relaxing)
 .debug_str     0x000000000000c1dc       0x56 /usr/lib/gcc/arm-none-eabi/8.3.1/../../../arm-none-eabi/lib/thumb/v7e-m+fp/hard/libc_nano.a(lib_a-assert.o)
                                        0x622 (size before relaxing)
 .debug_str     0x000000000000c232       0x33 /usr/lib/gcc/arm-none-eabi/8.3.1/../../../arm-none-eabi/lib/thumb/v7e-m+fp/hard/libc_nano.a(lib_a-closer.o)
                                        0x612 (size before relaxing)
 .debug_str     0x000000000000c265       0x39 /usr/lib/gcc/arm-none-eabi/8.3.1/../../../arm-none-eabi/lib/thumb/v7e-m+fp/hard/libc_nano.a(lib_a-fstatr.o)
                                        0x780 (size before relaxing)
 .debug_str     0x000000000000c29e       0x34 /usr/lib/gcc/arm-none-eabi/8.3.1/../../../arm-none-eabi/lib/thumb/v7e-m+fp/hard/libc_nano.a(lib_a-isattyr.o)
                                        0x61c (size before relaxing)
 .debug_str     0x000000000000c2d2       0x7b /usr/lib/gcc/arm-none-eabi/8.3.1/../../../arm-none-eabi/lib/thumb/v7e-m+fp/hard/libc_nano.a(lib_a-locale.o)
                                        0x9b4 (size before relaxing)
 .debug_str     0x000000000000c34d       0x33 /usr/lib/gcc/arm-none-eabi/8.3.1/../../../arm-none-eabi/lib/thumb/v7e-m+fp/hard/libc_nano.a(lib_a-lseekr.o)
                                        0x620 (size before relaxing)
 .debug_str     0x000000000000c380       0x55 /usr/lib/gcc/arm-none-eabi/8.3.1/../../../arm-none-eabi/lib/thumb/v7e-m+fp/hard/libc_nano.a(lib_a-mbtowc_r.o)
                                        0x985 (size before relaxing)
 .debug_str     0x000000000000c3d5        0xf /usr/lib/gcc/arm-none-eabi/8.3.1/../../../arm-none-eabi/lib/thumb/v7e-m+fp/hard/libc_nano.a(lib_a-nano-msizer.o)
                                        0x6ed (size before relaxing)
 .debug_str     0x000000000000c3e4       0x32 /usr/lib/gcc/arm-none-eabi/8.3.1/../../../arm-none-eabi/lib/thumb/v7e-m+fp/hard/libc_nano.a(lib_a-readr.o)
                                        0x620 (size before relaxing)
 .debug_str     0x000000000000c416       0x45 /usr/lib/gcc/arm-none-eabi/8.3.1/../../../arm-none-eabi/lib/thumb/v7e-m+fp/hard/libc_nano.a(lib_a-refill.o)
                                        0x79b (size before relaxing)
 .debug_str     0x000000000000c45b       0x56 /usr/lib/gcc/arm-none-eabi/8.3.1/../../../arm-none-eabi/lib/thumb/v7e-m+fp/hard/libc_nano.a(lib_a-wctomb_r.o)
                                        0x98c (size before relaxing)
 .debug_str     0x000000000000c4b1      0x10a /usr/lib/gcc/arm-none-eabi/8.3.1/../../../arm-none-eabi/lib/thumb/v7e-m+fp/hard/libnosys.a(getpid.o)
                                        0x5a3 (size before relaxing)
 .debug_str     0x000000000000c5bb       0x2e /usr/lib/gcc/arm-none-eabi/8.3.1/../../../arm-none-eabi/lib/thumb/v7e-m+fp/hard/libnosys.a(kill.o)
                                        0x59f (size before relaxing)
 .debug_str     0x000000000000c5e9       0x3c /usr/lib/gcc/arm-none-eabi/8.3.1/../../../arm-none-eabi/lib/thumb/v7e-m+fp/hard/libnosys.a(sbrk.o)
                                        0x12f (size before relaxing)
 .debug_str     0x000000000000c625       0x2f /usr/lib/gcc/arm-none-eabi/8.3.1/../../../arm-none-eabi/lib/thumb/v7e-m+fp/hard/libnosys.a(_exit.o)
                                        0x19f (size before relaxing)
 .debug_str     0x000000000000c654       0xa8 /usr/lib/gcc/arm-none-eabi/8.3.1/thumb/v7e-m+fp/hard/libgcc.a(_arm_addsubdf3.o)
 .debug_str     0x000000000000c6fc       0xa8 /usr/lib/gcc/arm-none-eabi/8.3.1/thumb/v7e-m+fp/hard/libgcc.a(_arm_muldivdf3.o)
 .debug_str     0x000000000000c6fc       0xa8 /usr/lib/gcc/arm-none-eabi/8.3.1/thumb/v7e-m+fp/hard/libgcc.a(_arm_cmpdf2.o)
 .debug_str     0x000000000000c6fc       0xa8 /usr/lib/gcc/arm-none-eabi/8.3.1/thumb/v7e-m+fp/hard/libgcc.a(_arm_unorddf2.o)
 .debug_str     0x000000000000c6fc       0xa8 /usr/lib/gcc/arm-none-eabi/8.3.1/thumb/v7e-m+fp/hard/libgcc.a(_arm_fixdfsi.o)
 .debug_str     0x000000000000c6fc       0x2c /usr/lib/gcc/arm-none-eabi/8.3.1/thumb/v7e-m+fp/hard/libgcc.a(_aeabi_uldivmod.o)
                                         0xa3 (size before relaxing)
 .debug_str     0x000000000000c728     0x137f /usr/lib/gcc/arm-none-eabi/8.3.1/thumb/v7e-m+fp/hard/libgcc.a(_udivmoddi4.o)
                                       0x1484 (size before relaxing)
 .debug_str     0x000000000000daa7       0x30 /usr/lib/gcc/arm-none-eabi/8.3.1/thumb/v7e-m+fp/hard/libgcc.a(_dvmd_tls.o)
                                         0xa7 (size before relaxing)

.debug_frame    0x0000000000000000     0x6158
 .debug_frame   0x0000000000000000      0x220 build/run.o
 .debug_frame   0x0000000000000220       0xc8 build/retarget.o
 .debug_frame   0x00000000000002e8      0x110 build/main.o
 .debug_frame   0x00000000000003f8       0xc8 build/encrypt.o
 .debug_frame   0x00000000000004c0       0xd4 build/sha256.o
 .debug_frame   0x0000000000000594      0x198 build/aes.o
 .debug_frame   0x000000000000072c       0xa0 build/stm32wbxx_it.o
 .debug_frame   0x00000000000007cc       0x60 build/stm32wbxx_hal_msp.o
 .debug_frame   0x000000000000082c       0x50 build/stm32wbxx_hal_timebase_tim.o
 .debug_frame   0x000000000000087c      0x1dc build/stm32wbxx_hal_rcc.o
 .debug_frame   0x0000000000000a58      0x2dc build/stm32wbxx_hal_rcc_ex.o
 .debug_frame   0x0000000000000d34       0xd0 build/stm32wbxx_hal_gpio.o
 .debug_frame   0x0000000000000e04      0x178 build/stm32wbxx_hal_dma.o
 .debug_frame   0x0000000000000f7c      0x120 build/stm32wbxx_hal_pwr.o
 .debug_frame   0x000000000000109c      0x378 build/stm32wbxx_hal_pwr_ex.o
 .debug_frame   0x0000000000001414      0x14c build/stm32wbxx_hal_cortex.o
 .debug_frame   0x0000000000001560      0x2cc build/stm32wbxx_hal.o
 .debug_frame   0x000000000000182c      0x674 build/stm32wbxx_hal_uart.o
 .debug_frame   0x0000000000001ea0      0x1b8 build/stm32wbxx_hal_uart_ex.o
 .debug_frame   0x0000000000002058      0xbf4 build/stm32wbxx_hal_tim.o
 .debug_frame   0x0000000000002c4c      0x530 build/stm32wbxx_hal_tim_ex.o
 .debug_frame   0x000000000000317c       0x30 build/system_stm32wbxx.o
 .debug_frame   0x00000000000031ac       0x6c build/list.o
 .debug_frame   0x0000000000003218      0x458 build/queue.o
 .debug_frame   0x0000000000003670      0x678 build/tasks.o
 .debug_frame   0x0000000000003ce8      0x31c build/timers.o
 .debug_frame   0x0000000000004004      0x8f4 build/cmsis_os2.o
 .debug_frame   0x00000000000048f8       0xcc build/heap_4.o
 .debug_frame   0x00000000000049c4      0x10c build/port.o
 .debug_frame   0x0000000000004ad0       0x28 /usr/lib/gcc/arm-none-eabi/8.3.1/../../../arm-none-eabi/lib/thumb/v7e-m+fp/hard/libc_nano.a(lib_a-abort.o)
 .debug_frame   0x0000000000004af8       0x20 /usr/lib/gcc/arm-none-eabi/8.3.1/../../../arm-none-eabi/lib/thumb/v7e-m+fp/hard/libc_nano.a(lib_a-errno.o)
 .debug_frame   0x0000000000004b18       0x70 /usr/lib/gcc/arm-none-eabi/8.3.1/../../../arm-none-eabi/lib/thumb/v7e-m+fp/hard/libc_nano.a(lib_a-fprintf.o)
 .debug_frame   0x0000000000004b88       0x58 /usr/lib/gcc/arm-none-eabi/8.3.1/../../../arm-none-eabi/lib/thumb/v7e-m+fp/hard/libc_nano.a(lib_a-getchar.o)
 .debug_frame   0x0000000000004be0       0x2c /usr/lib/gcc/arm-none-eabi/8.3.1/../../../arm-none-eabi/lib/thumb/v7e-m+fp/hard/libc_nano.a(lib_a-init.o)
 .debug_frame   0x0000000000004c0c       0x30 /usr/lib/gcc/arm-none-eabi/8.3.1/../../../arm-none-eabi/lib/thumb/v7e-m+fp/hard/libc_nano.a(lib_a-malloc.o)
 .debug_frame   0x0000000000004c3c       0x38 /usr/lib/gcc/arm-none-eabi/8.3.1/../../../arm-none-eabi/lib/thumb/v7e-m+fp/hard/libc_nano.a(lib_a-memcmp.o)
 .debug_frame   0x0000000000004c74       0x38 /usr/lib/gcc/arm-none-eabi/8.3.1/../../../arm-none-eabi/lib/thumb/v7e-m+fp/hard/libc_nano.a(lib_a-memset.o)
 .debug_frame   0x0000000000004cac       0x58 /usr/lib/gcc/arm-none-eabi/8.3.1/../../../arm-none-eabi/lib/thumb/v7e-m+fp/hard/libc_nano.a(lib_a-nano-freer.o)
 .debug_frame   0x0000000000004d04       0x30 /usr/lib/gcc/arm-none-eabi/8.3.1/../../../arm-none-eabi/lib/thumb/v7e-m+fp/hard/libc_nano.a(lib_a-nano-mallocr.o)
 .debug_frame   0x0000000000004d34       0xbc /usr/lib/gcc/arm-none-eabi/8.3.1/../../../arm-none-eabi/lib/thumb/v7e-m+fp/hard/libc_nano.a(lib_a-nano-vfprintf.o)
 .debug_frame   0x0000000000004df0       0xb0 /usr/lib/gcc/arm-none-eabi/8.3.1/../../../arm-none-eabi/lib/thumb/v7e-m+fp/hard/libc_nano.a(lib_a-nano-vfprintf_float.o)
 .debug_frame   0x0000000000004ea0       0x68 /usr/lib/gcc/arm-none-eabi/8.3.1/../../../arm-none-eabi/lib/thumb/v7e-m+fp/hard/libc_nano.a(lib_a-nano-vfprintf_i.o)
 .debug_frame   0x0000000000004f08       0x7c /usr/lib/gcc/arm-none-eabi/8.3.1/../../../arm-none-eabi/lib/thumb/v7e-m+fp/hard/libc_nano.a(lib_a-printf.o)
 .debug_frame   0x0000000000004f84       0x64 /usr/lib/gcc/arm-none-eabi/8.3.1/../../../arm-none-eabi/lib/thumb/v7e-m+fp/hard/libc_nano.a(lib_a-putchar.o)
 .debug_frame   0x0000000000004fe8       0x40 /usr/lib/gcc/arm-none-eabi/8.3.1/../../../arm-none-eabi/lib/thumb/v7e-m+fp/hard/libc_nano.a(lib_a-puts.o)
 .debug_frame   0x0000000000005028       0x2c /usr/lib/gcc/arm-none-eabi/8.3.1/../../../arm-none-eabi/lib/thumb/v7e-m+fp/hard/libc_nano.a(lib_a-sbrkr.o)
 .debug_frame   0x0000000000005054       0x50 /usr/lib/gcc/arm-none-eabi/8.3.1/../../../arm-none-eabi/lib/thumb/v7e-m+fp/hard/libc_nano.a(lib_a-setvbuf.o)
 .debug_frame   0x00000000000050a4       0xe0 /usr/lib/gcc/arm-none-eabi/8.3.1/../../../arm-none-eabi/lib/thumb/v7e-m+fp/hard/libc_nano.a(lib_a-signal.o)
 .debug_frame   0x0000000000005184       0x3c /usr/lib/gcc/arm-none-eabi/8.3.1/../../../arm-none-eabi/lib/thumb/v7e-m+fp/hard/libc_nano.a(lib_a-signalr.o)
 .debug_frame   0x00000000000051c0       0x48 /usr/lib/gcc/arm-none-eabi/8.3.1/../../../arm-none-eabi/lib/thumb/v7e-m+fp/hard/libc_nano.a(lib_a-strncmp.o)
 .debug_frame   0x0000000000005208       0x38 /usr/lib/gcc/arm-none-eabi/8.3.1/../../../arm-none-eabi/lib/thumb/v7e-m+fp/hard/libc_nano.a(lib_a-strncpy.o)
 .debug_frame   0x0000000000005240       0x7c /usr/lib/gcc/arm-none-eabi/8.3.1/../../../arm-none-eabi/lib/thumb/v7e-m+fp/hard/libc_nano.a(lib_a-strtoul.o)
 .debug_frame   0x00000000000052bc       0x40 /usr/lib/gcc/arm-none-eabi/8.3.1/../../../arm-none-eabi/lib/thumb/v7e-m+fp/hard/libc_nano.a(lib_a-wbuf.o)
 .debug_frame   0x00000000000052fc       0x2c /usr/lib/gcc/arm-none-eabi/8.3.1/../../../arm-none-eabi/lib/thumb/v7e-m+fp/hard/libc_nano.a(lib_a-wsetup.o)
 .debug_frame   0x0000000000005328       0x8c /usr/lib/gcc/arm-none-eabi/8.3.1/../../../arm-none-eabi/lib/thumb/v7e-m+fp/hard/libc_nano.a(lib_a-dtoa.o)
 .debug_frame   0x00000000000053b4       0x70 /usr/lib/gcc/arm-none-eabi/8.3.1/../../../arm-none-eabi/lib/thumb/v7e-m+fp/hard/libc_nano.a(lib_a-fflush.o)
 .debug_frame   0x0000000000005424      0x120 /usr/lib/gcc/arm-none-eabi/8.3.1/../../../arm-none-eabi/lib/thumb/v7e-m+fp/hard/libc_nano.a(lib_a-findfp.o)
 .debug_frame   0x0000000000005544       0x64 /usr/lib/gcc/arm-none-eabi/8.3.1/../../../arm-none-eabi/lib/thumb/v7e-m+fp/hard/libc_nano.a(lib_a-fvwrite.o)
 .debug_frame   0x00000000000055a8       0x54 /usr/lib/gcc/arm-none-eabi/8.3.1/../../../arm-none-eabi/lib/thumb/v7e-m+fp/hard/libc_nano.a(lib_a-fwalk.o)
 .debug_frame   0x00000000000055fc       0x64 /usr/lib/gcc/arm-none-eabi/8.3.1/../../../arm-none-eabi/lib/thumb/v7e-m+fp/hard/libc_nano.a(lib_a-getc.o)
 .debug_frame   0x0000000000005660       0x40 /usr/lib/gcc/arm-none-eabi/8.3.1/../../../arm-none-eabi/lib/thumb/v7e-m+fp/hard/libc_nano.a(lib_a-localeconv.o)
 .debug_frame   0x00000000000056a0       0x64 /usr/lib/gcc/arm-none-eabi/8.3.1/../../../arm-none-eabi/lib/thumb/v7e-m+fp/hard/libc_nano.a(lib_a-makebuf.o)
 .debug_frame   0x0000000000005704       0x40 /usr/lib/gcc/arm-none-eabi/8.3.1/../../../arm-none-eabi/lib/thumb/v7e-m+fp/hard/libc_nano.a(lib_a-memmove.o)
 .debug_frame   0x0000000000005744       0x30 /usr/lib/gcc/arm-none-eabi/8.3.1/../../../arm-none-eabi/lib/thumb/v7e-m+fp/hard/libc_nano.a(lib_a-mlock.o)
 .debug_frame   0x0000000000005774      0x288 /usr/lib/gcc/arm-none-eabi/8.3.1/../../../arm-none-eabi/lib/thumb/v7e-m+fp/hard/libc_nano.a(lib_a-mprec.o)
 .debug_frame   0x00000000000059fc       0x2c /usr/lib/gcc/arm-none-eabi/8.3.1/../../../arm-none-eabi/lib/thumb/v7e-m+fp/hard/libc_nano.a(lib_a-nano-callocr.o)
 .debug_frame   0x0000000000005a28       0x38 /usr/lib/gcc/arm-none-eabi/8.3.1/../../../arm-none-eabi/lib/thumb/v7e-m+fp/hard/libc_nano.a(lib_a-nano-reallocr.o)
 .debug_frame   0x0000000000005a60       0x5c /usr/lib/gcc/arm-none-eabi/8.3.1/../../../arm-none-eabi/lib/thumb/v7e-m+fp/hard/libc_nano.a(lib_a-putc.o)
 .debug_frame   0x0000000000005abc       0x6c /usr/lib/gcc/arm-none-eabi/8.3.1/../../../arm-none-eabi/lib/thumb/v7e-m+fp/hard/libc_nano.a(lib_a-reent.o)
 .debug_frame   0x0000000000005b28       0x3c /usr/lib/gcc/arm-none-eabi/8.3.1/../../../arm-none-eabi/lib/thumb/v7e-m+fp/hard/libc_nano.a(lib_a-rget.o)
 .debug_frame   0x0000000000005b64       0x8c /usr/lib/gcc/arm-none-eabi/8.3.1/../../../arm-none-eabi/lib/thumb/v7e-m+fp/hard/libc_nano.a(lib_a-stdio.o)
 .debug_frame   0x0000000000005bf0       0x2c /usr/lib/gcc/arm-none-eabi/8.3.1/../../../arm-none-eabi/lib/thumb/v7e-m+fp/hard/libc_nano.a(lib_a-writer.o)
 .debug_frame   0x0000000000005c1c       0x40 /usr/lib/gcc/arm-none-eabi/8.3.1/../../../arm-none-eabi/lib/thumb/v7e-m+fp/hard/libc_nano.a(lib_a-assert.o)
 .debug_frame   0x0000000000005c5c       0x2c /usr/lib/gcc/arm-none-eabi/8.3.1/../../../arm-none-eabi/lib/thumb/v7e-m+fp/hard/libc_nano.a(lib_a-closer.o)
 .debug_frame   0x0000000000005c88       0x2c /usr/lib/gcc/arm-none-eabi/8.3.1/../../../arm-none-eabi/lib/thumb/v7e-m+fp/hard/libc_nano.a(lib_a-fstatr.o)
 .debug_frame   0x0000000000005cb4       0x2c /usr/lib/gcc/arm-none-eabi/8.3.1/../../../arm-none-eabi/lib/thumb/v7e-m+fp/hard/libc_nano.a(lib_a-isattyr.o)
 .debug_frame   0x0000000000005ce0       0x54 /usr/lib/gcc/arm-none-eabi/8.3.1/../../../arm-none-eabi/lib/thumb/v7e-m+fp/hard/libc_nano.a(lib_a-locale.o)
 .debug_frame   0x0000000000005d34       0x2c /usr/lib/gcc/arm-none-eabi/8.3.1/../../../arm-none-eabi/lib/thumb/v7e-m+fp/hard/libc_nano.a(lib_a-lseekr.o)
 .debug_frame   0x0000000000005d60       0x4c /usr/lib/gcc/arm-none-eabi/8.3.1/../../../arm-none-eabi/lib/thumb/v7e-m+fp/hard/libc_nano.a(lib_a-mbtowc_r.o)
 .debug_frame   0x0000000000005dac       0x20 /usr/lib/gcc/arm-none-eabi/8.3.1/../../../arm-none-eabi/lib/thumb/v7e-m+fp/hard/libc_nano.a(lib_a-nano-msizer.o)
 .debug_frame   0x0000000000005dcc       0x2c /usr/lib/gcc/arm-none-eabi/8.3.1/../../../arm-none-eabi/lib/thumb/v7e-m+fp/hard/libc_nano.a(lib_a-readr.o)
 .debug_frame   0x0000000000005df8       0x40 /usr/lib/gcc/arm-none-eabi/8.3.1/../../../arm-none-eabi/lib/thumb/v7e-m+fp/hard/libc_nano.a(lib_a-refill.o)
 .debug_frame   0x0000000000005e38       0x3c /usr/lib/gcc/arm-none-eabi/8.3.1/../../../arm-none-eabi/lib/thumb/v7e-m+fp/hard/libc_nano.a(lib_a-wctomb_r.o)
 .debug_frame   0x0000000000005e74       0x20 /usr/lib/gcc/arm-none-eabi/8.3.1/../../../arm-none-eabi/lib/thumb/v7e-m+fp/hard/libnosys.a(getpid.o)
 .debug_frame   0x0000000000005e94       0x20 /usr/lib/gcc/arm-none-eabi/8.3.1/../../../arm-none-eabi/lib/thumb/v7e-m+fp/hard/libnosys.a(kill.o)
 .debug_frame   0x0000000000005eb4       0x20 /usr/lib/gcc/arm-none-eabi/8.3.1/../../../arm-none-eabi/lib/thumb/v7e-m+fp/hard/libnosys.a(sbrk.o)
 .debug_frame   0x0000000000005ed4       0x20 /usr/lib/gcc/arm-none-eabi/8.3.1/../../../arm-none-eabi/lib/thumb/v7e-m+fp/hard/libnosys.a(_exit.o)
 .debug_frame   0x0000000000005ef4       0xac /usr/lib/gcc/arm-none-eabi/8.3.1/thumb/v7e-m+fp/hard/libgcc.a(_arm_addsubdf3.o)
 .debug_frame   0x0000000000005fa0       0x50 /usr/lib/gcc/arm-none-eabi/8.3.1/thumb/v7e-m+fp/hard/libgcc.a(_arm_muldivdf3.o)
 .debug_frame   0x0000000000005ff0       0xc4 /usr/lib/gcc/arm-none-eabi/8.3.1/thumb/v7e-m+fp/hard/libgcc.a(_arm_cmpdf2.o)
 .debug_frame   0x00000000000060b4       0x20 /usr/lib/gcc/arm-none-eabi/8.3.1/thumb/v7e-m+fp/hard/libgcc.a(_arm_unorddf2.o)
 .debug_frame   0x00000000000060d4       0x24 /usr/lib/gcc/arm-none-eabi/8.3.1/thumb/v7e-m+fp/hard/libgcc.a(_arm_fixdfsi.o)
 .debug_frame   0x00000000000060f8       0x2c /usr/lib/gcc/arm-none-eabi/8.3.1/thumb/v7e-m+fp/hard/libgcc.a(_aeabi_uldivmod.o)
 .debug_frame   0x0000000000006124       0x34 /usr/lib/gcc/arm-none-eabi/8.3.1/thumb/v7e-m+fp/hard/libgcc.a(_udivmoddi4.o)

.stab           0x0000000000000000       0x3c
 .stab          0x0000000000000000       0x24 /usr/lib/gcc/arm-none-eabi/8.3.1/../../../arm-none-eabi/lib/thumb/v7e-m+fp/hard/libnosys.a(getpid.o)
 .stab          0x0000000000000024       0x18 /usr/lib/gcc/arm-none-eabi/8.3.1/../../../arm-none-eabi/lib/thumb/v7e-m+fp/hard/libnosys.a(kill.o)
                                         0x24 (size before relaxing)

.stabstr        0x0000000000000000       0x76
 .stabstr       0x0000000000000000       0x76 /usr/lib/gcc/arm-none-eabi/8.3.1/../../../arm-none-eabi/lib/thumb/v7e-m+fp/hard/libnosys.a(getpid.o)

Cross Reference Table

Symbol                                            File
ADC1_IRQHandler                                   build/startup_stm32wb55xx_cm4.o
AES1_IRQHandler                                   build/startup_stm32wb55xx_cm4.o
AES2_IRQHandler                                   build/startup_stm32wb55xx_cm4.o
AESDecrypt                                        build/aes.o
                                                  build/encrypt.o
AESEncrypt                                        build/aes.o
                                                  build/encrypt.o
AHBPrescTable                                     build/system_stm32wbxx.o
                                                  build/stm32wbxx_hal_rcc_ex.o
                                                  build/stm32wbxx_hal_rcc.o
APBPrescTable                                     build/system_stm32wbxx.o
                                                  build/stm32wbxx_hal_rcc_ex.o
                                                  build/stm32wbxx_hal_rcc.o
AddRoundKey                                       build/aes.o
BusFault_Handler                                  build/stm32wbxx_it.o
C2SEV_PWR_C2H_IRQHandler                          build/startup_stm32wb55xx_cm4.o
COMP_IRQHandler                                   build/startup_stm32wb55xx_cm4.o
CRS_IRQHandler                                    build/startup_stm32wb55xx_cm4.o
CURVE_B                                           secp256k1/src/libsecp256k1_la-secp256k1.o
DMA1_Channel1_IRQHandler                          build/startup_stm32wb55xx_cm4.o
DMA1_Channel2_IRQHandler                          build/startup_stm32wb55xx_cm4.o
DMA1_Channel3_IRQHandler                          build/startup_stm32wb55xx_cm4.o
DMA1_Channel4_IRQHandler                          build/startup_stm32wb55xx_cm4.o
DMA1_Channel5_IRQHandler                          build/startup_stm32wb55xx_cm4.o
DMA1_Channel6_IRQHandler                          build/startup_stm32wb55xx_cm4.o
DMA1_Channel7_IRQHandler                          build/startup_stm32wb55xx_cm4.o
DMA2_Channel1_IRQHandler                          build/startup_stm32wb55xx_cm4.o
DMA2_Channel2_IRQHandler                          build/startup_stm32wb55xx_cm4.o
DMA2_Channel3_IRQHandler                          build/startup_stm32wb55xx_cm4.o
DMA2_Channel4_IRQHandler                          build/startup_stm32wb55xx_cm4.o
DMA2_Channel5_IRQHandler                          build/startup_stm32wb55xx_cm4.o
DMA2_Channel6_IRQHandler                          build/startup_stm32wb55xx_cm4.o
DMA2_Channel7_IRQHandler                          build/startup_stm32wb55xx_cm4.o
DMAMUX1_OVR_IRQHandler                            build/startup_stm32wb55xx_cm4.o
DRound                                            build/aes.o
DebugMon_Handler                                  build/stm32wbxx_it.o
Default_Handler                                   build/startup_stm32wb55xx_cm4.o
ERound                                            build/aes.o
EXTI0_IRQHandler                                  build/startup_stm32wb55xx_cm4.o
EXTI15_10_IRQHandler                              build/startup_stm32wb55xx_cm4.o
EXTI1_IRQHandler                                  build/startup_stm32wb55xx_cm4.o
EXTI2_IRQHandler                                  build/startup_stm32wb55xx_cm4.o
EXTI3_IRQHandler                                  build/startup_stm32wb55xx_cm4.o
EXTI4_IRQHandler                                  build/startup_stm32wb55xx_cm4.o
EXTI9_5_IRQHandler                                build/startup_stm32wb55xx_cm4.o
Error_Handler                                     build/main.o
FLASH_IRQHandler                                  build/startup_stm32wb55xx_cm4.o
FLASH_PageErase                                   build/stm32wbxx_hal_flash_ex.o
                                                  build/stm32wbxx_hal_flash.o
FLASH_WaitForLastOperation                        build/stm32wbxx_hal_flash.o
                                                  build/stm32wbxx_hal_flash_ex.o
FPU_IRQHandler                                    build/startup_stm32wb55xx_cm4.o
FinalRound                                        build/aes.o
HAL_DBGMCU_DisableDBGSleepMode                    build/stm32wbxx_hal.o
HAL_DBGMCU_DisableDBGStandbyMode                  build/stm32wbxx_hal.o
HAL_DBGMCU_DisableDBGStopMode                     build/stm32wbxx_hal.o
HAL_DBGMCU_EnableDBGSleepMode                     build/stm32wbxx_hal.o
HAL_DBGMCU_EnableDBGStandbyMode                   build/stm32wbxx_hal.o
HAL_DBGMCU_EnableDBGStopMode                      build/stm32wbxx_hal.o
HAL_DMAEx_ConfigMuxRequestGenerator               build/stm32wbxx_hal_dma_ex.o
HAL_DMAEx_ConfigMuxSync                           build/stm32wbxx_hal_dma_ex.o
HAL_DMAEx_DisableMuxRequestGenerator              build/stm32wbxx_hal_dma_ex.o
HAL_DMAEx_EnableMuxRequestGenerator               build/stm32wbxx_hal_dma_ex.o
HAL_DMAEx_MUX_IRQHandler                          build/stm32wbxx_hal_dma_ex.o
HAL_DMA_Abort                                     build/stm32wbxx_hal_dma.o
                                                  build/stm32wbxx_hal_uart.o
HAL_DMA_Abort_IT                                  build/stm32wbxx_hal_dma.o
                                                  build/stm32wbxx_hal_tim_ex.o
                                                  build/stm32wbxx_hal_tim.o
                                                  build/stm32wbxx_hal_uart.o
HAL_DMA_DeInit                                    build/stm32wbxx_hal_dma.o
HAL_DMA_GetError                                  build/stm32wbxx_hal_dma.o
                                                  build/stm32wbxx_hal_uart.o
HAL_DMA_GetState                                  build/stm32wbxx_hal_dma.o
HAL_DMA_IRQHandler                                build/stm32wbxx_hal_dma.o
HAL_DMA_Init                                      build/stm32wbxx_hal_dma.o
HAL_DMA_PollForTransfer                           build/stm32wbxx_hal_dma.o
HAL_DMA_RegisterCallback                          build/stm32wbxx_hal_dma.o
HAL_DMA_Start                                     build/stm32wbxx_hal_dma.o
HAL_DMA_Start_IT                                  build/stm32wbxx_hal_dma.o
                                                  build/stm32wbxx_hal_tim_ex.o
                                                  build/stm32wbxx_hal_tim.o
                                                  build/stm32wbxx_hal_uart.o
HAL_DMA_UnRegisterCallback                        build/stm32wbxx_hal_dma.o
HAL_DeInit                                        build/stm32wbxx_hal.o
HAL_Delay                                         build/stm32wbxx_hal.o
HAL_EXTI_ClearConfigLine                          build/stm32wbxx_hal_exti.o
HAL_EXTI_ClearPending                             build/stm32wbxx_hal_exti.o
HAL_EXTI_GenerateSWI                              build/stm32wbxx_hal_exti.o
HAL_EXTI_GetConfigLine                            build/stm32wbxx_hal_exti.o
HAL_EXTI_GetHandle                                build/stm32wbxx_hal_exti.o
HAL_EXTI_GetPending                               build/stm32wbxx_hal_exti.o
HAL_EXTI_IRQHandler                               build/stm32wbxx_hal_exti.o
HAL_EXTI_RegisterCallback                         build/stm32wbxx_hal_exti.o
HAL_EXTI_SetConfigLine                            build/stm32wbxx_hal_exti.o
HAL_FLASHEx_AllowOperation                        build/stm32wbxx_hal_flash_ex.o
HAL_FLASHEx_Erase                                 build/stm32wbxx_hal_flash_ex.o
HAL_FLASHEx_Erase_IT                              build/stm32wbxx_hal_flash_ex.o
HAL_FLASHEx_FlashEmptyCheck                       build/stm32wbxx_hal_flash_ex.o
HAL_FLASHEx_ForceFlashEmpty                       build/stm32wbxx_hal_flash_ex.o
HAL_FLASHEx_IsOperationSuspended                  build/stm32wbxx_hal_flash_ex.o
HAL_FLASHEx_OBGetConfig                           build/stm32wbxx_hal_flash_ex.o
HAL_FLASHEx_OBProgram                             build/stm32wbxx_hal_flash_ex.o
HAL_FLASHEx_SuspendOperation                      build/stm32wbxx_hal_flash_ex.o
HAL_FLASH_EndOfOperationCallback                  build/stm32wbxx_hal_flash.o
HAL_FLASH_GetError                                build/stm32wbxx_hal_flash.o
HAL_FLASH_IRQHandler                              build/stm32wbxx_hal_flash.o
HAL_FLASH_Lock                                    build/stm32wbxx_hal_flash.o
HAL_FLASH_OB_Launch                               build/stm32wbxx_hal_flash.o
HAL_FLASH_OB_Lock                                 build/stm32wbxx_hal_flash.o
HAL_FLASH_OB_Unlock                               build/stm32wbxx_hal_flash.o
HAL_FLASH_OperationErrorCallback                  build/stm32wbxx_hal_flash.o
HAL_FLASH_Program                                 build/stm32wbxx_hal_flash.o
HAL_FLASH_Program_IT                              build/stm32wbxx_hal_flash.o
HAL_FLASH_Unlock                                  build/stm32wbxx_hal_flash.o
HAL_GPIO_DeInit                                   build/stm32wbxx_hal_gpio.o
                                                  build/stm32wbxx_hal_msp.o
HAL_GPIO_EXTI_Callback                            build/stm32wbxx_hal_gpio.o
HAL_GPIO_EXTI_IRQHandler                          build/stm32wbxx_hal_gpio.o
HAL_GPIO_Init                                     build/stm32wbxx_hal_gpio.o
                                                  build/stm32wbxx_hal_rcc_ex.o
                                                  build/stm32wbxx_hal_rcc.o
                                                  build/stm32wbxx_hal_msp.o
                                                  build/main.o
HAL_GPIO_LockPin                                  build/stm32wbxx_hal_gpio.o
HAL_GPIO_ReadPin                                  build/stm32wbxx_hal_gpio.o
HAL_GPIO_TogglePin                                build/stm32wbxx_hal_gpio.o
HAL_GPIO_WritePin                                 build/stm32wbxx_hal_gpio.o
                                                  build/main.o
HAL_GetDEVID                                      build/stm32wbxx_hal.o
HAL_GetHalVersion                                 build/stm32wbxx_hal.o
HAL_GetREVID                                      build/stm32wbxx_hal.o
HAL_GetTick                                       build/stm32wbxx_hal.o
                                                  build/stm32wbxx_hal_tim_ex.o
                                                  build/stm32wbxx_hal_uart_ex.o
                                                  build/stm32wbxx_hal_uart.o
                                                  build/stm32wbxx_hal_dma.o
                                                  build/stm32wbxx_hal_flash.o
                                                  build/stm32wbxx_hal_rcc_ex.o
                                                  build/stm32wbxx_hal_rcc.o
HAL_GetTickFreq                                   build/stm32wbxx_hal.o
HAL_GetTickPrio                                   build/stm32wbxx_hal.o
                                                  build/stm32wbxx_hal_rcc.o
HAL_GetUIDw0                                      build/stm32wbxx_hal.o
HAL_GetUIDw1                                      build/stm32wbxx_hal.o
HAL_GetUIDw2                                      build/stm32wbxx_hal.o
HAL_HalfDuplex_EnableReceiver                     build/stm32wbxx_hal_uart.o
HAL_HalfDuplex_EnableTransmitter                  build/stm32wbxx_hal_uart.o
HAL_HalfDuplex_Init                               build/stm32wbxx_hal_uart.o
HAL_IncTick                                       build/stm32wbxx_hal.o
                                                  build/main.o
HAL_Init                                          build/stm32wbxx_hal.o
                                                  build/main.o
HAL_InitTick                                      build/stm32wbxx_hal_timebase_tim.o
                                                  build/stm32wbxx_hal_rcc.o
HAL_LIN_Init                                      build/stm32wbxx_hal_uart.o
HAL_LIN_SendBreak                                 build/stm32wbxx_hal_uart.o
HAL_MPU_ConfigRegion                              build/stm32wbxx_hal_cortex.o
HAL_MPU_Disable                                   build/stm32wbxx_hal_cortex.o
HAL_MPU_Enable                                    build/stm32wbxx_hal_cortex.o
HAL_MspDeInit                                     build/stm32wbxx_hal.o
HAL_MspInit                                       build/stm32wbxx_hal_msp.o
HAL_MultiProcessorEx_AddressLength_Set            build/stm32wbxx_hal_uart_ex.o
HAL_MultiProcessor_DisableMuteMode                build/stm32wbxx_hal_uart.o
HAL_MultiProcessor_EnableMuteMode                 build/stm32wbxx_hal_uart.o
HAL_MultiProcessor_EnterMuteMode                  build/stm32wbxx_hal_uart.o
HAL_MultiProcessor_Init                           build/stm32wbxx_hal_uart.o
HAL_NVIC_ClearPendingIRQ                          build/stm32wbxx_hal_cortex.o
HAL_NVIC_DisableIRQ                               build/stm32wbxx_hal_cortex.o
                                                  build/stm32wbxx_hal_msp.o
HAL_NVIC_EnableIRQ                                build/stm32wbxx_hal_cortex.o
                                                  build/stm32wbxx_hal_timebase_tim.o
                                                  build/stm32wbxx_hal_msp.o
HAL_NVIC_GetPendingIRQ                            build/stm32wbxx_hal_cortex.o
HAL_NVIC_GetPriority                              build/stm32wbxx_hal_cortex.o
HAL_NVIC_GetPriorityGrouping                      build/stm32wbxx_hal_cortex.o
HAL_NVIC_SetPendingIRQ                            build/stm32wbxx_hal_cortex.o
HAL_NVIC_SetPriority                              build/stm32wbxx_hal_cortex.o
                                                  build/stm32wbxx_hal.o
                                                  build/stm32wbxx_hal_timebase_tim.o
                                                  build/stm32wbxx_hal_msp.o
HAL_NVIC_SetPriorityGrouping                      build/stm32wbxx_hal_cortex.o
                                                  build/stm32wbxx_hal.o
HAL_NVIC_SystemReset                              build/stm32wbxx_hal_cortex.o
HAL_PWREx_ClearWakeupFlag                         build/stm32wbxx_hal_pwr_ex.o
HAL_PWREx_ConfigPVM                               build/stm32wbxx_hal_pwr_ex.o
HAL_PWREx_ConfigSMPS                              build/stm32wbxx_hal_pwr_ex.o
HAL_PWREx_ControlVoltageScaling                   build/stm32wbxx_hal_pwr_ex.o
HAL_PWREx_Disable802ActivityIT                    build/stm32wbxx_hal_pwr_ex.o
HAL_PWREx_DisableBLEActivityIT                    build/stm32wbxx_hal_pwr_ex.o
HAL_PWREx_DisableBORH_SMPSBypassIT                build/stm32wbxx_hal_pwr_ex.o
HAL_PWREx_DisableBatteryCharging                  build/stm32wbxx_hal_pwr_ex.o
HAL_PWREx_DisableFlashPowerDown                   build/stm32wbxx_hal_pwr_ex.o
HAL_PWREx_DisableGPIOPullDown                     build/stm32wbxx_hal_pwr_ex.o
HAL_PWREx_DisableGPIOPullUp                       build/stm32wbxx_hal_pwr_ex.o
HAL_PWREx_DisableHOLDC2IT                         build/stm32wbxx_hal_pwr_ex.o
HAL_PWREx_DisableInternalWakeUpLine               build/stm32wbxx_hal_pwr_ex.o
HAL_PWREx_DisableLowPowerRunMode                  build/stm32wbxx_hal_pwr_ex.o
                                                  build/stm32wbxx_hal_pwr.o
HAL_PWREx_DisablePVM1                             build/stm32wbxx_hal_pwr_ex.o
HAL_PWREx_DisablePVM3                             build/stm32wbxx_hal_pwr_ex.o
HAL_PWREx_DisablePullUpPullDownConfig             build/stm32wbxx_hal_pwr_ex.o
HAL_PWREx_DisableRFPhaseIT                        build/stm32wbxx_hal_pwr_ex.o
HAL_PWREx_DisableSRAMRetention                    build/stm32wbxx_hal_pwr_ex.o
HAL_PWREx_DisableVddUSB                           build/stm32wbxx_hal_pwr_ex.o
HAL_PWREx_Enable802ActivityIT                     build/stm32wbxx_hal_pwr_ex.o
HAL_PWREx_EnableBLEActivityIT                     build/stm32wbxx_hal_pwr_ex.o
HAL_PWREx_EnableBORH_SMPSBypassIT                 build/stm32wbxx_hal_pwr_ex.o
HAL_PWREx_EnableBatteryCharging                   build/stm32wbxx_hal_pwr_ex.o
HAL_PWREx_EnableFlashPowerDown                    build/stm32wbxx_hal_pwr_ex.o
HAL_PWREx_EnableGPIOPullDown                      build/stm32wbxx_hal_pwr_ex.o
HAL_PWREx_EnableGPIOPullUp                        build/stm32wbxx_hal_pwr_ex.o
HAL_PWREx_EnableHOLDC2IT                          build/stm32wbxx_hal_pwr_ex.o
HAL_PWREx_EnableInternalWakeUpLine                build/stm32wbxx_hal_pwr_ex.o
HAL_PWREx_EnableLowPowerRunMode                   build/stm32wbxx_hal_pwr_ex.o
                                                  build/stm32wbxx_hal_pwr.o
HAL_PWREx_EnablePVM1                              build/stm32wbxx_hal_pwr_ex.o
HAL_PWREx_EnablePVM3                              build/stm32wbxx_hal_pwr_ex.o
HAL_PWREx_EnablePullUpPullDownConfig              build/stm32wbxx_hal_pwr_ex.o
HAL_PWREx_EnableRFPhaseIT                         build/stm32wbxx_hal_pwr_ex.o
HAL_PWREx_EnableSRAMRetention                     build/stm32wbxx_hal_pwr_ex.o
HAL_PWREx_EnableVddUSB                            build/stm32wbxx_hal_pwr_ex.o
HAL_PWREx_EnableWakeUpPin                         build/stm32wbxx_hal_pwr_ex.o
HAL_PWREx_EnterSHUTDOWNMode                       build/stm32wbxx_hal_pwr_ex.o
HAL_PWREx_EnterSTOP0Mode                          build/stm32wbxx_hal_pwr_ex.o
                                                  build/stm32wbxx_hal_pwr.o
HAL_PWREx_EnterSTOP1Mode                          build/stm32wbxx_hal_pwr_ex.o
                                                  build/stm32wbxx_hal_pwr.o
HAL_PWREx_EnterSTOP2Mode                          build/stm32wbxx_hal_pwr_ex.o
HAL_PWREx_GetBORConfig                            build/stm32wbxx_hal_pwr_ex.o
HAL_PWREx_GetVoltageRange                         build/stm32wbxx_hal_pwr_ex.o
                                                  build/stm32wbxx_hal_rcc.o
HAL_PWREx_GetWakeupFlag                           build/stm32wbxx_hal_pwr_ex.o
HAL_PWREx_HoldCore                                build/stm32wbxx_hal_pwr_ex.o
HAL_PWREx_PVD_PVM_IRQHandler                      build/stm32wbxx_hal_pwr_ex.o
HAL_PWREx_PVM1Callback                            build/stm32wbxx_hal_pwr_ex.o
HAL_PWREx_PVM3Callback                            build/stm32wbxx_hal_pwr_ex.o
HAL_PWREx_ReleaseCore                             build/stm32wbxx_hal_pwr_ex.o
HAL_PWREx_SMPS_GetEffectiveMode                   build/stm32wbxx_hal_pwr_ex.o
HAL_PWREx_SMPS_SetMode                            build/stm32wbxx_hal_pwr_ex.o
HAL_PWREx_SetBORConfig                            build/stm32wbxx_hal_pwr_ex.o
HAL_PWR_ConfigPVD                                 build/stm32wbxx_hal_pwr.o
HAL_PWR_DeInit                                    build/stm32wbxx_hal_pwr.o
HAL_PWR_DisableBkUpAccess                         build/stm32wbxx_hal_pwr.o
                                                  build/stm32wbxx_hal_rcc_ex.o
HAL_PWR_DisablePVD                                build/stm32wbxx_hal_pwr.o
HAL_PWR_DisableSEVOnPend                          build/stm32wbxx_hal_pwr.o
HAL_PWR_DisableSleepOnExit                        build/stm32wbxx_hal_pwr.o
HAL_PWR_DisableWakeUpPin                          build/stm32wbxx_hal_pwr.o
HAL_PWR_EnableBkUpAccess                          build/stm32wbxx_hal_pwr.o
                                                  build/stm32wbxx_hal_rcc_ex.o
                                                  build/stm32wbxx_hal_rcc.o
HAL_PWR_EnablePVD                                 build/stm32wbxx_hal_pwr.o
HAL_PWR_EnableSEVOnPend                           build/stm32wbxx_hal_pwr.o
HAL_PWR_EnableSleepOnExit                         build/stm32wbxx_hal_pwr.o
HAL_PWR_EnableWakeUpPin                           build/stm32wbxx_hal_pwr.o
HAL_PWR_EnterSLEEPMode                            build/stm32wbxx_hal_pwr.o
HAL_PWR_EnterSTANDBYMode                          build/stm32wbxx_hal_pwr.o
HAL_PWR_EnterSTOPMode                             build/stm32wbxx_hal_pwr.o
HAL_PWR_PVDCallback                               build/stm32wbxx_hal_pwr.o
                                                  build/stm32wbxx_hal_pwr_ex.o
HAL_RCCEx_CRSConfig                               build/stm32wbxx_hal_rcc_ex.o
HAL_RCCEx_CRSGetSynchronizationInfo               build/stm32wbxx_hal_rcc_ex.o
HAL_RCCEx_CRSSoftwareSynchronizationGenerate      build/stm32wbxx_hal_rcc_ex.o
HAL_RCCEx_CRSWaitSynchronization                  build/stm32wbxx_hal_rcc_ex.o
HAL_RCCEx_CRS_ErrorCallback                       build/stm32wbxx_hal_rcc_ex.o
HAL_RCCEx_CRS_ExpectedSyncCallback                build/stm32wbxx_hal_rcc_ex.o
HAL_RCCEx_CRS_IRQHandler                          build/stm32wbxx_hal_rcc_ex.o
HAL_RCCEx_CRS_SyncOkCallback                      build/stm32wbxx_hal_rcc_ex.o
HAL_RCCEx_CRS_SyncWarnCallback                    build/stm32wbxx_hal_rcc_ex.o
HAL_RCCEx_DisableLSCO                             build/stm32wbxx_hal_rcc_ex.o
HAL_RCCEx_DisableLSECSS                           build/stm32wbxx_hal_rcc_ex.o
HAL_RCCEx_DisableMSIPLLMode                       build/stm32wbxx_hal_rcc_ex.o
HAL_RCCEx_DisablePLLSAI1                          build/stm32wbxx_hal_rcc_ex.o
HAL_RCCEx_EnableLSCO                              build/stm32wbxx_hal_rcc_ex.o
HAL_RCCEx_EnableLSECSS                            build/stm32wbxx_hal_rcc_ex.o
HAL_RCCEx_EnableLSECSS_IT                         build/stm32wbxx_hal_rcc_ex.o
HAL_RCCEx_EnableMSIPLLMode                        build/stm32wbxx_hal_rcc_ex.o
HAL_RCCEx_EnablePLLSAI1                           build/stm32wbxx_hal_rcc_ex.o
HAL_RCCEx_GetPeriphCLKConfig                      build/stm32wbxx_hal_rcc_ex.o
HAL_RCCEx_GetPeriphCLKFreq                        build/stm32wbxx_hal_rcc_ex.o
HAL_RCCEx_GetRngCLKSource                         build/stm32wbxx_hal_rcc_ex.o
HAL_RCCEx_LSCOConfig                              build/stm32wbxx_hal_rcc_ex.o
HAL_RCCEx_LSECSS_Callback                         build/stm32wbxx_hal_rcc_ex.o
HAL_RCCEx_LSECSS_IRQHandler                       build/stm32wbxx_hal_rcc_ex.o
HAL_RCCEx_PeriphCLKConfig                         build/stm32wbxx_hal_rcc_ex.o
                                                  build/main.o
HAL_RCCEx_TrimOsc                                 build/stm32wbxx_hal_rcc_ex.o
HAL_RCCEx_WakeUpStopCLKConfig                     build/stm32wbxx_hal_rcc_ex.o
HAL_RCC_CSSCallback                               build/stm32wbxx_hal_rcc.o
HAL_RCC_ClockConfig                               build/stm32wbxx_hal_rcc.o
                                                  build/main.o
HAL_RCC_DeInit                                    build/stm32wbxx_hal_rcc.o
HAL_RCC_EnableCSS                                 build/stm32wbxx_hal_rcc.o
HAL_RCC_GetClockConfig                            build/stm32wbxx_hal_rcc.o
                                                  build/stm32wbxx_hal_timebase_tim.o
HAL_RCC_GetHCLK2Freq                              build/stm32wbxx_hal_rcc.o
HAL_RCC_GetHCLK4Freq                              build/stm32wbxx_hal_rcc.o
HAL_RCC_GetHCLKFreq                               build/stm32wbxx_hal_rcc.o
                                                  build/stm32wbxx_hal.o
HAL_RCC_GetOscConfig                              build/stm32wbxx_hal_rcc.o
HAL_RCC_GetPCLK1Freq                              build/stm32wbxx_hal_rcc.o
                                                  build/stm32wbxx_hal_uart.o
HAL_RCC_GetPCLK2Freq                              build/stm32wbxx_hal_rcc.o
                                                  build/stm32wbxx_hal_uart.o
                                                  build/stm32wbxx_hal_timebase_tim.o
HAL_RCC_GetResetSource                            build/stm32wbxx_hal_rcc.o
HAL_RCC_GetSysClockFreq                           build/stm32wbxx_hal_rcc.o
                                                  build/stm32wbxx_hal_uart.o
                                                  build/stm32wbxx_hal_rcc_ex.o
HAL_RCC_MCOConfig                                 build/stm32wbxx_hal_rcc.o
HAL_RCC_NMI_IRQHandler                            build/stm32wbxx_hal_rcc.o
HAL_RCC_OscConfig                                 build/stm32wbxx_hal_rcc.o
                                                  build/main.o
HAL_RS485Ex_Init                                  build/stm32wbxx_hal_uart_ex.o
HAL_ResumeTick                                    build/stm32wbxx_hal_timebase_tim.o
HAL_SYSCFG_DisableIOBooster                       build/stm32wbxx_hal.o
HAL_SYSCFG_DisableIOVdd                           build/stm32wbxx_hal.o
HAL_SYSCFG_DisableSRAMFetch                       build/stm32wbxx_hal.o
HAL_SYSCFG_DisableSecurityAccess                  build/stm32wbxx_hal.o
HAL_SYSCFG_DisableVREFBUF                         build/stm32wbxx_hal.o
HAL_SYSCFG_EnableIOBooster                        build/stm32wbxx_hal.o
HAL_SYSCFG_EnableIOVdd                            build/stm32wbxx_hal.o
HAL_SYSCFG_EnableSecurityAccess                   build/stm32wbxx_hal.o
HAL_SYSCFG_EnableVREFBUF                          build/stm32wbxx_hal.o
HAL_SYSCFG_IsEnabledSRAMFetch                     build/stm32wbxx_hal.o
HAL_SYSCFG_IsEnabledSecurityAccess                build/stm32wbxx_hal.o
HAL_SYSCFG_SRAM2Erase                             build/stm32wbxx_hal.o
HAL_SYSCFG_VREFBUF_HighImpedanceConfig            build/stm32wbxx_hal.o
HAL_SYSCFG_VREFBUF_TrimmingConfig                 build/stm32wbxx_hal.o
HAL_SYSCFG_VREFBUF_VoltageScalingConfig           build/stm32wbxx_hal.o
HAL_SYSTICK_CLKSourceConfig                       build/stm32wbxx_hal_cortex.o
HAL_SYSTICK_Callback                              build/stm32wbxx_hal_cortex.o
HAL_SYSTICK_Config                                build/stm32wbxx_hal_cortex.o
                                                  build/stm32wbxx_hal.o
HAL_SYSTICK_IRQHandler                            build/stm32wbxx_hal_cortex.o
HAL_SetTickFreq                                   build/stm32wbxx_hal.o
HAL_SuspendTick                                   build/stm32wbxx_hal_timebase_tim.o
HAL_TIMEx_Break2Callback                          build/stm32wbxx_hal_tim_ex.o
                                                  build/stm32wbxx_hal_tim.o
HAL_TIMEx_BreakCallback                           build/stm32wbxx_hal_tim_ex.o
                                                  build/stm32wbxx_hal_tim.o
HAL_TIMEx_CommutCallback                          build/stm32wbxx_hal_tim_ex.o
                                                  build/stm32wbxx_hal_tim.o
HAL_TIMEx_CommutHalfCpltCallback                  build/stm32wbxx_hal_tim_ex.o
HAL_TIMEx_ConfigBreakDeadTime                     build/stm32wbxx_hal_tim_ex.o
HAL_TIMEx_ConfigBreakInput                        build/stm32wbxx_hal_tim_ex.o
HAL_TIMEx_ConfigCommutEvent                       build/stm32wbxx_hal_tim_ex.o
HAL_TIMEx_ConfigCommutEvent_DMA                   build/stm32wbxx_hal_tim_ex.o
HAL_TIMEx_ConfigCommutEvent_IT                    build/stm32wbxx_hal_tim_ex.o
HAL_TIMEx_DisarmBreakInput                        build/stm32wbxx_hal_tim_ex.o
HAL_TIMEx_GetChannelNState                        build/stm32wbxx_hal_tim_ex.o
HAL_TIMEx_GroupChannel5                           build/stm32wbxx_hal_tim_ex.o
HAL_TIMEx_HallSensor_DeInit                       build/stm32wbxx_hal_tim_ex.o
HAL_TIMEx_HallSensor_GetState                     build/stm32wbxx_hal_tim_ex.o
HAL_TIMEx_HallSensor_Init                         build/stm32wbxx_hal_tim_ex.o
HAL_TIMEx_HallSensor_MspDeInit                    build/stm32wbxx_hal_tim_ex.o
HAL_TIMEx_HallSensor_MspInit                      build/stm32wbxx_hal_tim_ex.o
HAL_TIMEx_HallSensor_Start                        build/stm32wbxx_hal_tim_ex.o
HAL_TIMEx_HallSensor_Start_DMA                    build/stm32wbxx_hal_tim_ex.o
HAL_TIMEx_HallSensor_Start_IT                     build/stm32wbxx_hal_tim_ex.o
HAL_TIMEx_HallSensor_Stop                         build/stm32wbxx_hal_tim_ex.o
HAL_TIMEx_HallSensor_Stop_DMA                     build/stm32wbxx_hal_tim_ex.o
HAL_TIMEx_HallSensor_Stop_IT                      build/stm32wbxx_hal_tim_ex.o
HAL_TIMEx_MasterConfigSynchronization             build/stm32wbxx_hal_tim_ex.o
HAL_TIMEx_OCN_Start                               build/stm32wbxx_hal_tim_ex.o
HAL_TIMEx_OCN_Start_DMA                           build/stm32wbxx_hal_tim_ex.o
HAL_TIMEx_OCN_Start_IT                            build/stm32wbxx_hal_tim_ex.o
HAL_TIMEx_OCN_Stop                                build/stm32wbxx_hal_tim_ex.o
HAL_TIMEx_OCN_Stop_DMA                            build/stm32wbxx_hal_tim_ex.o
HAL_TIMEx_OCN_Stop_IT                             build/stm32wbxx_hal_tim_ex.o
HAL_TIMEx_OnePulseN_Start                         build/stm32wbxx_hal_tim_ex.o
HAL_TIMEx_OnePulseN_Start_IT                      build/stm32wbxx_hal_tim_ex.o
HAL_TIMEx_OnePulseN_Stop                          build/stm32wbxx_hal_tim_ex.o
HAL_TIMEx_OnePulseN_Stop_IT                       build/stm32wbxx_hal_tim_ex.o
HAL_TIMEx_PWMN_Start                              build/stm32wbxx_hal_tim_ex.o
HAL_TIMEx_PWMN_Start_DMA                          build/stm32wbxx_hal_tim_ex.o
HAL_TIMEx_PWMN_Start_IT                           build/stm32wbxx_hal_tim_ex.o
HAL_TIMEx_PWMN_Stop                               build/stm32wbxx_hal_tim_ex.o
HAL_TIMEx_PWMN_Stop_DMA                           build/stm32wbxx_hal_tim_ex.o
HAL_TIMEx_PWMN_Stop_IT                            build/stm32wbxx_hal_tim_ex.o
HAL_TIMEx_ReArmBreakInput                         build/stm32wbxx_hal_tim_ex.o
HAL_TIMEx_RemapConfig                             build/stm32wbxx_hal_tim_ex.o
HAL_TIM_Base_DeInit                               build/stm32wbxx_hal_tim.o
HAL_TIM_Base_GetState                             build/stm32wbxx_hal_tim.o
HAL_TIM_Base_Init                                 build/stm32wbxx_hal_tim.o
                                                  build/stm32wbxx_hal_timebase_tim.o
HAL_TIM_Base_MspDeInit                            build/stm32wbxx_hal_tim.o
HAL_TIM_Base_MspInit                              build/stm32wbxx_hal_tim.o
HAL_TIM_Base_Start                                build/stm32wbxx_hal_tim.o
HAL_TIM_Base_Start_DMA                            build/stm32wbxx_hal_tim.o
HAL_TIM_Base_Start_IT                             build/stm32wbxx_hal_tim.o
                                                  build/stm32wbxx_hal_timebase_tim.o
HAL_TIM_Base_Stop                                 build/stm32wbxx_hal_tim.o
HAL_TIM_Base_Stop_DMA                             build/stm32wbxx_hal_tim.o
HAL_TIM_Base_Stop_IT                              build/stm32wbxx_hal_tim.o
HAL_TIM_ConfigClockSource                         build/stm32wbxx_hal_tim.o
HAL_TIM_ConfigOCrefClear                          build/stm32wbxx_hal_tim.o
HAL_TIM_ConfigTI1Input                            build/stm32wbxx_hal_tim.o
HAL_TIM_DMABurstState                             build/stm32wbxx_hal_tim.o
HAL_TIM_DMABurst_MultiReadStart                   build/stm32wbxx_hal_tim.o
HAL_TIM_DMABurst_MultiWriteStart                  build/stm32wbxx_hal_tim.o
HAL_TIM_DMABurst_ReadStart                        build/stm32wbxx_hal_tim.o
HAL_TIM_DMABurst_ReadStop                         build/stm32wbxx_hal_tim.o
HAL_TIM_DMABurst_WriteStart                       build/stm32wbxx_hal_tim.o
HAL_TIM_DMABurst_WriteStop                        build/stm32wbxx_hal_tim.o
HAL_TIM_Encoder_DeInit                            build/stm32wbxx_hal_tim.o
HAL_TIM_Encoder_GetState                          build/stm32wbxx_hal_tim.o
HAL_TIM_Encoder_Init                              build/stm32wbxx_hal_tim.o
HAL_TIM_Encoder_MspDeInit                         build/stm32wbxx_hal_tim.o
HAL_TIM_Encoder_MspInit                           build/stm32wbxx_hal_tim.o
HAL_TIM_Encoder_Start                             build/stm32wbxx_hal_tim.o
HAL_TIM_Encoder_Start_DMA                         build/stm32wbxx_hal_tim.o
HAL_TIM_Encoder_Start_IT                          build/stm32wbxx_hal_tim.o
HAL_TIM_Encoder_Stop                              build/stm32wbxx_hal_tim.o
HAL_TIM_Encoder_Stop_DMA                          build/stm32wbxx_hal_tim.o
HAL_TIM_Encoder_Stop_IT                           build/stm32wbxx_hal_tim.o
HAL_TIM_ErrorCallback                             build/stm32wbxx_hal_tim.o
                                                  build/stm32wbxx_hal_tim_ex.o
HAL_TIM_GenerateEvent                             build/stm32wbxx_hal_tim.o
HAL_TIM_GetActiveChannel                          build/stm32wbxx_hal_tim.o
HAL_TIM_GetChannelState                           build/stm32wbxx_hal_tim.o
HAL_TIM_IC_CaptureCallback                        build/stm32wbxx_hal_tim.o
HAL_TIM_IC_CaptureHalfCpltCallback                build/stm32wbxx_hal_tim.o
HAL_TIM_IC_ConfigChannel                          build/stm32wbxx_hal_tim.o
HAL_TIM_IC_DeInit                                 build/stm32wbxx_hal_tim.o
HAL_TIM_IC_GetState                               build/stm32wbxx_hal_tim.o
HAL_TIM_IC_Init                                   build/stm32wbxx_hal_tim.o
HAL_TIM_IC_MspDeInit                              build/stm32wbxx_hal_tim.o
HAL_TIM_IC_MspInit                                build/stm32wbxx_hal_tim.o
HAL_TIM_IC_Start                                  build/stm32wbxx_hal_tim.o
HAL_TIM_IC_Start_DMA                              build/stm32wbxx_hal_tim.o
HAL_TIM_IC_Start_IT                               build/stm32wbxx_hal_tim.o
HAL_TIM_IC_Stop                                   build/stm32wbxx_hal_tim.o
HAL_TIM_IC_Stop_DMA                               build/stm32wbxx_hal_tim.o
HAL_TIM_IC_Stop_IT                                build/stm32wbxx_hal_tim.o
HAL_TIM_IRQHandler                                build/stm32wbxx_hal_tim.o
                                                  build/stm32wbxx_it.o
HAL_TIM_OC_ConfigChannel                          build/stm32wbxx_hal_tim.o
HAL_TIM_OC_DeInit                                 build/stm32wbxx_hal_tim.o
HAL_TIM_OC_DelayElapsedCallback                   build/stm32wbxx_hal_tim.o
HAL_TIM_OC_GetState                               build/stm32wbxx_hal_tim.o
HAL_TIM_OC_Init                                   build/stm32wbxx_hal_tim.o
HAL_TIM_OC_MspDeInit                              build/stm32wbxx_hal_tim.o
HAL_TIM_OC_MspInit                                build/stm32wbxx_hal_tim.o
HAL_TIM_OC_Start                                  build/stm32wbxx_hal_tim.o
HAL_TIM_OC_Start_DMA                              build/stm32wbxx_hal_tim.o
HAL_TIM_OC_Start_IT                               build/stm32wbxx_hal_tim.o
HAL_TIM_OC_Stop                                   build/stm32wbxx_hal_tim.o
HAL_TIM_OC_Stop_DMA                               build/stm32wbxx_hal_tim.o
HAL_TIM_OC_Stop_IT                                build/stm32wbxx_hal_tim.o
HAL_TIM_OnePulse_ConfigChannel                    build/stm32wbxx_hal_tim.o
HAL_TIM_OnePulse_DeInit                           build/stm32wbxx_hal_tim.o
HAL_TIM_OnePulse_GetState                         build/stm32wbxx_hal_tim.o
HAL_TIM_OnePulse_Init                             build/stm32wbxx_hal_tim.o
HAL_TIM_OnePulse_MspDeInit                        build/stm32wbxx_hal_tim.o
HAL_TIM_OnePulse_MspInit                          build/stm32wbxx_hal_tim.o
HAL_TIM_OnePulse_Start                            build/stm32wbxx_hal_tim.o
HAL_TIM_OnePulse_Start_IT                         build/stm32wbxx_hal_tim.o
HAL_TIM_OnePulse_Stop                             build/stm32wbxx_hal_tim.o
HAL_TIM_OnePulse_Stop_IT                          build/stm32wbxx_hal_tim.o
HAL_TIM_PWM_ConfigChannel                         build/stm32wbxx_hal_tim.o
HAL_TIM_PWM_DeInit                                build/stm32wbxx_hal_tim.o
HAL_TIM_PWM_GetState                              build/stm32wbxx_hal_tim.o
HAL_TIM_PWM_Init                                  build/stm32wbxx_hal_tim.o
HAL_TIM_PWM_MspDeInit                             build/stm32wbxx_hal_tim.o
HAL_TIM_PWM_MspInit                               build/stm32wbxx_hal_tim.o
HAL_TIM_PWM_PulseFinishedCallback                 build/stm32wbxx_hal_tim.o
                                                  build/stm32wbxx_hal_tim_ex.o
HAL_TIM_PWM_PulseFinishedHalfCpltCallback         build/stm32wbxx_hal_tim.o
HAL_TIM_PWM_Start                                 build/stm32wbxx_hal_tim.o
HAL_TIM_PWM_Start_DMA                             build/stm32wbxx_hal_tim.o
HAL_TIM_PWM_Start_IT                              build/stm32wbxx_hal_tim.o
HAL_TIM_PWM_Stop                                  build/stm32wbxx_hal_tim.o
HAL_TIM_PWM_Stop_DMA                              build/stm32wbxx_hal_tim.o
HAL_TIM_PWM_Stop_IT                               build/stm32wbxx_hal_tim.o
HAL_TIM_PeriodElapsedCallback                     build/main.o
HAL_TIM_PeriodElapsedHalfCpltCallback             build/stm32wbxx_hal_tim.o
HAL_TIM_ReadCapturedValue                         build/stm32wbxx_hal_tim.o
HAL_TIM_SlaveConfigSynchro                        build/stm32wbxx_hal_tim.o
HAL_TIM_SlaveConfigSynchro_IT                     build/stm32wbxx_hal_tim.o
HAL_TIM_TriggerCallback                           build/stm32wbxx_hal_tim.o
HAL_TIM_TriggerHalfCpltCallback                   build/stm32wbxx_hal_tim.o
HAL_UARTEx_DisableFifoMode                        build/stm32wbxx_hal_uart_ex.o
HAL_UARTEx_DisableStopMode                        build/stm32wbxx_hal_uart_ex.o
HAL_UARTEx_EnableFifoMode                         build/stm32wbxx_hal_uart_ex.o
                                                  build/main.o
HAL_UARTEx_EnableStopMode                         build/stm32wbxx_hal_uart_ex.o
HAL_UARTEx_ReceiveToIdle                          build/stm32wbxx_hal_uart_ex.o
HAL_UARTEx_ReceiveToIdle_DMA                      build/stm32wbxx_hal_uart_ex.o
HAL_UARTEx_ReceiveToIdle_IT                       build/stm32wbxx_hal_uart_ex.o
HAL_UARTEx_RxEventCallback                        build/stm32wbxx_hal_uart.o
HAL_UARTEx_RxFifoFullCallback                     build/stm32wbxx_hal_uart_ex.o
                                                  build/stm32wbxx_hal_uart.o
HAL_UARTEx_SetRxFifoThreshold                     build/stm32wbxx_hal_uart_ex.o
                                                  build/main.o
HAL_UARTEx_SetTxFifoThreshold                     build/stm32wbxx_hal_uart_ex.o
                                                  build/main.o
HAL_UARTEx_StopModeWakeUpSourceConfig             build/stm32wbxx_hal_uart_ex.o
HAL_UARTEx_TxFifoEmptyCallback                    build/stm32wbxx_hal_uart_ex.o
                                                  build/stm32wbxx_hal_uart.o
HAL_UARTEx_WakeupCallback                         build/stm32wbxx_hal_uart_ex.o
                                                  build/stm32wbxx_hal_uart.o
HAL_UART_Abort                                    build/stm32wbxx_hal_uart.o
HAL_UART_AbortCpltCallback                        build/stm32wbxx_hal_uart.o
HAL_UART_AbortReceive                             build/stm32wbxx_hal_uart.o
HAL_UART_AbortReceiveCpltCallback                 build/stm32wbxx_hal_uart.o
HAL_UART_AbortReceive_IT                          build/stm32wbxx_hal_uart.o
HAL_UART_AbortTransmit                            build/stm32wbxx_hal_uart.o
HAL_UART_AbortTransmitCpltCallback                build/stm32wbxx_hal_uart.o
HAL_UART_AbortTransmit_IT                         build/stm32wbxx_hal_uart.o
HAL_UART_Abort_IT                                 build/stm32wbxx_hal_uart.o
HAL_UART_DMAPause                                 build/stm32wbxx_hal_uart.o
HAL_UART_DMAResume                                build/stm32wbxx_hal_uart.o
HAL_UART_DMAStop                                  build/stm32wbxx_hal_uart.o
HAL_UART_DeInit                                   build/stm32wbxx_hal_uart.o
HAL_UART_DisableReceiverTimeout                   build/stm32wbxx_hal_uart.o
HAL_UART_EnableReceiverTimeout                    build/stm32wbxx_hal_uart.o
HAL_UART_ErrorCallback                            build/stm32wbxx_hal_uart.o
HAL_UART_GetError                                 build/stm32wbxx_hal_uart.o
HAL_UART_GetState                                 build/stm32wbxx_hal_uart.o
HAL_UART_IRQHandler                               build/stm32wbxx_hal_uart.o
                                                  build/stm32wbxx_it.o
HAL_UART_Init                                     build/stm32wbxx_hal_uart.o
                                                  build/main.o
HAL_UART_MspDeInit                                build/stm32wbxx_hal_msp.o
HAL_UART_MspInit                                  build/stm32wbxx_hal_msp.o
                                                  build/stm32wbxx_hal_uart_ex.o
HAL_UART_Receive                                  build/stm32wbxx_hal_uart.o
                                                  build/retarget.o
HAL_UART_Receive_DMA                              build/stm32wbxx_hal_uart.o
HAL_UART_Receive_IT                               build/stm32wbxx_hal_uart.o
HAL_UART_ReceiverTimeout_Config                   build/stm32wbxx_hal_uart.o
HAL_UART_RxCpltCallback                           build/stm32wbxx_hal_uart.o
HAL_UART_RxHalfCpltCallback                       build/stm32wbxx_hal_uart.o
HAL_UART_Transmit                                 build/stm32wbxx_hal_uart.o
                                                  build/retarget.o
HAL_UART_Transmit_DMA                             build/stm32wbxx_hal_uart.o
HAL_UART_Transmit_IT                              build/stm32wbxx_hal_uart.o
HAL_UART_TxCpltCallback                           build/stm32wbxx_hal_uart.o
HAL_UART_TxHalfCpltCallback                       build/stm32wbxx_hal_uart.o
HSEM_IRQHandler                                   build/startup_stm32wb55xx_cm4.o
HardFault_Handler                                 build/stm32wbxx_it.o
I2C1_ER_IRQHandler                                build/startup_stm32wb55xx_cm4.o
I2C1_EV_IRQHandler                                build/startup_stm32wb55xx_cm4.o
I2C3_ER_IRQHandler                                build/startup_stm32wb55xx_cm4.o
I2C3_EV_IRQHandler                                build/startup_stm32wb55xx_cm4.o
IPCC_C1_RX_IRQHandler                             build/startup_stm32wb55xx_cm4.o
IPCC_C1_TX_IRQHandler                             build/startup_stm32wb55xx_cm4.o
InitialRound                                      build/aes.o
InverseMixColumns                                 build/aes.o
LCD_IRQHandler                                    build/startup_stm32wb55xx_cm4.o
LPTIM1_IRQHandler                                 build/startup_stm32wb55xx_cm4.o
LPTIM2_IRQHandler                                 build/startup_stm32wb55xx_cm4.o
LPUART1_IRQHandler                                build/startup_stm32wb55xx_cm4.o
MSIRangeTable                                     build/system_stm32wbxx.o
                                                  build/stm32wbxx_hal_rcc_ex.o
                                                  build/stm32wbxx_hal_rcc.o
MemManage_Handler                                 build/stm32wbxx_it.o
MixColumns                                        build/aes.o
NMI_Handler                                       build/stm32wbxx_it.o
PKA_IRQHandler                                    build/startup_stm32wb55xx_cm4.o
PVD_PVM_IRQHandler                                build/startup_stm32wb55xx_cm4.o
PWR_SOTF_BLEACT_802ACT_RFPHASE_IRQHandler         build/startup_stm32wb55xx_cm4.o
PendSV_Handler                                    build/port.o
QUADSPI_IRQHandler                                build/startup_stm32wb55xx_cm4.o
RCC_IRQHandler                                    build/startup_stm32wb55xx_cm4.o
RNG_IRQHandler                                    build/startup_stm32wb55xx_cm4.o
RTC_Alarm_IRQHandler                              build/startup_stm32wb55xx_cm4.o
RTC_WKUP_IRQHandler                               build/startup_stm32wb55xx_cm4.o
Random                                            build/main.o
Reset_Handler                                     build/startup_stm32wb55xx_cm4.o
RetargetInit                                      build/retarget.o
                                                  build/main.o
SAI1_IRQHandler                                   build/startup_stm32wb55xx_cm4.o
SHA256                                            build/sha256.o
                                                  build/encrypt.o
                                                  build/run.o
SHA256Final                                       build/sha256.o
SHA256Init                                        build/sha256.o
SHA256Transform                                   build/sha256.o
SHA256Update                                      build/sha256.o
SHA256_hex                                        build/sha256.o
SPI1_IRQHandler                                   build/startup_stm32wb55xx_cm4.o
SPI2_IRQHandler                                   build/startup_stm32wb55xx_cm4.o
SVC_Handler                                       build/port.o
ShiftRowsL                                        build/aes.o
ShiftRowsR                                        build/aes.o
SmpsPrescalerTable                                build/system_stm32wbxx.o
                                                  build/stm32wbxx_hal_rcc_ex.o
StartDefaultTask                                  build/main.o
SubBytesF                                         build/aes.o
SubBytesI                                         build/aes.o
SubRoundKey                                       build/aes.o
SysTick_Handler                                   build/cmsis_os2.o
SystemClock_Config                                build/main.o
SystemCoreClock                                   build/system_stm32wbxx.o
                                                  build/port.o
                                                  build/cmsis_os2.o
                                                  build/stm32wbxx_hal_pwr_ex.o
                                                  build/stm32wbxx_hal_rcc.o
SystemCoreClockUpdate                             build/system_stm32wbxx.o
SystemInit                                        build/system_stm32wbxx.o
                                                  build/startup_stm32wb55xx_cm4.o
TAMP_STAMP_LSECSS_IRQHandler                      build/startup_stm32wb55xx_cm4.o
TIM1_BRK_IRQHandler                               build/startup_stm32wb55xx_cm4.o
TIM1_CC_IRQHandler                                build/startup_stm32wb55xx_cm4.o
TIM1_TRG_COM_TIM17_IRQHandler                     build/startup_stm32wb55xx_cm4.o
TIM1_UP_TIM16_IRQHandler                          build/stm32wbxx_it.o
TIM2_IRQHandler                                   build/startup_stm32wb55xx_cm4.o
TIMEx_DMACommutationCplt                          build/stm32wbxx_hal_tim_ex.o
                                                  build/stm32wbxx_hal_tim.o
TIMEx_DMACommutationHalfCplt                      build/stm32wbxx_hal_tim_ex.o
                                                  build/stm32wbxx_hal_tim.o
TIM_Base_SetConfig                                build/stm32wbxx_hal_tim.o
                                                  build/stm32wbxx_hal_tim_ex.o
TIM_CCxChannelCmd                                 build/stm32wbxx_hal_tim.o
                                                  build/stm32wbxx_hal_tim_ex.o
TIM_DMACaptureCplt                                build/stm32wbxx_hal_tim.o
                                                  build/stm32wbxx_hal_tim_ex.o
TIM_DMACaptureHalfCplt                            build/stm32wbxx_hal_tim.o
                                                  build/stm32wbxx_hal_tim_ex.o
TIM_DMADelayPulseHalfCplt                         build/stm32wbxx_hal_tim.o
                                                  build/stm32wbxx_hal_tim_ex.o
TIM_DMAError                                      build/stm32wbxx_hal_tim.o
                                                  build/stm32wbxx_hal_tim_ex.o
TIM_ETR_SetConfig                                 build/stm32wbxx_hal_tim.o
TIM_OC2_SetConfig                                 build/stm32wbxx_hal_tim.o
                                                  build/stm32wbxx_hal_tim_ex.o
TIM_TI1_SetConfig                                 build/stm32wbxx_hal_tim.o
                                                  build/stm32wbxx_hal_tim_ex.o
TSC_IRQHandler                                    build/startup_stm32wb55xx_cm4.o
UARTPrescTable                                    build/stm32wbxx_hal_uart.o
UART_AdvFeatureConfig                             build/stm32wbxx_hal_uart.o
                                                  build/stm32wbxx_hal_uart_ex.o
UART_CheckIdleState                               build/stm32wbxx_hal_uart.o
                                                  build/stm32wbxx_hal_uart_ex.o
UART_SetConfig                                    build/stm32wbxx_hal_uart.o
                                                  build/stm32wbxx_hal_uart_ex.o
UART_Start_Receive_DMA                            build/stm32wbxx_hal_uart.o
                                                  build/stm32wbxx_hal_uart_ex.o
UART_Start_Receive_IT                             build/stm32wbxx_hal_uart.o
                                                  build/stm32wbxx_hal_uart_ex.o
UART_WaitOnFlagUntilTimeout                       build/stm32wbxx_hal_uart.o
                                                  build/stm32wbxx_hal_uart_ex.o
USART1_IRQHandler                                 build/stm32wbxx_it.o
USB_HP_IRQHandler                                 build/startup_stm32wb55xx_cm4.o
USB_LP_IRQHandler                                 build/startup_stm32wb55xx_cm4.o
UsageFault_Handler                                build/stm32wbxx_it.o
WWDG_IRQHandler                                   build/startup_stm32wb55xx_cm4.o
_Balloc                                           /usr/lib/gcc/arm-none-eabi/8.3.1/../../../arm-none-eabi/lib/thumb/v7e-m+fp/hard/libc_nano.a(lib_a-mprec.o)
                                                  /usr/lib/gcc/arm-none-eabi/8.3.1/../../../arm-none-eabi/lib/thumb/v7e-m+fp/hard/libc_nano.a(lib_a-dtoa.o)
_Bfree                                            /usr/lib/gcc/arm-none-eabi/8.3.1/../../../arm-none-eabi/lib/thumb/v7e-m+fp/hard/libc_nano.a(lib_a-mprec.o)
                                                  /usr/lib/gcc/arm-none-eabi/8.3.1/../../../arm-none-eabi/lib/thumb/v7e-m+fp/hard/libc_nano.a(lib_a-dtoa.o)
_ITM_deregisterTMCloneTable                       /usr/lib/gcc/arm-none-eabi/8.3.1/thumb/v7e-m+fp/hard/crtbegin.o
_ITM_registerTMCloneTable                         /usr/lib/gcc/arm-none-eabi/8.3.1/thumb/v7e-m+fp/hard/crtbegin.o
_PathLocale                                       /usr/lib/gcc/arm-none-eabi/8.3.1/../../../arm-none-eabi/lib/thumb/v7e-m+fp/hard/libc_nano.a(lib_a-locale.o)
__TMC_END__                                       /usr/lib/gcc/arm-none-eabi/8.3.1/thumb/v7e-m+fp/hard/crtend.o
                                                  /usr/lib/gcc/arm-none-eabi/8.3.1/thumb/v7e-m+fp/hard/crtbegin.o
__adddf3                                          /usr/lib/gcc/arm-none-eabi/8.3.1/thumb/v7e-m+fp/hard/libgcc.a(_arm_addsubdf3.o)
__aeabi_cdcmpeq                                   /usr/lib/gcc/arm-none-eabi/8.3.1/thumb/v7e-m+fp/hard/libgcc.a(_arm_cmpdf2.o)
__aeabi_cdcmple                                   /usr/lib/gcc/arm-none-eabi/8.3.1/thumb/v7e-m+fp/hard/libgcc.a(_arm_cmpdf2.o)
__aeabi_cdrcmple                                  /usr/lib/gcc/arm-none-eabi/8.3.1/thumb/v7e-m+fp/hard/libgcc.a(_arm_cmpdf2.o)
__aeabi_d2iz                                      /usr/lib/gcc/arm-none-eabi/8.3.1/thumb/v7e-m+fp/hard/libgcc.a(_arm_fixdfsi.o)
                                                  /usr/lib/gcc/arm-none-eabi/8.3.1/../../../arm-none-eabi/lib/thumb/v7e-m+fp/hard/libc_nano.a(lib_a-dtoa.o)
__aeabi_dadd                                      /usr/lib/gcc/arm-none-eabi/8.3.1/thumb/v7e-m+fp/hard/libgcc.a(_arm_addsubdf3.o)
                                                  /usr/lib/gcc/arm-none-eabi/8.3.1/../../../arm-none-eabi/lib/thumb/v7e-m+fp/hard/libc_nano.a(lib_a-dtoa.o)
__aeabi_dcmpeq                                    /usr/lib/gcc/arm-none-eabi/8.3.1/thumb/v7e-m+fp/hard/libgcc.a(_arm_cmpdf2.o)
                                                  /usr/lib/gcc/arm-none-eabi/8.3.1/../../../arm-none-eabi/lib/thumb/v7e-m+fp/hard/libc_nano.a(lib_a-dtoa.o)
                                                  /usr/lib/gcc/arm-none-eabi/8.3.1/../../../arm-none-eabi/lib/thumb/v7e-m+fp/hard/libc_nano.a(lib_a-nano-vfprintf_float.o)
__aeabi_dcmpge                                    /usr/lib/gcc/arm-none-eabi/8.3.1/thumb/v7e-m+fp/hard/libgcc.a(_arm_cmpdf2.o)
                                                  /usr/lib/gcc/arm-none-eabi/8.3.1/../../../arm-none-eabi/lib/thumb/v7e-m+fp/hard/libc_nano.a(lib_a-dtoa.o)
__aeabi_dcmpgt                                    /usr/lib/gcc/arm-none-eabi/8.3.1/thumb/v7e-m+fp/hard/libgcc.a(_arm_cmpdf2.o)
                                                  /usr/lib/gcc/arm-none-eabi/8.3.1/../../../arm-none-eabi/lib/thumb/v7e-m+fp/hard/libc_nano.a(lib_a-dtoa.o)
__aeabi_dcmple                                    /usr/lib/gcc/arm-none-eabi/8.3.1/thumb/v7e-m+fp/hard/libgcc.a(_arm_cmpdf2.o)
                                                  /usr/lib/gcc/arm-none-eabi/8.3.1/../../../arm-none-eabi/lib/thumb/v7e-m+fp/hard/libc_nano.a(lib_a-nano-vfprintf_float.o)
__aeabi_dcmplt                                    /usr/lib/gcc/arm-none-eabi/8.3.1/thumb/v7e-m+fp/hard/libgcc.a(_arm_cmpdf2.o)
                                                  /usr/lib/gcc/arm-none-eabi/8.3.1/../../../arm-none-eabi/lib/thumb/v7e-m+fp/hard/libc_nano.a(lib_a-dtoa.o)
                                                  /usr/lib/gcc/arm-none-eabi/8.3.1/../../../arm-none-eabi/lib/thumb/v7e-m+fp/hard/libc_nano.a(lib_a-nano-vfprintf_float.o)
__aeabi_dcmpun                                    /usr/lib/gcc/arm-none-eabi/8.3.1/thumb/v7e-m+fp/hard/libgcc.a(_arm_unorddf2.o)
                                                  /usr/lib/gcc/arm-none-eabi/8.3.1/../../../arm-none-eabi/lib/thumb/v7e-m+fp/hard/libc_nano.a(lib_a-nano-vfprintf_float.o)
__aeabi_ddiv                                      /usr/lib/gcc/arm-none-eabi/8.3.1/thumb/v7e-m+fp/hard/libgcc.a(_arm_muldivdf3.o)
                                                  /usr/lib/gcc/arm-none-eabi/8.3.1/../../../arm-none-eabi/lib/thumb/v7e-m+fp/hard/libc_nano.a(lib_a-mprec.o)
                                                  /usr/lib/gcc/arm-none-eabi/8.3.1/../../../arm-none-eabi/lib/thumb/v7e-m+fp/hard/libc_nano.a(lib_a-dtoa.o)
__aeabi_dmul                                      /usr/lib/gcc/arm-none-eabi/8.3.1/thumb/v7e-m+fp/hard/libgcc.a(_arm_muldivdf3.o)
                                                  /usr/lib/gcc/arm-none-eabi/8.3.1/../../../arm-none-eabi/lib/thumb/v7e-m+fp/hard/libc_nano.a(lib_a-mprec.o)
                                                  /usr/lib/gcc/arm-none-eabi/8.3.1/../../../arm-none-eabi/lib/thumb/v7e-m+fp/hard/libc_nano.a(lib_a-dtoa.o)
__aeabi_drsub                                     /usr/lib/gcc/arm-none-eabi/8.3.1/thumb/v7e-m+fp/hard/libgcc.a(_arm_addsubdf3.o)
__aeabi_dsub                                      /usr/lib/gcc/arm-none-eabi/8.3.1/thumb/v7e-m+fp/hard/libgcc.a(_arm_addsubdf3.o)
                                                  /usr/lib/gcc/arm-none-eabi/8.3.1/../../../arm-none-eabi/lib/thumb/v7e-m+fp/hard/libc_nano.a(lib_a-dtoa.o)
__aeabi_f2d                                       /usr/lib/gcc/arm-none-eabi/8.3.1/thumb/v7e-m+fp/hard/libgcc.a(_arm_addsubdf3.o)
__aeabi_i2d                                       /usr/lib/gcc/arm-none-eabi/8.3.1/thumb/v7e-m+fp/hard/libgcc.a(_arm_addsubdf3.o)
                                                  /usr/lib/gcc/arm-none-eabi/8.3.1/../../../arm-none-eabi/lib/thumb/v7e-m+fp/hard/libc_nano.a(lib_a-dtoa.o)
__aeabi_idiv0                                     /usr/lib/gcc/arm-none-eabi/8.3.1/thumb/v7e-m+fp/hard/libgcc.a(_dvmd_tls.o)
__aeabi_l2d                                       /usr/lib/gcc/arm-none-eabi/8.3.1/thumb/v7e-m+fp/hard/libgcc.a(_arm_addsubdf3.o)
__aeabi_ldiv0                                     /usr/lib/gcc/arm-none-eabi/8.3.1/thumb/v7e-m+fp/hard/libgcc.a(_dvmd_tls.o)
                                                  /usr/lib/gcc/arm-none-eabi/8.3.1/thumb/v7e-m+fp/hard/libgcc.a(_aeabi_uldivmod.o)
__aeabi_ui2d                                      /usr/lib/gcc/arm-none-eabi/8.3.1/thumb/v7e-m+fp/hard/libgcc.a(_arm_addsubdf3.o)
                                                  /usr/lib/gcc/arm-none-eabi/8.3.1/../../../arm-none-eabi/lib/thumb/v7e-m+fp/hard/libc_nano.a(lib_a-dtoa.o)
__aeabi_ul2d                                      /usr/lib/gcc/arm-none-eabi/8.3.1/thumb/v7e-m+fp/hard/libgcc.a(_arm_addsubdf3.o)
__aeabi_uldivmod                                  /usr/lib/gcc/arm-none-eabi/8.3.1/thumb/v7e-m+fp/hard/libgcc.a(_aeabi_uldivmod.o)
                                                  build/stm32wbxx_hal_uart.o
__any_on                                          /usr/lib/gcc/arm-none-eabi/8.3.1/../../../arm-none-eabi/lib/thumb/v7e-m+fp/hard/libc_nano.a(lib_a-mprec.o)
__ascii_mbtowc                                    /usr/lib/gcc/arm-none-eabi/8.3.1/../../../arm-none-eabi/lib/thumb/v7e-m+fp/hard/libc_nano.a(lib_a-mbtowc_r.o)
                                                  /usr/lib/gcc/arm-none-eabi/8.3.1/../../../arm-none-eabi/lib/thumb/v7e-m+fp/hard/libc_nano.a(lib_a-locale.o)
__ascii_wctomb                                    /usr/lib/gcc/arm-none-eabi/8.3.1/../../../arm-none-eabi/lib/thumb/v7e-m+fp/hard/libc_nano.a(lib_a-wctomb_r.o)
                                                  /usr/lib/gcc/arm-none-eabi/8.3.1/../../../arm-none-eabi/lib/thumb/v7e-m+fp/hard/libc_nano.a(lib_a-locale.o)
__assert                                          /usr/lib/gcc/arm-none-eabi/8.3.1/../../../arm-none-eabi/lib/thumb/v7e-m+fp/hard/libc_nano.a(lib_a-assert.o)
__assert_func                                     /usr/lib/gcc/arm-none-eabi/8.3.1/../../../arm-none-eabi/lib/thumb/v7e-m+fp/hard/libc_nano.a(lib_a-assert.o)
                                                  /usr/lib/gcc/arm-none-eabi/8.3.1/../../../arm-none-eabi/lib/thumb/v7e-m+fp/hard/libc_nano.a(lib_a-mprec.o)
                                                  /usr/lib/gcc/arm-none-eabi/8.3.1/../../../arm-none-eabi/lib/thumb/v7e-m+fp/hard/libc_nano.a(lib_a-dtoa.o)
__atexit_dummy                                    /usr/lib/gcc/arm-none-eabi/8.3.1/../../../arm-none-eabi/lib/thumb/v7e-m+fp/hard/libc_nano.a(lib_a-__atexit.o)
__b2d                                             /usr/lib/gcc/arm-none-eabi/8.3.1/../../../arm-none-eabi/lib/thumb/v7e-m+fp/hard/libc_nano.a(lib_a-mprec.o)
__bss_end__                                       /usr/lib/gcc/arm-none-eabi/8.3.1/../../../arm-none-eabi/lib/thumb/v7e-m+fp/hard/crt0.o
__bss_start__                                     /usr/lib/gcc/arm-none-eabi/8.3.1/../../../arm-none-eabi/lib/thumb/v7e-m+fp/hard/crt0.o
__call_exitprocs                                  /usr/lib/gcc/arm-none-eabi/8.3.1/../../../arm-none-eabi/lib/thumb/v7e-m+fp/hard/libc_nano.a(lib_a-__call_atexit.o)
                                                  /usr/lib/gcc/arm-none-eabi/8.3.1/../../../arm-none-eabi/lib/thumb/v7e-m+fp/hard/libc_nano.a(lib_a-__atexit.o)
                                                  /usr/lib/gcc/arm-none-eabi/8.3.1/../../../arm-none-eabi/lib/thumb/v7e-m+fp/hard/libc_nano.a(lib_a-exit.o)
__cmpdf2                                          /usr/lib/gcc/arm-none-eabi/8.3.1/thumb/v7e-m+fp/hard/libgcc.a(_arm_cmpdf2.o)
__copybits                                        /usr/lib/gcc/arm-none-eabi/8.3.1/../../../arm-none-eabi/lib/thumb/v7e-m+fp/hard/libc_nano.a(lib_a-mprec.o)
__cvt                                             /usr/lib/gcc/arm-none-eabi/8.3.1/../../../arm-none-eabi/lib/thumb/v7e-m+fp/hard/libc_nano.a(lib_a-nano-vfprintf_float.o)
__d2b                                             /usr/lib/gcc/arm-none-eabi/8.3.1/../../../arm-none-eabi/lib/thumb/v7e-m+fp/hard/libc_nano.a(lib_a-mprec.o)
                                                  /usr/lib/gcc/arm-none-eabi/8.3.1/../../../arm-none-eabi/lib/thumb/v7e-m+fp/hard/libc_nano.a(lib_a-dtoa.o)
__deregister_frame_info                           /usr/lib/gcc/arm-none-eabi/8.3.1/thumb/v7e-m+fp/hard/crtbegin.o
__divdf3                                          /usr/lib/gcc/arm-none-eabi/8.3.1/thumb/v7e-m+fp/hard/libgcc.a(_arm_muldivdf3.o)
__dso_handle                                      /usr/lib/gcc/arm-none-eabi/8.3.1/thumb/v7e-m+fp/hard/crtbegin.o
__eqdf2                                           /usr/lib/gcc/arm-none-eabi/8.3.1/thumb/v7e-m+fp/hard/libgcc.a(_arm_cmpdf2.o)
__errno                                           /usr/lib/gcc/arm-none-eabi/8.3.1/../../../arm-none-eabi/lib/thumb/v7e-m+fp/hard/libc_nano.a(lib_a-errno.o)
                                                  build/retarget.o
__exponent                                        /usr/lib/gcc/arm-none-eabi/8.3.1/../../../arm-none-eabi/lib/thumb/v7e-m+fp/hard/libc_nano.a(lib_a-nano-vfprintf_float.o)
__extendsfdf2                                     /usr/lib/gcc/arm-none-eabi/8.3.1/thumb/v7e-m+fp/hard/libgcc.a(_arm_addsubdf3.o)
__fini_array_end                                  /usr/lib/gcc/arm-none-eabi/8.3.1/../../../arm-none-eabi/lib/thumb/v7e-m+fp/hard/libc_nano.a(lib_a-fini.o)
__fini_array_start                                /usr/lib/gcc/arm-none-eabi/8.3.1/../../../arm-none-eabi/lib/thumb/v7e-m+fp/hard/libc_nano.a(lib_a-fini.o)
__fixdfsi                                         /usr/lib/gcc/arm-none-eabi/8.3.1/thumb/v7e-m+fp/hard/libgcc.a(_arm_fixdfsi.o)
__floatdidf                                       /usr/lib/gcc/arm-none-eabi/8.3.1/thumb/v7e-m+fp/hard/libgcc.a(_arm_addsubdf3.o)
__floatsidf                                       /usr/lib/gcc/arm-none-eabi/8.3.1/thumb/v7e-m+fp/hard/libgcc.a(_arm_addsubdf3.o)
__floatundidf                                     /usr/lib/gcc/arm-none-eabi/8.3.1/thumb/v7e-m+fp/hard/libgcc.a(_arm_addsubdf3.o)
__floatunsidf                                     /usr/lib/gcc/arm-none-eabi/8.3.1/thumb/v7e-m+fp/hard/libgcc.a(_arm_addsubdf3.o)
__fp_lock_all                                     /usr/lib/gcc/arm-none-eabi/8.3.1/../../../arm-none-eabi/lib/thumb/v7e-m+fp/hard/libc_nano.a(lib_a-findfp.o)
__fp_unlock_all                                   /usr/lib/gcc/arm-none-eabi/8.3.1/../../../arm-none-eabi/lib/thumb/v7e-m+fp/hard/libc_nano.a(lib_a-findfp.o)
__gedf2                                           /usr/lib/gcc/arm-none-eabi/8.3.1/thumb/v7e-m+fp/hard/libgcc.a(_arm_cmpdf2.o)
__global_locale                                   /usr/lib/gcc/arm-none-eabi/8.3.1/../../../arm-none-eabi/lib/thumb/v7e-m+fp/hard/libc_nano.a(lib_a-locale.o)
                                                  /usr/lib/gcc/arm-none-eabi/8.3.1/../../../arm-none-eabi/lib/thumb/v7e-m+fp/hard/libc_nano.a(lib_a-wctomb_r.o)
                                                  /usr/lib/gcc/arm-none-eabi/8.3.1/../../../arm-none-eabi/lib/thumb/v7e-m+fp/hard/libc_nano.a(lib_a-mbtowc_r.o)
                                                  /usr/lib/gcc/arm-none-eabi/8.3.1/../../../arm-none-eabi/lib/thumb/v7e-m+fp/hard/libc_nano.a(lib_a-localeconv.o)
__gtdf2                                           /usr/lib/gcc/arm-none-eabi/8.3.1/thumb/v7e-m+fp/hard/libgcc.a(_arm_cmpdf2.o)
__hi0bits                                         /usr/lib/gcc/arm-none-eabi/8.3.1/../../../arm-none-eabi/lib/thumb/v7e-m+fp/hard/libc_nano.a(lib_a-mprec.o)
                                                  /usr/lib/gcc/arm-none-eabi/8.3.1/../../../arm-none-eabi/lib/thumb/v7e-m+fp/hard/libc_nano.a(lib_a-dtoa.o)
__i2b                                             /usr/lib/gcc/arm-none-eabi/8.3.1/../../../arm-none-eabi/lib/thumb/v7e-m+fp/hard/libc_nano.a(lib_a-mprec.o)
                                                  /usr/lib/gcc/arm-none-eabi/8.3.1/../../../arm-none-eabi/lib/thumb/v7e-m+fp/hard/libc_nano.a(lib_a-dtoa.o)
__init_array_end                                  /usr/lib/gcc/arm-none-eabi/8.3.1/../../../arm-none-eabi/lib/thumb/v7e-m+fp/hard/libc_nano.a(lib_a-init.o)
__init_array_start                                /usr/lib/gcc/arm-none-eabi/8.3.1/../../../arm-none-eabi/lib/thumb/v7e-m+fp/hard/libc_nano.a(lib_a-init.o)
__ledf2                                           /usr/lib/gcc/arm-none-eabi/8.3.1/thumb/v7e-m+fp/hard/libgcc.a(_arm_cmpdf2.o)
__libc_fini_array                                 /usr/lib/gcc/arm-none-eabi/8.3.1/../../../arm-none-eabi/lib/thumb/v7e-m+fp/hard/libc_nano.a(lib_a-fini.o)
                                                  /usr/lib/gcc/arm-none-eabi/8.3.1/../../../arm-none-eabi/lib/thumb/v7e-m+fp/hard/crt0.o
__libc_init_array                                 /usr/lib/gcc/arm-none-eabi/8.3.1/../../../arm-none-eabi/lib/thumb/v7e-m+fp/hard/libc_nano.a(lib_a-init.o)
                                                  build/startup_stm32wb55xx_cm4.o
                                                  /usr/lib/gcc/arm-none-eabi/8.3.1/../../../arm-none-eabi/lib/thumb/v7e-m+fp/hard/crt0.o
__lo0bits                                         /usr/lib/gcc/arm-none-eabi/8.3.1/../../../arm-none-eabi/lib/thumb/v7e-m+fp/hard/libc_nano.a(lib_a-mprec.o)
__locale_mb_cur_max                               /usr/lib/gcc/arm-none-eabi/8.3.1/../../../arm-none-eabi/lib/thumb/v7e-m+fp/hard/libc_nano.a(lib_a-locale.o)
__localeconv_l                                    /usr/lib/gcc/arm-none-eabi/8.3.1/../../../arm-none-eabi/lib/thumb/v7e-m+fp/hard/libc_nano.a(lib_a-localeconv.o)
__lshift                                          /usr/lib/gcc/arm-none-eabi/8.3.1/../../../arm-none-eabi/lib/thumb/v7e-m+fp/hard/libc_nano.a(lib_a-mprec.o)
                                                  /usr/lib/gcc/arm-none-eabi/8.3.1/../../../arm-none-eabi/lib/thumb/v7e-m+fp/hard/libc_nano.a(lib_a-dtoa.o)
__ltdf2                                           /usr/lib/gcc/arm-none-eabi/8.3.1/thumb/v7e-m+fp/hard/libgcc.a(_arm_cmpdf2.o)
__malloc_free_list                                /usr/lib/gcc/arm-none-eabi/8.3.1/../../../arm-none-eabi/lib/thumb/v7e-m+fp/hard/libc_nano.a(lib_a-nano-mallocr.o)
                                                  /usr/lib/gcc/arm-none-eabi/8.3.1/../../../arm-none-eabi/lib/thumb/v7e-m+fp/hard/libc_nano.a(lib_a-nano-freer.o)
__malloc_lock                                     /usr/lib/gcc/arm-none-eabi/8.3.1/../../../arm-none-eabi/lib/thumb/v7e-m+fp/hard/libc_nano.a(lib_a-mlock.o)
                                                  /usr/lib/gcc/arm-none-eabi/8.3.1/../../../arm-none-eabi/lib/thumb/v7e-m+fp/hard/libc_nano.a(lib_a-nano-mallocr.o)
                                                  /usr/lib/gcc/arm-none-eabi/8.3.1/../../../arm-none-eabi/lib/thumb/v7e-m+fp/hard/libc_nano.a(lib_a-nano-freer.o)
__malloc_sbrk_start                               /usr/lib/gcc/arm-none-eabi/8.3.1/../../../arm-none-eabi/lib/thumb/v7e-m+fp/hard/libc_nano.a(lib_a-nano-mallocr.o)
__malloc_unlock                                   /usr/lib/gcc/arm-none-eabi/8.3.1/../../../arm-none-eabi/lib/thumb/v7e-m+fp/hard/libc_nano.a(lib_a-mlock.o)
                                                  /usr/lib/gcc/arm-none-eabi/8.3.1/../../../arm-none-eabi/lib/thumb/v7e-m+fp/hard/libc_nano.a(lib_a-nano-mallocr.o)
                                                  /usr/lib/gcc/arm-none-eabi/8.3.1/../../../arm-none-eabi/lib/thumb/v7e-m+fp/hard/libc_nano.a(lib_a-nano-freer.o)
__mcmp                                            /usr/lib/gcc/arm-none-eabi/8.3.1/../../../arm-none-eabi/lib/thumb/v7e-m+fp/hard/libc_nano.a(lib_a-mprec.o)
                                                  /usr/lib/gcc/arm-none-eabi/8.3.1/../../../arm-none-eabi/lib/thumb/v7e-m+fp/hard/libc_nano.a(lib_a-dtoa.o)
__mdiff                                           /usr/lib/gcc/arm-none-eabi/8.3.1/../../../arm-none-eabi/lib/thumb/v7e-m+fp/hard/libc_nano.a(lib_a-mprec.o)
                                                  /usr/lib/gcc/arm-none-eabi/8.3.1/../../../arm-none-eabi/lib/thumb/v7e-m+fp/hard/libc_nano.a(lib_a-dtoa.o)
__mprec_bigtens                                   /usr/lib/gcc/arm-none-eabi/8.3.1/../../../arm-none-eabi/lib/thumb/v7e-m+fp/hard/libc_nano.a(lib_a-mprec.o)
                                                  /usr/lib/gcc/arm-none-eabi/8.3.1/../../../arm-none-eabi/lib/thumb/v7e-m+fp/hard/libc_nano.a(lib_a-dtoa.o)
__mprec_tens                                      /usr/lib/gcc/arm-none-eabi/8.3.1/../../../arm-none-eabi/lib/thumb/v7e-m+fp/hard/libc_nano.a(lib_a-mprec.o)
                                                  /usr/lib/gcc/arm-none-eabi/8.3.1/../../../arm-none-eabi/lib/thumb/v7e-m+fp/hard/libc_nano.a(lib_a-dtoa.o)
__mprec_tinytens                                  /usr/lib/gcc/arm-none-eabi/8.3.1/../../../arm-none-eabi/lib/thumb/v7e-m+fp/hard/libc_nano.a(lib_a-mprec.o)
__muldf3                                          /usr/lib/gcc/arm-none-eabi/8.3.1/thumb/v7e-m+fp/hard/libgcc.a(_arm_muldivdf3.o)
__multadd                                         /usr/lib/gcc/arm-none-eabi/8.3.1/../../../arm-none-eabi/lib/thumb/v7e-m+fp/hard/libc_nano.a(lib_a-mprec.o)
                                                  /usr/lib/gcc/arm-none-eabi/8.3.1/../../../arm-none-eabi/lib/thumb/v7e-m+fp/hard/libc_nano.a(lib_a-dtoa.o)
__multiply                                        /usr/lib/gcc/arm-none-eabi/8.3.1/../../../arm-none-eabi/lib/thumb/v7e-m+fp/hard/libc_nano.a(lib_a-mprec.o)
                                                  /usr/lib/gcc/arm-none-eabi/8.3.1/../../../arm-none-eabi/lib/thumb/v7e-m+fp/hard/libc_nano.a(lib_a-dtoa.o)
__nedf2                                           /usr/lib/gcc/arm-none-eabi/8.3.1/thumb/v7e-m+fp/hard/libgcc.a(_arm_cmpdf2.o)
__on_exit_args                                    /usr/lib/gcc/arm-none-eabi/8.3.1/../../../arm-none-eabi/lib/thumb/v7e-m+fp/hard/libc_nano.a(lib_a-__atexit.o)
__pow5mult                                        /usr/lib/gcc/arm-none-eabi/8.3.1/../../../arm-none-eabi/lib/thumb/v7e-m+fp/hard/libc_nano.a(lib_a-mprec.o)
                                                  /usr/lib/gcc/arm-none-eabi/8.3.1/../../../arm-none-eabi/lib/thumb/v7e-m+fp/hard/libc_nano.a(lib_a-dtoa.o)
__preinit_array_end                               /usr/lib/gcc/arm-none-eabi/8.3.1/../../../arm-none-eabi/lib/thumb/v7e-m+fp/hard/libc_nano.a(lib_a-init.o)
__preinit_array_start                             /usr/lib/gcc/arm-none-eabi/8.3.1/../../../arm-none-eabi/lib/thumb/v7e-m+fp/hard/libc_nano.a(lib_a-init.o)
__ratio                                           /usr/lib/gcc/arm-none-eabi/8.3.1/../../../arm-none-eabi/lib/thumb/v7e-m+fp/hard/libc_nano.a(lib_a-mprec.o)
__register_exitproc                               /usr/lib/gcc/arm-none-eabi/8.3.1/../../../arm-none-eabi/lib/thumb/v7e-m+fp/hard/libc_nano.a(lib_a-__atexit.o)
                                                  /usr/lib/gcc/arm-none-eabi/8.3.1/../../../arm-none-eabi/lib/thumb/v7e-m+fp/hard/libc_nano.a(lib_a-atexit.o)
__register_frame_info                             /usr/lib/gcc/arm-none-eabi/8.3.1/thumb/v7e-m+fp/hard/crtbegin.o
__s2b                                             /usr/lib/gcc/arm-none-eabi/8.3.1/../../../arm-none-eabi/lib/thumb/v7e-m+fp/hard/libc_nano.a(lib_a-mprec.o)
__sclose                                          /usr/lib/gcc/arm-none-eabi/8.3.1/../../../arm-none-eabi/lib/thumb/v7e-m+fp/hard/libc_nano.a(lib_a-stdio.o)
                                                  /usr/lib/gcc/arm-none-eabi/8.3.1/../../../arm-none-eabi/lib/thumb/v7e-m+fp/hard/libc_nano.a(lib_a-findfp.o)
__seofread                                        /usr/lib/gcc/arm-none-eabi/8.3.1/../../../arm-none-eabi/lib/thumb/v7e-m+fp/hard/libc_nano.a(lib_a-stdio.o)
__sf_fake_stderr                                  /usr/lib/gcc/arm-none-eabi/8.3.1/../../../arm-none-eabi/lib/thumb/v7e-m+fp/hard/libc_nano.a(lib_a-findfp.o)
                                                  /usr/lib/gcc/arm-none-eabi/8.3.1/../../../arm-none-eabi/lib/thumb/v7e-m+fp/hard/libc_nano.a(lib_a-refill.o)
                                                  /usr/lib/gcc/arm-none-eabi/8.3.1/../../../arm-none-eabi/lib/thumb/v7e-m+fp/hard/libc_nano.a(lib_a-rget.o)
                                                  /usr/lib/gcc/arm-none-eabi/8.3.1/../../../arm-none-eabi/lib/thumb/v7e-m+fp/hard/libc_nano.a(lib_a-putc.o)
                                                  /usr/lib/gcc/arm-none-eabi/8.3.1/../../../arm-none-eabi/lib/thumb/v7e-m+fp/hard/libc_nano.a(lib_a-getc.o)
                                                  /usr/lib/gcc/arm-none-eabi/8.3.1/../../../arm-none-eabi/lib/thumb/v7e-m+fp/hard/libc_nano.a(lib_a-fflush.o)
                                                  /usr/lib/gcc/arm-none-eabi/8.3.1/../../../arm-none-eabi/lib/thumb/v7e-m+fp/hard/libc_nano.a(lib_a-wsetup.o)
                                                  /usr/lib/gcc/arm-none-eabi/8.3.1/../../../arm-none-eabi/lib/thumb/v7e-m+fp/hard/libc_nano.a(lib_a-wbuf.o)
                                                  /usr/lib/gcc/arm-none-eabi/8.3.1/../../../arm-none-eabi/lib/thumb/v7e-m+fp/hard/libc_nano.a(lib_a-setvbuf.o)
                                                  /usr/lib/gcc/arm-none-eabi/8.3.1/../../../arm-none-eabi/lib/thumb/v7e-m+fp/hard/libc_nano.a(lib_a-puts.o)
                                                  /usr/lib/gcc/arm-none-eabi/8.3.1/../../../arm-none-eabi/lib/thumb/v7e-m+fp/hard/libc_nano.a(lib_a-nano-vfprintf.o)
                                                  /usr/lib/gcc/arm-none-eabi/8.3.1/../../../arm-none-eabi/lib/thumb/v7e-m+fp/hard/libc_nano.a(lib_a-impure.o)
__sf_fake_stdin                                   /usr/lib/gcc/arm-none-eabi/8.3.1/../../../arm-none-eabi/lib/thumb/v7e-m+fp/hard/libc_nano.a(lib_a-findfp.o)
                                                  /usr/lib/gcc/arm-none-eabi/8.3.1/../../../arm-none-eabi/lib/thumb/v7e-m+fp/hard/libc_nano.a(lib_a-refill.o)
                                                  /usr/lib/gcc/arm-none-eabi/8.3.1/../../../arm-none-eabi/lib/thumb/v7e-m+fp/hard/libc_nano.a(lib_a-rget.o)
                                                  /usr/lib/gcc/arm-none-eabi/8.3.1/../../../arm-none-eabi/lib/thumb/v7e-m+fp/hard/libc_nano.a(lib_a-putc.o)
                                                  /usr/lib/gcc/arm-none-eabi/8.3.1/../../../arm-none-eabi/lib/thumb/v7e-m+fp/hard/libc_nano.a(lib_a-getc.o)
                                                  /usr/lib/gcc/arm-none-eabi/8.3.1/../../../arm-none-eabi/lib/thumb/v7e-m+fp/hard/libc_nano.a(lib_a-fflush.o)
                                                  /usr/lib/gcc/arm-none-eabi/8.3.1/../../../arm-none-eabi/lib/thumb/v7e-m+fp/hard/libc_nano.a(lib_a-wsetup.o)
                                                  /usr/lib/gcc/arm-none-eabi/8.3.1/../../../arm-none-eabi/lib/thumb/v7e-m+fp/hard/libc_nano.a(lib_a-wbuf.o)
                                                  /usr/lib/gcc/arm-none-eabi/8.3.1/../../../arm-none-eabi/lib/thumb/v7e-m+fp/hard/libc_nano.a(lib_a-setvbuf.o)
                                                  /usr/lib/gcc/arm-none-eabi/8.3.1/../../../arm-none-eabi/lib/thumb/v7e-m+fp/hard/libc_nano.a(lib_a-puts.o)
                                                  /usr/lib/gcc/arm-none-eabi/8.3.1/../../../arm-none-eabi/lib/thumb/v7e-m+fp/hard/libc_nano.a(lib_a-nano-vfprintf.o)
                                                  /usr/lib/gcc/arm-none-eabi/8.3.1/../../../arm-none-eabi/lib/thumb/v7e-m+fp/hard/libc_nano.a(lib_a-impure.o)
__sf_fake_stdout                                  /usr/lib/gcc/arm-none-eabi/8.3.1/../../../arm-none-eabi/lib/thumb/v7e-m+fp/hard/libc_nano.a(lib_a-findfp.o)
                                                  /usr/lib/gcc/arm-none-eabi/8.3.1/../../../arm-none-eabi/lib/thumb/v7e-m+fp/hard/libc_nano.a(lib_a-refill.o)
                                                  /usr/lib/gcc/arm-none-eabi/8.3.1/../../../arm-none-eabi/lib/thumb/v7e-m+fp/hard/libc_nano.a(lib_a-rget.o)
                                                  /usr/lib/gcc/arm-none-eabi/8.3.1/../../../arm-none-eabi/lib/thumb/v7e-m+fp/hard/libc_nano.a(lib_a-putc.o)
                                                  /usr/lib/gcc/arm-none-eabi/8.3.1/../../../arm-none-eabi/lib/thumb/v7e-m+fp/hard/libc_nano.a(lib_a-getc.o)
                                                  /usr/lib/gcc/arm-none-eabi/8.3.1/../../../arm-none-eabi/lib/thumb/v7e-m+fp/hard/libc_nano.a(lib_a-fflush.o)
                                                  /usr/lib/gcc/arm-none-eabi/8.3.1/../../../arm-none-eabi/lib/thumb/v7e-m+fp/hard/libc_nano.a(lib_a-wsetup.o)
                                                  /usr/lib/gcc/arm-none-eabi/8.3.1/../../../arm-none-eabi/lib/thumb/v7e-m+fp/hard/libc_nano.a(lib_a-wbuf.o)
                                                  /usr/lib/gcc/arm-none-eabi/8.3.1/../../../arm-none-eabi/lib/thumb/v7e-m+fp/hard/libc_nano.a(lib_a-setvbuf.o)
                                                  /usr/lib/gcc/arm-none-eabi/8.3.1/../../../arm-none-eabi/lib/thumb/v7e-m+fp/hard/libc_nano.a(lib_a-puts.o)
                                                  /usr/lib/gcc/arm-none-eabi/8.3.1/../../../arm-none-eabi/lib/thumb/v7e-m+fp/hard/libc_nano.a(lib_a-nano-vfprintf.o)
                                                  /usr/lib/gcc/arm-none-eabi/8.3.1/../../../arm-none-eabi/lib/thumb/v7e-m+fp/hard/libc_nano.a(lib_a-impure.o)
__sflush_r                                        /usr/lib/gcc/arm-none-eabi/8.3.1/../../../arm-none-eabi/lib/thumb/v7e-m+fp/hard/libc_nano.a(lib_a-fflush.o)
                                                  /usr/lib/gcc/arm-none-eabi/8.3.1/../../../arm-none-eabi/lib/thumb/v7e-m+fp/hard/libc_nano.a(lib_a-refill.o)
__sfmoreglue                                      /usr/lib/gcc/arm-none-eabi/8.3.1/../../../arm-none-eabi/lib/thumb/v7e-m+fp/hard/libc_nano.a(lib_a-findfp.o)
__sfp                                             /usr/lib/gcc/arm-none-eabi/8.3.1/../../../arm-none-eabi/lib/thumb/v7e-m+fp/hard/libc_nano.a(lib_a-findfp.o)
__sfp_lock_acquire                                /usr/lib/gcc/arm-none-eabi/8.3.1/../../../arm-none-eabi/lib/thumb/v7e-m+fp/hard/libc_nano.a(lib_a-findfp.o)
__sfp_lock_release                                /usr/lib/gcc/arm-none-eabi/8.3.1/../../../arm-none-eabi/lib/thumb/v7e-m+fp/hard/libc_nano.a(lib_a-findfp.o)
__sfputs_r                                        /usr/lib/gcc/arm-none-eabi/8.3.1/../../../arm-none-eabi/lib/thumb/v7e-m+fp/hard/libc_nano.a(lib_a-nano-vfprintf.o)
__sfvwrite_r                                      /usr/lib/gcc/arm-none-eabi/8.3.1/../../../arm-none-eabi/lib/thumb/v7e-m+fp/hard/libc_nano.a(lib_a-fvwrite.o)
                                                  /usr/lib/gcc/arm-none-eabi/8.3.1/../../../arm-none-eabi/lib/thumb/v7e-m+fp/hard/libc_nano.a(lib_a-nano-vfprintf.o)
__sigtramp                                        /usr/lib/gcc/arm-none-eabi/8.3.1/../../../arm-none-eabi/lib/thumb/v7e-m+fp/hard/libc_nano.a(lib_a-signal.o)
__sigtramp_r                                      /usr/lib/gcc/arm-none-eabi/8.3.1/../../../arm-none-eabi/lib/thumb/v7e-m+fp/hard/libc_nano.a(lib_a-signal.o)
__sinit                                           /usr/lib/gcc/arm-none-eabi/8.3.1/../../../arm-none-eabi/lib/thumb/v7e-m+fp/hard/libc_nano.a(lib_a-findfp.o)
                                                  /usr/lib/gcc/arm-none-eabi/8.3.1/../../../arm-none-eabi/lib/thumb/v7e-m+fp/hard/libc_nano.a(lib_a-refill.o)
                                                  /usr/lib/gcc/arm-none-eabi/8.3.1/../../../arm-none-eabi/lib/thumb/v7e-m+fp/hard/libc_nano.a(lib_a-rget.o)
                                                  /usr/lib/gcc/arm-none-eabi/8.3.1/../../../arm-none-eabi/lib/thumb/v7e-m+fp/hard/libc_nano.a(lib_a-putc.o)
                                                  /usr/lib/gcc/arm-none-eabi/8.3.1/../../../arm-none-eabi/lib/thumb/v7e-m+fp/hard/libc_nano.a(lib_a-getc.o)
                                                  /usr/lib/gcc/arm-none-eabi/8.3.1/../../../arm-none-eabi/lib/thumb/v7e-m+fp/hard/libc_nano.a(lib_a-fflush.o)
                                                  /usr/lib/gcc/arm-none-eabi/8.3.1/../../../arm-none-eabi/lib/thumb/v7e-m+fp/hard/libc_nano.a(lib_a-wsetup.o)
                                                  /usr/lib/gcc/arm-none-eabi/8.3.1/../../../arm-none-eabi/lib/thumb/v7e-m+fp/hard/libc_nano.a(lib_a-wbuf.o)
                                                  /usr/lib/gcc/arm-none-eabi/8.3.1/../../../arm-none-eabi/lib/thumb/v7e-m+fp/hard/libc_nano.a(lib_a-setvbuf.o)
                                                  /usr/lib/gcc/arm-none-eabi/8.3.1/../../../arm-none-eabi/lib/thumb/v7e-m+fp/hard/libc_nano.a(lib_a-puts.o)
                                                  /usr/lib/gcc/arm-none-eabi/8.3.1/../../../arm-none-eabi/lib/thumb/v7e-m+fp/hard/libc_nano.a(lib_a-putchar.o)
                                                  /usr/lib/gcc/arm-none-eabi/8.3.1/../../../arm-none-eabi/lib/thumb/v7e-m+fp/hard/libc_nano.a(lib_a-printf.o)
                                                  /usr/lib/gcc/arm-none-eabi/8.3.1/../../../arm-none-eabi/lib/thumb/v7e-m+fp/hard/libc_nano.a(lib_a-nano-vfprintf.o)
                                                  /usr/lib/gcc/arm-none-eabi/8.3.1/../../../arm-none-eabi/lib/thumb/v7e-m+fp/hard/libc_nano.a(lib_a-getchar.o)
__sinit_lock_acquire                              /usr/lib/gcc/arm-none-eabi/8.3.1/../../../arm-none-eabi/lib/thumb/v7e-m+fp/hard/libc_nano.a(lib_a-findfp.o)
__sinit_lock_release                              /usr/lib/gcc/arm-none-eabi/8.3.1/../../../arm-none-eabi/lib/thumb/v7e-m+fp/hard/libc_nano.a(lib_a-findfp.o)
__smakebuf_r                                      /usr/lib/gcc/arm-none-eabi/8.3.1/../../../arm-none-eabi/lib/thumb/v7e-m+fp/hard/libc_nano.a(lib_a-makebuf.o)
                                                  /usr/lib/gcc/arm-none-eabi/8.3.1/../../../arm-none-eabi/lib/thumb/v7e-m+fp/hard/libc_nano.a(lib_a-refill.o)
                                                  /usr/lib/gcc/arm-none-eabi/8.3.1/../../../arm-none-eabi/lib/thumb/v7e-m+fp/hard/libc_nano.a(lib_a-wsetup.o)
__sprint_r                                        /usr/lib/gcc/arm-none-eabi/8.3.1/../../../arm-none-eabi/lib/thumb/v7e-m+fp/hard/libc_nano.a(lib_a-nano-vfprintf.o)
__sread                                           /usr/lib/gcc/arm-none-eabi/8.3.1/../../../arm-none-eabi/lib/thumb/v7e-m+fp/hard/libc_nano.a(lib_a-stdio.o)
                                                  /usr/lib/gcc/arm-none-eabi/8.3.1/../../../arm-none-eabi/lib/thumb/v7e-m+fp/hard/libc_nano.a(lib_a-findfp.o)
__srefill_r                                       /usr/lib/gcc/arm-none-eabi/8.3.1/../../../arm-none-eabi/lib/thumb/v7e-m+fp/hard/libc_nano.a(lib_a-refill.o)
                                                  /usr/lib/gcc/arm-none-eabi/8.3.1/../../../arm-none-eabi/lib/thumb/v7e-m+fp/hard/libc_nano.a(lib_a-rget.o)
__srget                                           /usr/lib/gcc/arm-none-eabi/8.3.1/../../../arm-none-eabi/lib/thumb/v7e-m+fp/hard/libc_nano.a(lib_a-rget.o)
__srget_r                                         /usr/lib/gcc/arm-none-eabi/8.3.1/../../../arm-none-eabi/lib/thumb/v7e-m+fp/hard/libc_nano.a(lib_a-rget.o)
                                                  /usr/lib/gcc/arm-none-eabi/8.3.1/../../../arm-none-eabi/lib/thumb/v7e-m+fp/hard/libc_nano.a(lib_a-getc.o)
__sseek                                           /usr/lib/gcc/arm-none-eabi/8.3.1/../../../arm-none-eabi/lib/thumb/v7e-m+fp/hard/libc_nano.a(lib_a-stdio.o)
                                                  /usr/lib/gcc/arm-none-eabi/8.3.1/../../../arm-none-eabi/lib/thumb/v7e-m+fp/hard/libc_nano.a(lib_a-findfp.o)
__ssprint_r                                       /usr/lib/gcc/arm-none-eabi/8.3.1/../../../arm-none-eabi/lib/thumb/v7e-m+fp/hard/libc_nano.a(lib_a-nano-svfprintf.o)
__ssputs_r                                        /usr/lib/gcc/arm-none-eabi/8.3.1/../../../arm-none-eabi/lib/thumb/v7e-m+fp/hard/libc_nano.a(lib_a-nano-svfprintf.o)
__stack                                           /usr/lib/gcc/arm-none-eabi/8.3.1/../../../arm-none-eabi/lib/thumb/v7e-m+fp/hard/crt0.o
__subdf3                                          /usr/lib/gcc/arm-none-eabi/8.3.1/thumb/v7e-m+fp/hard/libgcc.a(_arm_addsubdf3.o)
__swbuf                                           /usr/lib/gcc/arm-none-eabi/8.3.1/../../../arm-none-eabi/lib/thumb/v7e-m+fp/hard/libc_nano.a(lib_a-wbuf.o)
__swbuf_r                                         /usr/lib/gcc/arm-none-eabi/8.3.1/../../../arm-none-eabi/lib/thumb/v7e-m+fp/hard/libc_nano.a(lib_a-wbuf.o)
                                                  /usr/lib/gcc/arm-none-eabi/8.3.1/../../../arm-none-eabi/lib/thumb/v7e-m+fp/hard/libc_nano.a(lib_a-putc.o)
                                                  /usr/lib/gcc/arm-none-eabi/8.3.1/../../../arm-none-eabi/lib/thumb/v7e-m+fp/hard/libc_nano.a(lib_a-puts.o)
                                                  /usr/lib/gcc/arm-none-eabi/8.3.1/../../../arm-none-eabi/lib/thumb/v7e-m+fp/hard/libc_nano.a(lib_a-nano-vfprintf.o)
__swhatbuf_r                                      /usr/lib/gcc/arm-none-eabi/8.3.1/../../../arm-none-eabi/lib/thumb/v7e-m+fp/hard/libc_nano.a(lib_a-makebuf.o)
                                                  /usr/lib/gcc/arm-none-eabi/8.3.1/../../../arm-none-eabi/lib/thumb/v7e-m+fp/hard/libc_nano.a(lib_a-setvbuf.o)
__swrite                                          /usr/lib/gcc/arm-none-eabi/8.3.1/../../../arm-none-eabi/lib/thumb/v7e-m+fp/hard/libc_nano.a(lib_a-stdio.o)
                                                  /usr/lib/gcc/arm-none-eabi/8.3.1/../../../arm-none-eabi/lib/thumb/v7e-m+fp/hard/libc_nano.a(lib_a-findfp.o)
__swsetup_r                                       /usr/lib/gcc/arm-none-eabi/8.3.1/../../../arm-none-eabi/lib/thumb/v7e-m+fp/hard/libc_nano.a(lib_a-wsetup.o)
                                                  /usr/lib/gcc/arm-none-eabi/8.3.1/../../../arm-none-eabi/lib/thumb/v7e-m+fp/hard/libc_nano.a(lib_a-fvwrite.o)
                                                  /usr/lib/gcc/arm-none-eabi/8.3.1/../../../arm-none-eabi/lib/thumb/v7e-m+fp/hard/libc_nano.a(lib_a-wbuf.o)
                                                  /usr/lib/gcc/arm-none-eabi/8.3.1/../../../arm-none-eabi/lib/thumb/v7e-m+fp/hard/libc_nano.a(lib_a-puts.o)
                                                  /usr/lib/gcc/arm-none-eabi/8.3.1/../../../arm-none-eabi/lib/thumb/v7e-m+fp/hard/libc_nano.a(lib_a-nano-vfprintf.o)
__udivmoddi4                                      /usr/lib/gcc/arm-none-eabi/8.3.1/thumb/v7e-m+fp/hard/libgcc.a(_udivmoddi4.o)
                                                  /usr/lib/gcc/arm-none-eabi/8.3.1/thumb/v7e-m+fp/hard/libgcc.a(_aeabi_uldivmod.o)
__ulp                                             /usr/lib/gcc/arm-none-eabi/8.3.1/../../../arm-none-eabi/lib/thumb/v7e-m+fp/hard/libc_nano.a(lib_a-mprec.o)
__unorddf2                                        /usr/lib/gcc/arm-none-eabi/8.3.1/thumb/v7e-m+fp/hard/libgcc.a(_arm_unorddf2.o)
_calloc_r                                         /usr/lib/gcc/arm-none-eabi/8.3.1/../../../arm-none-eabi/lib/thumb/v7e-m+fp/hard/libc_nano.a(lib_a-nano-callocr.o)
                                                  /usr/lib/gcc/arm-none-eabi/8.3.1/../../../arm-none-eabi/lib/thumb/v7e-m+fp/hard/libc_nano.a(lib_a-mprec.o)
_cleanup                                          /usr/lib/gcc/arm-none-eabi/8.3.1/../../../arm-none-eabi/lib/thumb/v7e-m+fp/hard/libc_nano.a(lib_a-findfp.o)
_cleanup_r                                        /usr/lib/gcc/arm-none-eabi/8.3.1/../../../arm-none-eabi/lib/thumb/v7e-m+fp/hard/libc_nano.a(lib_a-findfp.o)
                                                  /usr/lib/gcc/arm-none-eabi/8.3.1/../../../arm-none-eabi/lib/thumb/v7e-m+fp/hard/libc_nano.a(lib_a-makebuf.o)
_close                                            build/retarget.o
                                                  /usr/lib/gcc/arm-none-eabi/8.3.1/../../../arm-none-eabi/lib/thumb/v7e-m+fp/hard/libc_nano.a(lib_a-closer.o)
_close_r                                          /usr/lib/gcc/arm-none-eabi/8.3.1/../../../arm-none-eabi/lib/thumb/v7e-m+fp/hard/libc_nano.a(lib_a-closer.o)
                                                  /usr/lib/gcc/arm-none-eabi/8.3.1/../../../arm-none-eabi/lib/thumb/v7e-m+fp/hard/libc_nano.a(lib_a-stdio.o)
_ctype_                                           /usr/lib/gcc/arm-none-eabi/8.3.1/../../../arm-none-eabi/lib/thumb/v7e-m+fp/hard/libc_nano.a(lib_a-ctype_.o)
                                                  /usr/lib/gcc/arm-none-eabi/8.3.1/../../../arm-none-eabi/lib/thumb/v7e-m+fp/hard/libc_nano.a(lib_a-locale.o)
                                                  /usr/lib/gcc/arm-none-eabi/8.3.1/../../../arm-none-eabi/lib/thumb/v7e-m+fp/hard/libc_nano.a(lib_a-strtoul.o)
_dtoa_r                                           /usr/lib/gcc/arm-none-eabi/8.3.1/../../../arm-none-eabi/lib/thumb/v7e-m+fp/hard/libc_nano.a(lib_a-dtoa.o)
                                                  /usr/lib/gcc/arm-none-eabi/8.3.1/../../../arm-none-eabi/lib/thumb/v7e-m+fp/hard/libc_nano.a(lib_a-nano-vfprintf_float.o)
_eMB_MEM2                                         build/startup_stm32wb55xx_cm4.o
_ebss                                             build/startup_stm32wb55xx_cm4.o
_edata                                            build/startup_stm32wb55xx_cm4.o
_estack                                           build/startup_stm32wb55xx_cm4.o
_exit                                             /usr/lib/gcc/arm-none-eabi/8.3.1/../../../arm-none-eabi/lib/thumb/v7e-m+fp/hard/libnosys.a(_exit.o)
                                                  /usr/lib/gcc/arm-none-eabi/8.3.1/../../../arm-none-eabi/lib/thumb/v7e-m+fp/hard/libc_nano.a(lib_a-exit.o)
                                                  /usr/lib/gcc/arm-none-eabi/8.3.1/../../../arm-none-eabi/lib/thumb/v7e-m+fp/hard/libc_nano.a(lib_a-abort.o)
_fflush_r                                         /usr/lib/gcc/arm-none-eabi/8.3.1/../../../arm-none-eabi/lib/thumb/v7e-m+fp/hard/libc_nano.a(lib_a-fflush.o)
                                                  /usr/lib/gcc/arm-none-eabi/8.3.1/../../../arm-none-eabi/lib/thumb/v7e-m+fp/hard/libc_nano.a(lib_a-refill.o)
                                                  /usr/lib/gcc/arm-none-eabi/8.3.1/../../../arm-none-eabi/lib/thumb/v7e-m+fp/hard/libc_nano.a(lib_a-fvwrite.o)
                                                  /usr/lib/gcc/arm-none-eabi/8.3.1/../../../arm-none-eabi/lib/thumb/v7e-m+fp/hard/libc_nano.a(lib_a-findfp.o)
                                                  /usr/lib/gcc/arm-none-eabi/8.3.1/../../../arm-none-eabi/lib/thumb/v7e-m+fp/hard/libc_nano.a(lib_a-wbuf.o)
                                                  /usr/lib/gcc/arm-none-eabi/8.3.1/../../../arm-none-eabi/lib/thumb/v7e-m+fp/hard/libc_nano.a(lib_a-setvbuf.o)
_fini                                             /usr/lib/gcc/arm-none-eabi/8.3.1/thumb/v7e-m+fp/hard/crti.o
                                                  /usr/lib/gcc/arm-none-eabi/8.3.1/../../../arm-none-eabi/lib/thumb/v7e-m+fp/hard/libc_nano.a(lib_a-fini.o)
_fiprintf_r                                       /usr/lib/gcc/arm-none-eabi/8.3.1/../../../arm-none-eabi/lib/thumb/v7e-m+fp/hard/libc_nano.a(lib_a-fprintf.o)
_fprintf_r                                        /usr/lib/gcc/arm-none-eabi/8.3.1/../../../arm-none-eabi/lib/thumb/v7e-m+fp/hard/libc_nano.a(lib_a-fprintf.o)
_free_r                                           /usr/lib/gcc/arm-none-eabi/8.3.1/../../../arm-none-eabi/lib/thumb/v7e-m+fp/hard/libc_nano.a(lib_a-nano-freer.o)
                                                  /usr/lib/gcc/arm-none-eabi/8.3.1/../../../arm-none-eabi/lib/thumb/v7e-m+fp/hard/libc_nano.a(lib_a-refill.o)
                                                  /usr/lib/gcc/arm-none-eabi/8.3.1/../../../arm-none-eabi/lib/thumb/v7e-m+fp/hard/libc_nano.a(lib_a-reent.o)
                                                  /usr/lib/gcc/arm-none-eabi/8.3.1/../../../arm-none-eabi/lib/thumb/v7e-m+fp/hard/libc_nano.a(lib_a-nano-svfprintf.o)
                                                  /usr/lib/gcc/arm-none-eabi/8.3.1/../../../arm-none-eabi/lib/thumb/v7e-m+fp/hard/libc_nano.a(lib_a-nano-reallocr.o)
                                                  /usr/lib/gcc/arm-none-eabi/8.3.1/../../../arm-none-eabi/lib/thumb/v7e-m+fp/hard/libc_nano.a(lib_a-fvwrite.o)
                                                  /usr/lib/gcc/arm-none-eabi/8.3.1/../../../arm-none-eabi/lib/thumb/v7e-m+fp/hard/libc_nano.a(lib_a-fflush.o)
                                                  /usr/lib/gcc/arm-none-eabi/8.3.1/../../../arm-none-eabi/lib/thumb/v7e-m+fp/hard/libc_nano.a(lib_a-wsetup.o)
                                                  /usr/lib/gcc/arm-none-eabi/8.3.1/../../../arm-none-eabi/lib/thumb/v7e-m+fp/hard/libc_nano.a(lib_a-setvbuf.o)
                                                  /usr/lib/gcc/arm-none-eabi/8.3.1/../../../arm-none-eabi/lib/thumb/v7e-m+fp/hard/libc_nano.a(lib_a-malloc.o)
_fstat                                            build/retarget.o
                                                  /usr/lib/gcc/arm-none-eabi/8.3.1/../../../arm-none-eabi/lib/thumb/v7e-m+fp/hard/libc_nano.a(lib_a-fstatr.o)
_fstat_r                                          /usr/lib/gcc/arm-none-eabi/8.3.1/../../../arm-none-eabi/lib/thumb/v7e-m+fp/hard/libc_nano.a(lib_a-fstatr.o)
                                                  /usr/lib/gcc/arm-none-eabi/8.3.1/../../../arm-none-eabi/lib/thumb/v7e-m+fp/hard/libc_nano.a(lib_a-makebuf.o)
_fwalk                                            /usr/lib/gcc/arm-none-eabi/8.3.1/../../../arm-none-eabi/lib/thumb/v7e-m+fp/hard/libc_nano.a(lib_a-fwalk.o)
                                                  /usr/lib/gcc/arm-none-eabi/8.3.1/../../../arm-none-eabi/lib/thumb/v7e-m+fp/hard/libc_nano.a(lib_a-refill.o)
                                                  /usr/lib/gcc/arm-none-eabi/8.3.1/../../../arm-none-eabi/lib/thumb/v7e-m+fp/hard/libc_nano.a(lib_a-findfp.o)
_fwalk_reent                                      /usr/lib/gcc/arm-none-eabi/8.3.1/../../../arm-none-eabi/lib/thumb/v7e-m+fp/hard/libc_nano.a(lib_a-fwalk.o)
                                                  /usr/lib/gcc/arm-none-eabi/8.3.1/../../../arm-none-eabi/lib/thumb/v7e-m+fp/hard/libc_nano.a(lib_a-findfp.o)
                                                  /usr/lib/gcc/arm-none-eabi/8.3.1/../../../arm-none-eabi/lib/thumb/v7e-m+fp/hard/libc_nano.a(lib_a-fflush.o)
_getc_r                                           /usr/lib/gcc/arm-none-eabi/8.3.1/../../../arm-none-eabi/lib/thumb/v7e-m+fp/hard/libc_nano.a(lib_a-getc.o)
                                                  /usr/lib/gcc/arm-none-eabi/8.3.1/../../../arm-none-eabi/lib/thumb/v7e-m+fp/hard/libc_nano.a(lib_a-getchar.o)
_getchar_r                                        /usr/lib/gcc/arm-none-eabi/8.3.1/../../../arm-none-eabi/lib/thumb/v7e-m+fp/hard/libc_nano.a(lib_a-getchar.o)
_getpid                                           /usr/lib/gcc/arm-none-eabi/8.3.1/../../../arm-none-eabi/lib/thumb/v7e-m+fp/hard/libnosys.a(getpid.o)
                                                  /usr/lib/gcc/arm-none-eabi/8.3.1/../../../arm-none-eabi/lib/thumb/v7e-m+fp/hard/libc_nano.a(lib_a-signalr.o)
_getpid_r                                         /usr/lib/gcc/arm-none-eabi/8.3.1/../../../arm-none-eabi/lib/thumb/v7e-m+fp/hard/libc_nano.a(lib_a-signalr.o)
                                                  /usr/lib/gcc/arm-none-eabi/8.3.1/../../../arm-none-eabi/lib/thumb/v7e-m+fp/hard/libc_nano.a(lib_a-signal.o)
_global_atexit                                    /usr/lib/gcc/arm-none-eabi/8.3.1/../../../arm-none-eabi/lib/thumb/v7e-m+fp/hard/libc_nano.a(lib_a-__call_atexit.o)
                                                  /usr/lib/gcc/arm-none-eabi/8.3.1/../../../arm-none-eabi/lib/thumb/v7e-m+fp/hard/libc_nano.a(lib_a-__atexit.o)
_global_impure_ptr                                /usr/lib/gcc/arm-none-eabi/8.3.1/../../../arm-none-eabi/lib/thumb/v7e-m+fp/hard/libc_nano.a(lib_a-impure.o)
                                                  /usr/lib/gcc/arm-none-eabi/8.3.1/../../../arm-none-eabi/lib/thumb/v7e-m+fp/hard/libc_nano.a(lib_a-refill.o)
                                                  /usr/lib/gcc/arm-none-eabi/8.3.1/../../../arm-none-eabi/lib/thumb/v7e-m+fp/hard/libc_nano.a(lib_a-findfp.o)
                                                  /usr/lib/gcc/arm-none-eabi/8.3.1/../../../arm-none-eabi/lib/thumb/v7e-m+fp/hard/libc_nano.a(lib_a-fflush.o)
                                                  /usr/lib/gcc/arm-none-eabi/8.3.1/../../../arm-none-eabi/lib/thumb/v7e-m+fp/hard/libc_nano.a(lib_a-exit.o)
_impure_ptr                                       /usr/lib/gcc/arm-none-eabi/8.3.1/../../../arm-none-eabi/lib/thumb/v7e-m+fp/hard/libc_nano.a(lib_a-impure.o)
                                                  /usr/lib/gcc/arm-none-eabi/8.3.1/../../../arm-none-eabi/lib/thumb/v7e-m+fp/hard/libc_nano.a(lib_a-locale.o)
                                                  /usr/lib/gcc/arm-none-eabi/8.3.1/../../../arm-none-eabi/lib/thumb/v7e-m+fp/hard/libc_nano.a(lib_a-assert.o)
                                                  /usr/lib/gcc/arm-none-eabi/8.3.1/../../../arm-none-eabi/lib/thumb/v7e-m+fp/hard/libc_nano.a(lib_a-rget.o)
                                                  /usr/lib/gcc/arm-none-eabi/8.3.1/../../../arm-none-eabi/lib/thumb/v7e-m+fp/hard/libc_nano.a(lib_a-reent.o)
                                                  /usr/lib/gcc/arm-none-eabi/8.3.1/../../../arm-none-eabi/lib/thumb/v7e-m+fp/hard/libc_nano.a(lib_a-putc.o)
                                                  /usr/lib/gcc/arm-none-eabi/8.3.1/../../../arm-none-eabi/lib/thumb/v7e-m+fp/hard/libc_nano.a(lib_a-getc.o)
                                                  /usr/lib/gcc/arm-none-eabi/8.3.1/../../../arm-none-eabi/lib/thumb/v7e-m+fp/hard/libc_nano.a(lib_a-findfp.o)
                                                  /usr/lib/gcc/arm-none-eabi/8.3.1/../../../arm-none-eabi/lib/thumb/v7e-m+fp/hard/libc_nano.a(lib_a-fflush.o)
                                                  /usr/lib/gcc/arm-none-eabi/8.3.1/../../../arm-none-eabi/lib/thumb/v7e-m+fp/hard/libc_nano.a(lib_a-wsetup.o)
                                                  /usr/lib/gcc/arm-none-eabi/8.3.1/../../../arm-none-eabi/lib/thumb/v7e-m+fp/hard/libc_nano.a(lib_a-wbuf.o)
                                                  /usr/lib/gcc/arm-none-eabi/8.3.1/../../../arm-none-eabi/lib/thumb/v7e-m+fp/hard/libc_nano.a(lib_a-strtoul.o)
                                                  /usr/lib/gcc/arm-none-eabi/8.3.1/../../../arm-none-eabi/lib/thumb/v7e-m+fp/hard/libc_nano.a(lib_a-sprintf.o)
                                                  /usr/lib/gcc/arm-none-eabi/8.3.1/../../../arm-none-eabi/lib/thumb/v7e-m+fp/hard/libc_nano.a(lib_a-signal.o)
                                                  /usr/lib/gcc/arm-none-eabi/8.3.1/../../../arm-none-eabi/lib/thumb/v7e-m+fp/hard/libc_nano.a(lib_a-setvbuf.o)
                                                  /usr/lib/gcc/arm-none-eabi/8.3.1/../../../arm-none-eabi/lib/thumb/v7e-m+fp/hard/libc_nano.a(lib_a-puts.o)
                                                  /usr/lib/gcc/arm-none-eabi/8.3.1/../../../arm-none-eabi/lib/thumb/v7e-m+fp/hard/libc_nano.a(lib_a-putchar.o)
                                                  /usr/lib/gcc/arm-none-eabi/8.3.1/../../../arm-none-eabi/lib/thumb/v7e-m+fp/hard/libc_nano.a(lib_a-printf.o)
                                                  /usr/lib/gcc/arm-none-eabi/8.3.1/../../../arm-none-eabi/lib/thumb/v7e-m+fp/hard/libc_nano.a(lib_a-nano-vfprintf.o)
                                                  /usr/lib/gcc/arm-none-eabi/8.3.1/../../../arm-none-eabi/lib/thumb/v7e-m+fp/hard/libc_nano.a(lib_a-malloc.o)
                                                  /usr/lib/gcc/arm-none-eabi/8.3.1/../../../arm-none-eabi/lib/thumb/v7e-m+fp/hard/libc_nano.a(lib_a-getchar.o)
                                                  /usr/lib/gcc/arm-none-eabi/8.3.1/../../../arm-none-eabi/lib/thumb/v7e-m+fp/hard/libc_nano.a(lib_a-fprintf.o)
                                                  /usr/lib/gcc/arm-none-eabi/8.3.1/../../../arm-none-eabi/lib/thumb/v7e-m+fp/hard/libc_nano.a(lib_a-errno.o)
                                                  secp256k1/src/libsecp256k1_la-secp256k1.o
                                                  build/retarget.o
_init                                             /usr/lib/gcc/arm-none-eabi/8.3.1/thumb/v7e-m+fp/hard/crti.o
                                                  /usr/lib/gcc/arm-none-eabi/8.3.1/../../../arm-none-eabi/lib/thumb/v7e-m+fp/hard/libc_nano.a(lib_a-init.o)
_init_signal                                      /usr/lib/gcc/arm-none-eabi/8.3.1/../../../arm-none-eabi/lib/thumb/v7e-m+fp/hard/libc_nano.a(lib_a-signal.o)
_init_signal_r                                    /usr/lib/gcc/arm-none-eabi/8.3.1/../../../arm-none-eabi/lib/thumb/v7e-m+fp/hard/libc_nano.a(lib_a-signal.o)
_iprintf_r                                        /usr/lib/gcc/arm-none-eabi/8.3.1/../../../arm-none-eabi/lib/thumb/v7e-m+fp/hard/libc_nano.a(lib_a-printf.o)
_isatty                                           build/retarget.o
                                                  /usr/lib/gcc/arm-none-eabi/8.3.1/../../../arm-none-eabi/lib/thumb/v7e-m+fp/hard/libc_nano.a(lib_a-isattyr.o)
_isatty_r                                         /usr/lib/gcc/arm-none-eabi/8.3.1/../../../arm-none-eabi/lib/thumb/v7e-m+fp/hard/libc_nano.a(lib_a-isattyr.o)
                                                  /usr/lib/gcc/arm-none-eabi/8.3.1/../../../arm-none-eabi/lib/thumb/v7e-m+fp/hard/libc_nano.a(lib_a-makebuf.o)
_kill                                             /usr/lib/gcc/arm-none-eabi/8.3.1/../../../arm-none-eabi/lib/thumb/v7e-m+fp/hard/libnosys.a(kill.o)
                                                  /usr/lib/gcc/arm-none-eabi/8.3.1/../../../arm-none-eabi/lib/thumb/v7e-m+fp/hard/libc_nano.a(lib_a-signalr.o)
_kill_r                                           /usr/lib/gcc/arm-none-eabi/8.3.1/../../../arm-none-eabi/lib/thumb/v7e-m+fp/hard/libc_nano.a(lib_a-signalr.o)
                                                  /usr/lib/gcc/arm-none-eabi/8.3.1/../../../arm-none-eabi/lib/thumb/v7e-m+fp/hard/libc_nano.a(lib_a-signal.o)
_localeconv_r                                     /usr/lib/gcc/arm-none-eabi/8.3.1/../../../arm-none-eabi/lib/thumb/v7e-m+fp/hard/libc_nano.a(lib_a-localeconv.o)
                                                  /usr/lib/gcc/arm-none-eabi/8.3.1/../../../arm-none-eabi/lib/thumb/v7e-m+fp/hard/libc_nano.a(lib_a-nano-vfprintf_float.o)
_lseek                                            build/retarget.o
                                                  /usr/lib/gcc/arm-none-eabi/8.3.1/../../../arm-none-eabi/lib/thumb/v7e-m+fp/hard/libc_nano.a(lib_a-lseekr.o)
_lseek_r                                          /usr/lib/gcc/arm-none-eabi/8.3.1/../../../arm-none-eabi/lib/thumb/v7e-m+fp/hard/libc_nano.a(lib_a-lseekr.o)
                                                  /usr/lib/gcc/arm-none-eabi/8.3.1/../../../arm-none-eabi/lib/thumb/v7e-m+fp/hard/libc_nano.a(lib_a-stdio.o)
_mainCRTStartup                                   /usr/lib/gcc/arm-none-eabi/8.3.1/../../../arm-none-eabi/lib/thumb/v7e-m+fp/hard/crt0.o
_malloc_r                                         /usr/lib/gcc/arm-none-eabi/8.3.1/../../../arm-none-eabi/lib/thumb/v7e-m+fp/hard/libc_nano.a(lib_a-nano-mallocr.o)
                                                  /usr/lib/gcc/arm-none-eabi/8.3.1/../../../arm-none-eabi/lib/thumb/v7e-m+fp/hard/libc_nano.a(lib_a-nano-svfprintf.o)
                                                  /usr/lib/gcc/arm-none-eabi/8.3.1/../../../arm-none-eabi/lib/thumb/v7e-m+fp/hard/libc_nano.a(lib_a-nano-reallocr.o)
                                                  /usr/lib/gcc/arm-none-eabi/8.3.1/../../../arm-none-eabi/lib/thumb/v7e-m+fp/hard/libc_nano.a(lib_a-nano-callocr.o)
                                                  /usr/lib/gcc/arm-none-eabi/8.3.1/../../../arm-none-eabi/lib/thumb/v7e-m+fp/hard/libc_nano.a(lib_a-makebuf.o)
                                                  /usr/lib/gcc/arm-none-eabi/8.3.1/../../../arm-none-eabi/lib/thumb/v7e-m+fp/hard/libc_nano.a(lib_a-fvwrite.o)
                                                  /usr/lib/gcc/arm-none-eabi/8.3.1/../../../arm-none-eabi/lib/thumb/v7e-m+fp/hard/libc_nano.a(lib_a-findfp.o)
                                                  /usr/lib/gcc/arm-none-eabi/8.3.1/../../../arm-none-eabi/lib/thumb/v7e-m+fp/hard/libc_nano.a(lib_a-signal.o)
                                                  /usr/lib/gcc/arm-none-eabi/8.3.1/../../../arm-none-eabi/lib/thumb/v7e-m+fp/hard/libc_nano.a(lib_a-malloc.o)
_malloc_usable_size_r                             /usr/lib/gcc/arm-none-eabi/8.3.1/../../../arm-none-eabi/lib/thumb/v7e-m+fp/hard/libc_nano.a(lib_a-nano-msizer.o)
                                                  /usr/lib/gcc/arm-none-eabi/8.3.1/../../../arm-none-eabi/lib/thumb/v7e-m+fp/hard/libc_nano.a(lib_a-nano-reallocr.o)
_mbtowc_r                                         /usr/lib/gcc/arm-none-eabi/8.3.1/../../../arm-none-eabi/lib/thumb/v7e-m+fp/hard/libc_nano.a(lib_a-mbtowc_r.o)
_mprec_log10                                      /usr/lib/gcc/arm-none-eabi/8.3.1/../../../arm-none-eabi/lib/thumb/v7e-m+fp/hard/libc_nano.a(lib_a-mprec.o)
_printf_common                                    /usr/lib/gcc/arm-none-eabi/8.3.1/../../../arm-none-eabi/lib/thumb/v7e-m+fp/hard/libc_nano.a(lib_a-nano-vfprintf_i.o)
                                                  /usr/lib/gcc/arm-none-eabi/8.3.1/../../../arm-none-eabi/lib/thumb/v7e-m+fp/hard/libc_nano.a(lib_a-nano-vfprintf_float.o)
_printf_float                                     /usr/lib/gcc/arm-none-eabi/8.3.1/../../../arm-none-eabi/lib/thumb/v7e-m+fp/hard/libc_nano.a(lib_a-nano-vfprintf_float.o)
                                                  /usr/lib/gcc/arm-none-eabi/8.3.1/../../../arm-none-eabi/lib/thumb/v7e-m+fp/hard/libc_nano.a(lib_a-nano-svfprintf.o)
                                                  /usr/lib/gcc/arm-none-eabi/8.3.1/../../../arm-none-eabi/lib/thumb/v7e-m+fp/hard/libc_nano.a(lib_a-nano-vfprintf.o)
_printf_i                                         /usr/lib/gcc/arm-none-eabi/8.3.1/../../../arm-none-eabi/lib/thumb/v7e-m+fp/hard/libc_nano.a(lib_a-nano-vfprintf_i.o)
                                                  /usr/lib/gcc/arm-none-eabi/8.3.1/../../../arm-none-eabi/lib/thumb/v7e-m+fp/hard/libc_nano.a(lib_a-nano-svfprintf.o)
                                                  /usr/lib/gcc/arm-none-eabi/8.3.1/../../../arm-none-eabi/lib/thumb/v7e-m+fp/hard/libc_nano.a(lib_a-nano-vfprintf.o)
_printf_r                                         /usr/lib/gcc/arm-none-eabi/8.3.1/../../../arm-none-eabi/lib/thumb/v7e-m+fp/hard/libc_nano.a(lib_a-printf.o)
_putc_r                                           /usr/lib/gcc/arm-none-eabi/8.3.1/../../../arm-none-eabi/lib/thumb/v7e-m+fp/hard/libc_nano.a(lib_a-putc.o)
                                                  /usr/lib/gcc/arm-none-eabi/8.3.1/../../../arm-none-eabi/lib/thumb/v7e-m+fp/hard/libc_nano.a(lib_a-putchar.o)
_putchar_r                                        /usr/lib/gcc/arm-none-eabi/8.3.1/../../../arm-none-eabi/lib/thumb/v7e-m+fp/hard/libc_nano.a(lib_a-putchar.o)
_puts_r                                           /usr/lib/gcc/arm-none-eabi/8.3.1/../../../arm-none-eabi/lib/thumb/v7e-m+fp/hard/libc_nano.a(lib_a-puts.o)
_raise_r                                          /usr/lib/gcc/arm-none-eabi/8.3.1/../../../arm-none-eabi/lib/thumb/v7e-m+fp/hard/libc_nano.a(lib_a-signal.o)
_read                                             build/retarget.o
                                                  /usr/lib/gcc/arm-none-eabi/8.3.1/../../../arm-none-eabi/lib/thumb/v7e-m+fp/hard/libc_nano.a(lib_a-readr.o)
_read_r                                           /usr/lib/gcc/arm-none-eabi/8.3.1/../../../arm-none-eabi/lib/thumb/v7e-m+fp/hard/libc_nano.a(lib_a-readr.o)
                                                  /usr/lib/gcc/arm-none-eabi/8.3.1/../../../arm-none-eabi/lib/thumb/v7e-m+fp/hard/libc_nano.a(lib_a-stdio.o)
_realloc_r                                        /usr/lib/gcc/arm-none-eabi/8.3.1/../../../arm-none-eabi/lib/thumb/v7e-m+fp/hard/libc_nano.a(lib_a-nano-reallocr.o)
                                                  /usr/lib/gcc/arm-none-eabi/8.3.1/../../../arm-none-eabi/lib/thumb/v7e-m+fp/hard/libc_nano.a(lib_a-nano-svfprintf.o)
                                                  /usr/lib/gcc/arm-none-eabi/8.3.1/../../../arm-none-eabi/lib/thumb/v7e-m+fp/hard/libc_nano.a(lib_a-fvwrite.o)
_reclaim_reent                                    /usr/lib/gcc/arm-none-eabi/8.3.1/../../../arm-none-eabi/lib/thumb/v7e-m+fp/hard/libc_nano.a(lib_a-reent.o)
_sMB_MEM2                                         build/startup_stm32wb55xx_cm4.o
_sbrk                                             /usr/lib/gcc/arm-none-eabi/8.3.1/../../../arm-none-eabi/lib/thumb/v7e-m+fp/hard/libnosys.a(sbrk.o)
                                                  /usr/lib/gcc/arm-none-eabi/8.3.1/../../../arm-none-eabi/lib/thumb/v7e-m+fp/hard/libc_nano.a(lib_a-sbrkr.o)
_sbrk_r                                           /usr/lib/gcc/arm-none-eabi/8.3.1/../../../arm-none-eabi/lib/thumb/v7e-m+fp/hard/libc_nano.a(lib_a-sbrkr.o)
                                                  /usr/lib/gcc/arm-none-eabi/8.3.1/../../../arm-none-eabi/lib/thumb/v7e-m+fp/hard/libc_nano.a(lib_a-nano-mallocr.o)
_sbss                                             build/startup_stm32wb55xx_cm4.o
_sdata                                            build/startup_stm32wb55xx_cm4.o
_setlocale_r                                      /usr/lib/gcc/arm-none-eabi/8.3.1/../../../arm-none-eabi/lib/thumb/v7e-m+fp/hard/libc_nano.a(lib_a-locale.o)
_sidata                                           build/startup_stm32wb55xx_cm4.o
_signal_r                                         /usr/lib/gcc/arm-none-eabi/8.3.1/../../../arm-none-eabi/lib/thumb/v7e-m+fp/hard/libc_nano.a(lib_a-signal.o)
_siprintf_r                                       /usr/lib/gcc/arm-none-eabi/8.3.1/../../../arm-none-eabi/lib/thumb/v7e-m+fp/hard/libc_nano.a(lib_a-sprintf.o)
_sprintf_r                                        /usr/lib/gcc/arm-none-eabi/8.3.1/../../../arm-none-eabi/lib/thumb/v7e-m+fp/hard/libc_nano.a(lib_a-sprintf.o)
_stack_init                                       /usr/lib/gcc/arm-none-eabi/8.3.1/../../../arm-none-eabi/lib/thumb/v7e-m+fp/hard/crt0.o
_start                                            /usr/lib/gcc/arm-none-eabi/8.3.1/../../../arm-none-eabi/lib/thumb/v7e-m+fp/hard/crt0.o
_strtoul_r                                        /usr/lib/gcc/arm-none-eabi/8.3.1/../../../arm-none-eabi/lib/thumb/v7e-m+fp/hard/libc_nano.a(lib_a-strtoul.o)
_svfiprintf_r                                     /usr/lib/gcc/arm-none-eabi/8.3.1/../../../arm-none-eabi/lib/thumb/v7e-m+fp/hard/libc_nano.a(lib_a-nano-svfprintf.o)
_svfprintf_r                                      /usr/lib/gcc/arm-none-eabi/8.3.1/../../../arm-none-eabi/lib/thumb/v7e-m+fp/hard/libc_nano.a(lib_a-nano-svfprintf.o)
                                                  /usr/lib/gcc/arm-none-eabi/8.3.1/../../../arm-none-eabi/lib/thumb/v7e-m+fp/hard/libc_nano.a(lib_a-sprintf.o)
_vfiprintf_r                                      /usr/lib/gcc/arm-none-eabi/8.3.1/../../../arm-none-eabi/lib/thumb/v7e-m+fp/hard/libc_nano.a(lib_a-nano-vfprintf.o)
_vfprintf_r                                       /usr/lib/gcc/arm-none-eabi/8.3.1/../../../arm-none-eabi/lib/thumb/v7e-m+fp/hard/libc_nano.a(lib_a-nano-vfprintf.o)
                                                  /usr/lib/gcc/arm-none-eabi/8.3.1/../../../arm-none-eabi/lib/thumb/v7e-m+fp/hard/libc_nano.a(lib_a-printf.o)
                                                  /usr/lib/gcc/arm-none-eabi/8.3.1/../../../arm-none-eabi/lib/thumb/v7e-m+fp/hard/libc_nano.a(lib_a-fprintf.o)
_wctomb_r                                         /usr/lib/gcc/arm-none-eabi/8.3.1/../../../arm-none-eabi/lib/thumb/v7e-m+fp/hard/libc_nano.a(lib_a-wctomb_r.o)
_write                                            build/retarget.o
                                                  /usr/lib/gcc/arm-none-eabi/8.3.1/../../../arm-none-eabi/lib/thumb/v7e-m+fp/hard/libc_nano.a(lib_a-writer.o)
_write_r                                          /usr/lib/gcc/arm-none-eabi/8.3.1/../../../arm-none-eabi/lib/thumb/v7e-m+fp/hard/libc_nano.a(lib_a-writer.o)
                                                  /usr/lib/gcc/arm-none-eabi/8.3.1/../../../arm-none-eabi/lib/thumb/v7e-m+fp/hard/libc_nano.a(lib_a-stdio.o)
abort                                             /usr/lib/gcc/arm-none-eabi/8.3.1/../../../arm-none-eabi/lib/thumb/v7e-m+fp/hard/libc_nano.a(lib_a-abort.o)
                                                  /usr/lib/gcc/arm-none-eabi/8.3.1/../../../arm-none-eabi/lib/thumb/v7e-m+fp/hard/libc_nano.a(lib_a-assert.o)
                                                  secp256k1/src/libsecp256k1_la-secp256k1.o
atexit                                            /usr/lib/gcc/arm-none-eabi/8.3.1/../../../arm-none-eabi/lib/thumb/v7e-m+fp/hard/libc_nano.a(lib_a-atexit.o)
                                                  /usr/lib/gcc/arm-none-eabi/8.3.1/../../../arm-none-eabi/lib/thumb/v7e-m+fp/hard/crt0.o
cleanup_glue                                      /usr/lib/gcc/arm-none-eabi/8.3.1/../../../arm-none-eabi/lib/thumb/v7e-m+fp/hard/libc_nano.a(lib_a-reent.o)
commands                                          build/run.o
dat                                               build/run.o
decrypt                                           build/encrypt.o
                                                  build/run.o
defaultTaskHandle                                 build/main.o
defaultTask_attributes                            build/main.o
eTaskGetState                                     build/tasks.o
                                                  build/cmsis_os2.o
encrypt                                           build/encrypt.o
encrypt_raw                                       build/encrypt.o
                                                  build/run.o
end                                               /usr/lib/gcc/arm-none-eabi/8.3.1/../../../arm-none-eabi/lib/thumb/v7e-m+fp/hard/libnosys.a(sbrk.o)
errno                                             /usr/lib/gcc/arm-none-eabi/8.3.1/../../../arm-none-eabi/lib/thumb/v7e-m+fp/hard/libc_nano.a(lib_a-reent.o)
                                                  /usr/lib/gcc/arm-none-eabi/8.3.1/../../../arm-none-eabi/lib/thumb/v7e-m+fp/hard/libnosys.a(kill.o)
                                                  /usr/lib/gcc/arm-none-eabi/8.3.1/../../../arm-none-eabi/lib/thumb/v7e-m+fp/hard/libnosys.a(getpid.o)
                                                  /usr/lib/gcc/arm-none-eabi/8.3.1/../../../arm-none-eabi/lib/thumb/v7e-m+fp/hard/libc_nano.a(lib_a-readr.o)
                                                  /usr/lib/gcc/arm-none-eabi/8.3.1/../../../arm-none-eabi/lib/thumb/v7e-m+fp/hard/libc_nano.a(lib_a-lseekr.o)
                                                  /usr/lib/gcc/arm-none-eabi/8.3.1/../../../arm-none-eabi/lib/thumb/v7e-m+fp/hard/libc_nano.a(lib_a-isattyr.o)
                                                  /usr/lib/gcc/arm-none-eabi/8.3.1/../../../arm-none-eabi/lib/thumb/v7e-m+fp/hard/libc_nano.a(lib_a-fstatr.o)
                                                  /usr/lib/gcc/arm-none-eabi/8.3.1/../../../arm-none-eabi/lib/thumb/v7e-m+fp/hard/libc_nano.a(lib_a-closer.o)
                                                  /usr/lib/gcc/arm-none-eabi/8.3.1/../../../arm-none-eabi/lib/thumb/v7e-m+fp/hard/libc_nano.a(lib_a-writer.o)
                                                  /usr/lib/gcc/arm-none-eabi/8.3.1/../../../arm-none-eabi/lib/thumb/v7e-m+fp/hard/libc_nano.a(lib_a-signalr.o)
                                                  /usr/lib/gcc/arm-none-eabi/8.3.1/../../../arm-none-eabi/lib/thumb/v7e-m+fp/hard/libc_nano.a(lib_a-sbrkr.o)
exit                                              /usr/lib/gcc/arm-none-eabi/8.3.1/../../../arm-none-eabi/lib/thumb/v7e-m+fp/hard/libc_nano.a(lib_a-exit.o)
                                                  /usr/lib/gcc/arm-none-eabi/8.3.1/../../../arm-none-eabi/lib/thumb/v7e-m+fp/hard/crt0.o
fflush                                            /usr/lib/gcc/arm-none-eabi/8.3.1/../../../arm-none-eabi/lib/thumb/v7e-m+fp/hard/libc_nano.a(lib_a-fflush.o)
                                                  /usr/lib/gcc/arm-none-eabi/8.3.1/../../../arm-none-eabi/lib/thumb/v7e-m+fp/hard/libc_nano.a(lib_a-refill.o)
fiprintf                                          /usr/lib/gcc/arm-none-eabi/8.3.1/../../../arm-none-eabi/lib/thumb/v7e-m+fp/hard/libc_nano.a(lib_a-fprintf.o)
                                                  /usr/lib/gcc/arm-none-eabi/8.3.1/../../../arm-none-eabi/lib/thumb/v7e-m+fp/hard/libc_nano.a(lib_a-assert.o)
fprintf                                           /usr/lib/gcc/arm-none-eabi/8.3.1/../../../arm-none-eabi/lib/thumb/v7e-m+fp/hard/libc_nano.a(lib_a-fprintf.o)
                                                  secp256k1/src/libsecp256k1_la-secp256k1.o
free                                              /usr/lib/gcc/arm-none-eabi/8.3.1/../../../arm-none-eabi/lib/thumb/v7e-m+fp/hard/libc_nano.a(lib_a-malloc.o)
                                                  secp256k1/src/libsecp256k1_la-secp256k1.o
                                                  build/run.o
gHuart                                            build/retarget.o
g_pfnVectors                                      build/startup_stm32wb55xx_cm4.o
get_privkey                                       build/run.o
get_program_signature                             build/main.o
get_user_signature                                build/main.o
getc                                              /usr/lib/gcc/arm-none-eabi/8.3.1/../../../arm-none-eabi/lib/thumb/v7e-m+fp/hard/libc_nano.a(lib_a-getc.o)
getchar                                           /usr/lib/gcc/arm-none-eabi/8.3.1/../../../arm-none-eabi/lib/thumb/v7e-m+fp/hard/libc_nano.a(lib_a-getchar.o)
                                                  build/main.o
hardware_init_hook                                /usr/lib/gcc/arm-none-eabi/8.3.1/../../../arm-none-eabi/lib/thumb/v7e-m+fp/hard/crt0.o
help                                              build/run.o
hex_byte                                          build/run.o
htim1                                             build/stm32wbxx_hal_timebase_tim.o
                                                  build/stm32wbxx_it.o
huart1                                            build/main.o
                                                  build/stm32wbxx_it.o
iprintf                                           /usr/lib/gcc/arm-none-eabi/8.3.1/../../../arm-none-eabi/lib/thumb/v7e-m+fp/hard/libc_nano.a(lib_a-printf.o)
k                                                 build/sha256.o
localeconv                                        /usr/lib/gcc/arm-none-eabi/8.3.1/../../../arm-none-eabi/lib/thumb/v7e-m+fp/hard/libc_nano.a(lib_a-localeconv.o)
main                                              build/main.o
                                                  build/startup_stm32wb55xx_cm4.o
                                                  /usr/lib/gcc/arm-none-eabi/8.3.1/../../../arm-none-eabi/lib/thumb/v7e-m+fp/hard/crt0.o
malloc                                            /usr/lib/gcc/arm-none-eabi/8.3.1/../../../arm-none-eabi/lib/thumb/v7e-m+fp/hard/libc_nano.a(lib_a-malloc.o)
                                                  /usr/lib/gcc/arm-none-eabi/8.3.1/../../../arm-none-eabi/lib/thumb/v7e-m+fp/hard/libc_nano.a(lib_a-mprec.o)
                                                  /usr/lib/gcc/arm-none-eabi/8.3.1/../../../arm-none-eabi/lib/thumb/v7e-m+fp/hard/libc_nano.a(lib_a-dtoa.o)
                                                  /usr/lib/gcc/arm-none-eabi/8.3.1/../../../arm-none-eabi/lib/thumb/v7e-m+fp/hard/libc_nano.a(lib_a-__atexit.o)
                                                  /usr/lib/gcc/arm-none-eabi/8.3.1/../../../arm-none-eabi/lib/thumb/v7e-m+fp/hard/libc_nano.a(lib_a-setvbuf.o)
                                                  secp256k1/src/libsecp256k1_la-secp256k1.o
                                                  build/sha256.o
                                                  build/run.o
memchr                                            /usr/lib/gcc/arm-none-eabi/8.3.1/../../../arm-none-eabi/lib/thumb/v7e-m+fp/hard/libc_nano.a(lib_a-memchr.o)
                                                  /usr/lib/gcc/arm-none-eabi/8.3.1/../../../arm-none-eabi/lib/thumb/v7e-m+fp/hard/libc_nano.a(lib_a-nano-svfprintf.o)
                                                  /usr/lib/gcc/arm-none-eabi/8.3.1/../../../arm-none-eabi/lib/thumb/v7e-m+fp/hard/libc_nano.a(lib_a-fvwrite.o)
                                                  /usr/lib/gcc/arm-none-eabi/8.3.1/../../../arm-none-eabi/lib/thumb/v7e-m+fp/hard/libc_nano.a(lib_a-nano-vfprintf_i.o)
                                                  /usr/lib/gcc/arm-none-eabi/8.3.1/../../../arm-none-eabi/lib/thumb/v7e-m+fp/hard/libc_nano.a(lib_a-nano-vfprintf.o)
                                                  build/run.o
memcmp                                            /usr/lib/gcc/arm-none-eabi/8.3.1/../../../arm-none-eabi/lib/thumb/v7e-m+fp/hard/libc_nano.a(lib_a-memcmp.o)
                                                  build/encrypt.o
memcpy                                            /usr/lib/gcc/arm-none-eabi/8.3.1/../../../arm-none-eabi/lib/thumb/v7e-m+fp/hard/libc_nano.a(lib_a-memcpy.o)
                                                  /usr/lib/gcc/arm-none-eabi/8.3.1/../../../arm-none-eabi/lib/thumb/v7e-m+fp/hard/libc_nano.a(lib_a-nano-svfprintf.o)
                                                  /usr/lib/gcc/arm-none-eabi/8.3.1/../../../arm-none-eabi/lib/thumb/v7e-m+fp/hard/libc_nano.a(lib_a-nano-reallocr.o)
                                                  /usr/lib/gcc/arm-none-eabi/8.3.1/../../../arm-none-eabi/lib/thumb/v7e-m+fp/hard/libc_nano.a(lib_a-mprec.o)
                                                  /usr/lib/gcc/arm-none-eabi/8.3.1/../../../arm-none-eabi/lib/thumb/v7e-m+fp/hard/libc_nano.a(lib_a-fvwrite.o)
                                                  /usr/lib/gcc/arm-none-eabi/8.3.1/../../../arm-none-eabi/lib/thumb/v7e-m+fp/hard/libc_nano.a(lib_a-dtoa.o)
                                                  secp256k1/src/libsecp256k1_la-secp256k1.o
                                                  build/cmsis_os2.o
                                                  build/stream_buffer.o
                                                  build/queue.o
memmove                                           /usr/lib/gcc/arm-none-eabi/8.3.1/../../../arm-none-eabi/lib/thumb/v7e-m+fp/hard/libc_nano.a(lib_a-memmove.o)
                                                  /usr/lib/gcc/arm-none-eabi/8.3.1/../../../arm-none-eabi/lib/thumb/v7e-m+fp/hard/libc_nano.a(lib_a-nano-svfprintf.o)
                                                  /usr/lib/gcc/arm-none-eabi/8.3.1/../../../arm-none-eabi/lib/thumb/v7e-m+fp/hard/libc_nano.a(lib_a-fvwrite.o)
memset                                            /usr/lib/gcc/arm-none-eabi/8.3.1/../../../arm-none-eabi/lib/thumb/v7e-m+fp/hard/libc_nano.a(lib_a-memset.o)
                                                  /usr/lib/gcc/arm-none-eabi/8.3.1/../../../arm-none-eabi/lib/thumb/v7e-m+fp/hard/libc_nano.a(lib_a-nano-callocr.o)
                                                  /usr/lib/gcc/arm-none-eabi/8.3.1/../../../arm-none-eabi/lib/thumb/v7e-m+fp/hard/libc_nano.a(lib_a-findfp.o)
                                                  secp256k1/src/libsecp256k1_la-secp256k1.o
                                                  build/tasks.o
                                                  build/stream_buffer.o
                                                  build/sha256.o
                                                  build/main.o
                                                  build/run.o
                                                  /usr/lib/gcc/arm-none-eabi/8.3.1/../../../arm-none-eabi/lib/thumb/v7e-m+fp/hard/crt0.o
osDelay                                           build/cmsis_os2.o
osDelayUntil                                      build/cmsis_os2.o
osEventFlagsClear                                 build/cmsis_os2.o
osEventFlagsDelete                                build/cmsis_os2.o
osEventFlagsGet                                   build/cmsis_os2.o
osEventFlagsNew                                   build/cmsis_os2.o
osEventFlagsSet                                   build/cmsis_os2.o
osEventFlagsWait                                  build/cmsis_os2.o
osKernelGetInfo                                   build/cmsis_os2.o
osKernelGetState                                  build/cmsis_os2.o
osKernelGetSysTimerCount                          build/cmsis_os2.o
osKernelGetSysTimerFreq                           build/cmsis_os2.o
osKernelGetTickCount                              build/cmsis_os2.o
osKernelGetTickFreq                               build/cmsis_os2.o
osKernelInitialize                                build/cmsis_os2.o
                                                  build/main.o
osKernelLock                                      build/cmsis_os2.o
osKernelRestoreLock                               build/cmsis_os2.o
osKernelStart                                     build/cmsis_os2.o
                                                  build/main.o
osKernelUnlock                                    build/cmsis_os2.o
osMemoryPoolAlloc                                 build/cmsis_os2.o
osMemoryPoolDelete                                build/cmsis_os2.o
osMemoryPoolFree                                  build/cmsis_os2.o
osMemoryPoolGetBlockSize                          build/cmsis_os2.o
osMemoryPoolGetCapacity                           build/cmsis_os2.o
osMemoryPoolGetCount                              build/cmsis_os2.o
osMemoryPoolGetName                               build/cmsis_os2.o
osMemoryPoolGetSpace                              build/cmsis_os2.o
osMemoryPoolNew                                   build/cmsis_os2.o
osMessageQueueDelete                              build/cmsis_os2.o
osMessageQueueGet                                 build/cmsis_os2.o
osMessageQueueGetCapacity                         build/cmsis_os2.o
osMessageQueueGetCount                            build/cmsis_os2.o
osMessageQueueGetMsgSize                          build/cmsis_os2.o
osMessageQueueGetSpace                            build/cmsis_os2.o
osMessageQueueNew                                 build/cmsis_os2.o
osMessageQueuePut                                 build/cmsis_os2.o
osMessageQueueReset                               build/cmsis_os2.o
osMutexAcquire                                    build/cmsis_os2.o
osMutexDelete                                     build/cmsis_os2.o
osMutexGetOwner                                   build/cmsis_os2.o
osMutexNew                                        build/cmsis_os2.o
osMutexRelease                                    build/cmsis_os2.o
osSemaphoreAcquire                                build/cmsis_os2.o
osSemaphoreDelete                                 build/cmsis_os2.o
osSemaphoreGetCount                               build/cmsis_os2.o
osSemaphoreNew                                    build/cmsis_os2.o
osSemaphoreRelease                                build/cmsis_os2.o
osThreadEnumerate                                 build/cmsis_os2.o
osThreadExit                                      build/cmsis_os2.o
osThreadFlagsClear                                build/cmsis_os2.o
osThreadFlagsGet                                  build/cmsis_os2.o
osThreadFlagsSet                                  build/cmsis_os2.o
osThreadFlagsWait                                 build/cmsis_os2.o
osThreadGetCount                                  build/cmsis_os2.o
osThreadGetId                                     build/cmsis_os2.o
osThreadGetName                                   build/cmsis_os2.o
osThreadGetPriority                               build/cmsis_os2.o
osThreadGetStackSpace                             build/cmsis_os2.o
osThreadGetState                                  build/cmsis_os2.o
osThreadNew                                       build/cmsis_os2.o
                                                  build/main.o
osThreadResume                                    build/cmsis_os2.o
osThreadSetPriority                               build/cmsis_os2.o
osThreadSuspend                                   build/cmsis_os2.o
osThreadTerminate                                 build/cmsis_os2.o
osThreadYield                                     build/cmsis_os2.o
osTimerDelete                                     build/cmsis_os2.o
osTimerGetName                                    build/cmsis_os2.o
osTimerIsRunning                                  build/cmsis_os2.o
osTimerNew                                        build/cmsis_os2.o
osTimerStart                                      build/cmsis_os2.o
osTimerStop                                       build/cmsis_os2.o
pFlash                                            build/stm32wbxx_hal_flash.o
                                                  build/stm32wbxx_hal_flash_ex.o
pcQueueGetName                                    build/queue.o
pcTaskGetName                                     build/tasks.o
                                                  build/cmsis_os2.o
pcTimerGetName                                    build/timers.o
                                                  build/cmsis_os2.o
printf                                            /usr/lib/gcc/arm-none-eabi/8.3.1/../../../arm-none-eabi/lib/thumb/v7e-m+fp/hard/libc_nano.a(lib_a-printf.o)
                                                  build/main.o
                                                  build/run.o
priv_parse                                        build/run.o
pub_parse                                         build/run.o
putc                                              /usr/lib/gcc/arm-none-eabi/8.3.1/../../../arm-none-eabi/lib/thumb/v7e-m+fp/hard/libc_nano.a(lib_a-putc.o)
putchar                                           /usr/lib/gcc/arm-none-eabi/8.3.1/../../../arm-none-eabi/lib/thumb/v7e-m+fp/hard/libc_nano.a(lib_a-putchar.o)
                                                  build/main.o
                                                  build/run.o
puts                                              /usr/lib/gcc/arm-none-eabi/8.3.1/../../../arm-none-eabi/lib/thumb/v7e-m+fp/hard/libc_nano.a(lib_a-puts.o)
                                                  build/main.o
                                                  build/run.o
pvPortMalloc                                      build/heap_4.o
                                                  build/cmsis_os2.o
                                                  build/timers.o
                                                  build/tasks.o
                                                  build/stream_buffer.o
                                                  build/queue.o
                                                  build/event_groups.o
pvTaskIncrementMutexHeldCount                     build/tasks.o
                                                  build/queue.o
pvTimerGetTimerID                                 build/timers.o
                                                  build/cmsis_os2.o
pxCurrentTCB                                      build/tasks.o
                                                  build/port.o
pxPortInitialiseStack                             build/port.o
                                                  build/tasks.o
raise                                             /usr/lib/gcc/arm-none-eabi/8.3.1/../../../arm-none-eabi/lib/thumb/v7e-m+fp/hard/libc_nano.a(lib_a-signal.o)
                                                  /usr/lib/gcc/arm-none-eabi/8.3.1/../../../arm-none-eabi/lib/thumb/v7e-m+fp/hard/libc_nano.a(lib_a-abort.o)
save_flash                                        build/main.o
save_privkey                                      build/run.o
secp256k1_context_clone                           secp256k1/src/libsecp256k1_la-secp256k1.o
secp256k1_context_create                          secp256k1/src/libsecp256k1_la-secp256k1.o
                                                  build/run.o
secp256k1_context_destroy                         secp256k1/src/libsecp256k1_la-secp256k1.o
                                                  build/run.o
secp256k1_context_randomize                       secp256k1/src/libsecp256k1_la-secp256k1.o
secp256k1_context_set_error_callback              secp256k1/src/libsecp256k1_la-secp256k1.o
secp256k1_context_set_illegal_callback            secp256k1/src/libsecp256k1_la-secp256k1.o
secp256k1_ec_privkey_negate                       secp256k1/src/libsecp256k1_la-secp256k1.o
secp256k1_ec_privkey_tweak_add                    secp256k1/src/libsecp256k1_la-secp256k1.o
secp256k1_ec_privkey_tweak_mul                    secp256k1/src/libsecp256k1_la-secp256k1.o
secp256k1_ec_pubkey_combine                       secp256k1/src/libsecp256k1_la-secp256k1.o
secp256k1_ec_pubkey_create                        secp256k1/src/libsecp256k1_la-secp256k1.o
                                                  build/run.o
secp256k1_ec_pubkey_negate                        secp256k1/src/libsecp256k1_la-secp256k1.o
secp256k1_ec_pubkey_parse                         secp256k1/src/libsecp256k1_la-secp256k1.o
secp256k1_ec_pubkey_serialize                     secp256k1/src/libsecp256k1_la-secp256k1.o
                                                  build/run.o
secp256k1_ec_pubkey_tweak_add                     secp256k1/src/libsecp256k1_la-secp256k1.o
secp256k1_ec_pubkey_tweak_mul                     secp256k1/src/libsecp256k1_la-secp256k1.o
secp256k1_ec_seckey_verify                        secp256k1/src/libsecp256k1_la-secp256k1.o
secp256k1_ecdsa_recover                           secp256k1/src/libsecp256k1_la-secp256k1.o
secp256k1_ecdsa_recoverable_signature_convert     secp256k1/src/libsecp256k1_la-secp256k1.o
secp256k1_ecdsa_recoverable_signature_parse_compact secp256k1/src/libsecp256k1_la-secp256k1.o
secp256k1_ecdsa_recoverable_signature_serialize_compact secp256k1/src/libsecp256k1_la-secp256k1.o
                                                  build/run.o
secp256k1_ecdsa_sign                              secp256k1/src/libsecp256k1_la-secp256k1.o
                                                  build/run.o
secp256k1_ecdsa_sign_recoverable                  secp256k1/src/libsecp256k1_la-secp256k1.o
                                                  build/run.o
secp256k1_ecdsa_signature_normalize               secp256k1/src/libsecp256k1_la-secp256k1.o
secp256k1_ecdsa_signature_parse_compact           secp256k1/src/libsecp256k1_la-secp256k1.o
secp256k1_ecdsa_signature_parse_der               secp256k1/src/libsecp256k1_la-secp256k1.o
secp256k1_ecdsa_signature_serialize_compact       secp256k1/src/libsecp256k1_la-secp256k1.o
secp256k1_ecdsa_signature_serialize_der           secp256k1/src/libsecp256k1_la-secp256k1.o
                                                  build/run.o
secp256k1_ecdsa_verify                            secp256k1/src/libsecp256k1_la-secp256k1.o
secp256k1_ecdsa_verify_validonly                  secp256k1/src/libsecp256k1_la-secp256k1.o
secp256k1_nonce_function_default                  secp256k1/src/libsecp256k1_la-secp256k1.o
secp256k1_nonce_function_rfc6979                  secp256k1/src/libsecp256k1_la-secp256k1.o
                                                  build/run.o
setlocale                                         /usr/lib/gcc/arm-none-eabi/8.3.1/../../../arm-none-eabi/lib/thumb/v7e-m+fp/hard/libc_nano.a(lib_a-locale.o)
setvbuf                                           /usr/lib/gcc/arm-none-eabi/8.3.1/../../../arm-none-eabi/lib/thumb/v7e-m+fp/hard/libc_nano.a(lib_a-setvbuf.o)
                                                  build/retarget.o
sign                                              build/run.o
sign_parse                                        build/run.o
signal                                            /usr/lib/gcc/arm-none-eabi/8.3.1/../../../arm-none-eabi/lib/thumb/v7e-m+fp/hard/libc_nano.a(lib_a-signal.o)
signh                                             build/run.o
signh_parse                                       build/run.o
signrec                                           build/run.o
signrec_parse                                     build/run.o
signrech                                          build/run.o
signrech_parse                                    build/run.o
siprintf                                          /usr/lib/gcc/arm-none-eabi/8.3.1/../../../arm-none-eabi/lib/thumb/v7e-m+fp/hard/libc_nano.a(lib_a-sprintf.o)
software_init_hook                                /usr/lib/gcc/arm-none-eabi/8.3.1/../../../arm-none-eabi/lib/thumb/v7e-m+fp/hard/crt0.o
sprintf                                           /usr/lib/gcc/arm-none-eabi/8.3.1/../../../arm-none-eabi/lib/thumb/v7e-m+fp/hard/libc_nano.a(lib_a-sprintf.o)
                                                  build/sha256.o
strcat                                            /usr/lib/gcc/arm-none-eabi/8.3.1/../../../arm-none-eabi/lib/thumb/v7e-m+fp/hard/libc_nano.a(lib_a-strcat.o)
                                                  build/sha256.o
strcmp                                            /usr/lib/gcc/arm-none-eabi/8.3.1/../../../arm-none-eabi/lib/thumb/v7e-m+fp/hard/libc_nano.a(lib_a-strcmp.o)
                                                  /usr/lib/gcc/arm-none-eabi/8.3.1/../../../arm-none-eabi/lib/thumb/v7e-m+fp/hard/libc_nano.a(lib_a-locale.o)
strcpy                                            /usr/lib/gcc/arm-none-eabi/8.3.1/../../../arm-none-eabi/lib/thumb/v7e-m+fp/hard/libc_nano.a(lib_a-strcpy.o)
                                                  /usr/lib/gcc/arm-none-eabi/8.3.1/../../../arm-none-eabi/lib/thumb/v7e-m+fp/hard/libc_nano.a(lib_a-strcat.o)
strlen                                            /usr/lib/gcc/arm-none-eabi/8.3.1/../../../arm-none-eabi/lib/thumb/v7e-m+fp/hard/libc_nano.a(lib_a-strlen.o)
                                                  /usr/lib/gcc/arm-none-eabi/8.3.1/../../../arm-none-eabi/lib/thumb/v7e-m+fp/hard/libc_nano.a(lib_a-nano-vfprintf_float.o)
                                                  build/sha256.o
                                                  build/encrypt.o
                                                  build/run.o
strncmp                                           /usr/lib/gcc/arm-none-eabi/8.3.1/../../../arm-none-eabi/lib/thumb/v7e-m+fp/hard/libc_nano.a(lib_a-strncmp.o)
                                                  build/run.o
strncpy                                           /usr/lib/gcc/arm-none-eabi/8.3.1/../../../arm-none-eabi/lib/thumb/v7e-m+fp/hard/libc_nano.a(lib_a-strncpy.o)
                                                  build/run.o
strtoul                                           /usr/lib/gcc/arm-none-eabi/8.3.1/../../../arm-none-eabi/lib/thumb/v7e-m+fp/hard/libc_nano.a(lib_a-strtoul.o)
                                                  build/run.o
strtoul_l                                         /usr/lib/gcc/arm-none-eabi/8.3.1/../../../arm-none-eabi/lib/thumb/v7e-m+fp/hard/libc_nano.a(lib_a-strtoul.o)
ucQueueGetQueueType                               build/queue.o
ucStreamBufferGetStreamBufferType                 build/stream_buffer.o
ulTaskNotifyTake                                  build/tasks.o
ulTaskNotifyValueClear                            build/tasks.o
uwTick                                            build/stm32wbxx_hal.o
uwTickFreq                                        build/stm32wbxx_hal.o
uwTickPrio                                        build/stm32wbxx_hal.o
                                                  build/stm32wbxx_hal_rcc.o
uxEventGroupGetNumber                             build/event_groups.o
uxListRemove                                      build/list.o
                                                  build/timers.o
                                                  build/tasks.o
uxQueueGetQueueNumber                             build/queue.o
uxQueueMessagesWaiting                            build/queue.o
                                                  build/cmsis_os2.o
uxQueueMessagesWaitingFromISR                     build/queue.o
                                                  build/cmsis_os2.o
uxQueueSpacesAvailable                            build/queue.o
                                                  build/cmsis_os2.o
uxStreamBufferGetStreamBufferNumber               build/stream_buffer.o
uxTaskGetNumberOfTasks                            build/tasks.o
                                                  build/cmsis_os2.o
uxTaskGetStackHighWaterMark                       build/tasks.o
                                                  build/cmsis_os2.o
uxTaskGetSystemState                              build/tasks.o
                                                  build/cmsis_os2.o
uxTaskGetTaskNumber                               build/tasks.o
uxTaskPriorityGet                                 build/tasks.o
                                                  build/cmsis_os2.o
uxTaskPriorityGetFromISR                          build/tasks.o
uxTaskResetEventItemValue                         build/tasks.o
                                                  build/event_groups.o
uxTimerGetReloadMode                              build/timers.o
uxTimerGetTimerNumber                             build/timers.o
vApplicationGetIdleTaskMemory                     build/cmsis_os2.o
                                                  build/tasks.o
vApplicationGetTimerTaskMemory                    build/cmsis_os2.o
                                                  build/timers.o
vEventGroupClearBitsCallback                      build/event_groups.o
vEventGroupDelete                                 build/event_groups.o
                                                  build/cmsis_os2.o
vEventGroupSetBitsCallback                        build/event_groups.o
vEventGroupSetNumber                              build/event_groups.o
vListInitialise                                   build/list.o
                                                  build/timers.o
                                                  build/tasks.o
                                                  build/queue.o
                                                  build/event_groups.o
vListInitialiseItem                               build/list.o
                                                  build/timers.o
                                                  build/tasks.o
vListInsert                                       build/list.o
                                                  build/timers.o
                                                  build/tasks.o
vListInsertEnd                                    build/list.o
                                                  build/tasks.o
vPortEndScheduler                                 build/port.o
                                                  build/tasks.o
vPortEnterCritical                                build/port.o
                                                  build/heap_4.o
                                                  build/cmsis_os2.o
                                                  build/timers.o
                                                  build/tasks.o
                                                  build/stream_buffer.o
                                                  build/queue.o
                                                  build/event_groups.o
vPortExitCritical                                 build/port.o
                                                  build/heap_4.o
                                                  build/cmsis_os2.o
                                                  build/timers.o
                                                  build/tasks.o
                                                  build/stream_buffer.o
                                                  build/queue.o
                                                  build/event_groups.o
vPortFree                                         build/heap_4.o
                                                  build/cmsis_os2.o
                                                  build/timers.o
                                                  build/tasks.o
                                                  build/stream_buffer.o
                                                  build/queue.o
                                                  build/event_groups.o
vPortGetHeapStats                                 build/heap_4.o
vPortInitialiseBlocks                             build/heap_4.o
vPortSetupTimerInterrupt                          build/port.o
vPortValidateInterruptPriority                    build/port.o
                                                  build/tasks.o
                                                  build/queue.o
vQueueAddToRegistry                               build/queue.o
                                                  build/cmsis_os2.o
                                                  build/timers.o
vQueueDelete                                      build/queue.o
                                                  build/cmsis_os2.o
vQueueSetQueueNumber                              build/queue.o
vQueueUnregisterQueue                             build/queue.o
                                                  build/cmsis_os2.o
vQueueWaitForMessageRestricted                    build/queue.o
                                                  build/timers.o
vStreamBufferDelete                               build/stream_buffer.o
vStreamBufferSetStreamBufferNumber                build/stream_buffer.o
vTaskDelay                                        build/tasks.o
                                                  build/cmsis_os2.o
vTaskDelayUntil                                   build/tasks.o
                                                  build/cmsis_os2.o
vTaskDelete                                       build/tasks.o
                                                  build/cmsis_os2.o
vTaskEndScheduler                                 build/tasks.o
vTaskGetInfo                                      build/tasks.o
vTaskInternalSetTimeOutState                      build/tasks.o
                                                  build/queue.o
vTaskMissedYield                                  build/tasks.o
                                                  build/queue.o
vTaskNotifyGiveFromISR                            build/tasks.o
vTaskPlaceOnEventList                             build/tasks.o
                                                  build/queue.o
vTaskPlaceOnEventListRestricted                   build/tasks.o
                                                  build/queue.o
vTaskPlaceOnUnorderedEventList                    build/tasks.o
                                                  build/event_groups.o
vTaskPriorityDisinheritAfterTimeout               build/tasks.o
                                                  build/queue.o
vTaskPrioritySet                                  build/tasks.o
                                                  build/cmsis_os2.o
vTaskRemoveFromUnorderedEventList                 build/tasks.o
                                                  build/event_groups.o
vTaskResume                                       build/tasks.o
                                                  build/cmsis_os2.o
vTaskSetTaskNumber                                build/tasks.o
vTaskSetTimeOutState                              build/tasks.o
                                                  build/stream_buffer.o
vTaskStartScheduler                               build/tasks.o
                                                  build/cmsis_os2.o
vTaskSuspend                                      build/tasks.o
                                                  build/cmsis_os2.o
vTaskSuspendAll                                   build/tasks.o
                                                  build/heap_4.o
                                                  build/cmsis_os2.o
                                                  build/timers.o
                                                  build/stream_buffer.o
                                                  build/queue.o
                                                  build/event_groups.o
vTaskSwitchContext                                build/tasks.o
                                                  build/port.o
vTimerSetReloadMode                               build/timers.o
vTimerSetTimerID                                  build/timers.o
vTimerSetTimerNumber                              build/timers.o
vfiprintf                                         /usr/lib/gcc/arm-none-eabi/8.3.1/../../../arm-none-eabi/lib/thumb/v7e-m+fp/hard/libc_nano.a(lib_a-nano-vfprintf.o)
vfprintf                                          /usr/lib/gcc/arm-none-eabi/8.3.1/../../../arm-none-eabi/lib/thumb/v7e-m+fp/hard/libc_nano.a(lib_a-nano-vfprintf.o)
wallet_main                                       build/run.o
                                                  build/main.o
xEventGroupClearBits                              build/event_groups.o
                                                  build/cmsis_os2.o
xEventGroupClearBitsFromISR                       build/event_groups.o
                                                  build/cmsis_os2.o
xEventGroupCreate                                 build/event_groups.o
                                                  build/cmsis_os2.o
xEventGroupCreateStatic                           build/event_groups.o
                                                  build/cmsis_os2.o
xEventGroupGetBitsFromISR                         build/event_groups.o
                                                  build/cmsis_os2.o
xEventGroupSetBits                                build/event_groups.o
                                                  build/cmsis_os2.o
xEventGroupSetBitsFromISR                         build/event_groups.o
                                                  build/cmsis_os2.o
xEventGroupSync                                   build/event_groups.o
xEventGroupWaitBits                               build/event_groups.o
                                                  build/cmsis_os2.o
xPortGetFreeHeapSize                              build/heap_4.o
xPortGetMinimumEverFreeHeapSize                   build/heap_4.o
xPortStartScheduler                               build/port.o
                                                  build/tasks.o
xPortSysTickHandler                               build/port.o
                                                  build/cmsis_os2.o
xQueueCreateCountingSemaphore                     build/queue.o
                                                  build/cmsis_os2.o
xQueueCreateCountingSemaphoreStatic               build/queue.o
                                                  build/cmsis_os2.o
xQueueCreateMutex                                 build/queue.o
                                                  build/cmsis_os2.o
xQueueCreateMutexStatic                           build/queue.o
                                                  build/cmsis_os2.o
xQueueGenericCreate                               build/queue.o
                                                  build/cmsis_os2.o
xQueueGenericCreateStatic                         build/queue.o
                                                  build/cmsis_os2.o
                                                  build/timers.o
xQueueGenericReset                                build/queue.o
                                                  build/cmsis_os2.o
xQueueGenericSend                                 build/queue.o
                                                  build/cmsis_os2.o
                                                  build/timers.o
xQueueGenericSendFromISR                          build/queue.o
                                                  build/cmsis_os2.o
                                                  build/timers.o
xQueueGetMutexHolder                              build/queue.o
                                                  build/cmsis_os2.o
xQueueGetMutexHolderFromISR                       build/queue.o
xQueueGiveFromISR                                 build/queue.o
                                                  build/cmsis_os2.o
xQueueGiveMutexRecursive                          build/queue.o
                                                  build/cmsis_os2.o
xQueueIsQueueEmptyFromISR                         build/queue.o
xQueueIsQueueFullFromISR                          build/queue.o
xQueuePeek                                        build/queue.o
xQueuePeekFromISR                                 build/queue.o
xQueueReceive                                     build/queue.o
                                                  build/cmsis_os2.o
                                                  build/timers.o
xQueueReceiveFromISR                              build/queue.o
                                                  build/cmsis_os2.o
xQueueRegistry                                    build/queue.o
xQueueSemaphoreTake                               build/queue.o
                                                  build/cmsis_os2.o
xQueueTakeMutexRecursive                          build/queue.o
                                                  build/cmsis_os2.o
xStreamBufferBytesAvailable                       build/stream_buffer.o
xStreamBufferGenericCreate                        build/stream_buffer.o
xStreamBufferGenericCreateStatic                  build/stream_buffer.o
xStreamBufferIsEmpty                              build/stream_buffer.o
xStreamBufferIsFull                               build/stream_buffer.o
xStreamBufferNextMessageLengthBytes               build/stream_buffer.o
xStreamBufferReceive                              build/stream_buffer.o
xStreamBufferReceiveCompletedFromISR              build/stream_buffer.o
xStreamBufferReceiveFromISR                       build/stream_buffer.o
xStreamBufferReset                                build/stream_buffer.o
xStreamBufferSend                                 build/stream_buffer.o
xStreamBufferSendCompletedFromISR                 build/stream_buffer.o
xStreamBufferSendFromISR                          build/stream_buffer.o
xStreamBufferSetTriggerLevel                      build/stream_buffer.o
xStreamBufferSpacesAvailable                      build/stream_buffer.o
xTaskCatchUpTicks                                 build/tasks.o
xTaskCheckForTimeOut                              build/tasks.o
                                                  build/stream_buffer.o
                                                  build/queue.o
xTaskCreate                                       build/tasks.o
                                                  build/cmsis_os2.o
xTaskCreateStatic                                 build/tasks.o
                                                  build/cmsis_os2.o
                                                  build/timers.o
xTaskGenericNotify                                build/tasks.o
                                                  build/cmsis_os2.o
                                                  build/stream_buffer.o
xTaskGenericNotifyFromISR                         build/tasks.o
                                                  build/cmsis_os2.o
                                                  build/stream_buffer.o
xTaskGetCurrentTaskHandle                         build/tasks.o
                                                  build/cmsis_os2.o
                                                  build/stream_buffer.o
                                                  build/queue.o
xTaskGetSchedulerState                            build/tasks.o
                                                  build/cmsis_os2.o
                                                  build/timers.o
                                                  build/queue.o
                                                  build/event_groups.o
xTaskGetTickCount                                 build/tasks.o
                                                  build/cmsis_os2.o
                                                  build/timers.o
xTaskGetTickCountFromISR                          build/tasks.o
                                                  build/cmsis_os2.o
xTaskIncrementTick                                build/tasks.o
                                                  build/port.o
xTaskNotifyStateClear                             build/tasks.o
                                                  build/stream_buffer.o
xTaskNotifyWait                                   build/tasks.o
                                                  build/cmsis_os2.o
                                                  build/stream_buffer.o
xTaskPriorityDisinherit                           build/tasks.o
                                                  build/queue.o
xTaskPriorityInherit                              build/tasks.o
                                                  build/queue.o
xTaskRemoveFromEventList                          build/tasks.o
                                                  build/queue.o
xTaskResumeAll                                    build/tasks.o
                                                  build/heap_4.o
                                                  build/cmsis_os2.o
                                                  build/timers.o
                                                  build/stream_buffer.o
                                                  build/queue.o
                                                  build/event_groups.o
xTaskResumeFromISR                                build/tasks.o
xTimerCreate                                      build/timers.o
                                                  build/cmsis_os2.o
xTimerCreateStatic                                build/timers.o
                                                  build/cmsis_os2.o
xTimerCreateTimerTask                             build/timers.o
                                                  build/tasks.o
xTimerGenericCommand                              build/timers.o
                                                  build/cmsis_os2.o
xTimerGetExpiryTime                               build/timers.o
xTimerGetPeriod                                   build/timers.o
xTimerGetTimerDaemonTaskHandle                    build/timers.o
xTimerIsTimerActive                               build/timers.o
                                                  build/cmsis_os2.o
xTimerPendFunctionCall                            build/timers.o
xTimerPendFunctionCallFromISR                     build/timers.o
                                                  build/event_groups.o
